GAS LISTING C:\Users\USER\AppData\Local\Temp\ccxBfeO7.s 			page 1


   1              		.file	"main.cpp"
   2              		.text
   3              	Ltext0:
   4              		.cfi_sections	.debug_frame
   5              		.section	.text$_ZNSt9exceptionC2Ev,"x"
   6              		.linkonce discard
   7              		.align 2
   8              		.globl	__ZNSt9exceptionC2Ev
  10              	__ZNSt9exceptionC2Ev:
  11              	LFB18:
  12              		.file 1 "C:/TDM-GCC-32/lib/gcc/mingw32/5.1.0/include/c++/exception"
   1:C:/TDM-GCC-32/lib/gcc/mingw32/5.1.0/include/c++\exception **** // Exception Handling support header for -*- C++ -*-
   2:C:/TDM-GCC-32/lib/gcc/mingw32/5.1.0/include/c++\exception **** 
   3:C:/TDM-GCC-32/lib/gcc/mingw32/5.1.0/include/c++\exception **** // Copyright (C) 1995-2015 Free Software Foundation, Inc.
   4:C:/TDM-GCC-32/lib/gcc/mingw32/5.1.0/include/c++\exception **** //
   5:C:/TDM-GCC-32/lib/gcc/mingw32/5.1.0/include/c++\exception **** // This file is part of GCC.
   6:C:/TDM-GCC-32/lib/gcc/mingw32/5.1.0/include/c++\exception **** //
   7:C:/TDM-GCC-32/lib/gcc/mingw32/5.1.0/include/c++\exception **** // GCC is free software; you can redistribute it and/or modify
   8:C:/TDM-GCC-32/lib/gcc/mingw32/5.1.0/include/c++\exception **** // it under the terms of the GNU General Public License as published by
   9:C:/TDM-GCC-32/lib/gcc/mingw32/5.1.0/include/c++\exception **** // the Free Software Foundation; either version 3, or (at your option)
  10:C:/TDM-GCC-32/lib/gcc/mingw32/5.1.0/include/c++\exception **** // any later version.
  11:C:/TDM-GCC-32/lib/gcc/mingw32/5.1.0/include/c++\exception **** //
  12:C:/TDM-GCC-32/lib/gcc/mingw32/5.1.0/include/c++\exception **** // GCC is distributed in the hope that it will be useful,
  13:C:/TDM-GCC-32/lib/gcc/mingw32/5.1.0/include/c++\exception **** // but WITHOUT ANY WARRANTY; without even the implied warranty of
  14:C:/TDM-GCC-32/lib/gcc/mingw32/5.1.0/include/c++\exception **** // MERCHANTABILITY or FITNESS FOR A PARTICULAR PURPOSE.  See the
  15:C:/TDM-GCC-32/lib/gcc/mingw32/5.1.0/include/c++\exception **** // GNU General Public License for more details.
  16:C:/TDM-GCC-32/lib/gcc/mingw32/5.1.0/include/c++\exception **** //
  17:C:/TDM-GCC-32/lib/gcc/mingw32/5.1.0/include/c++\exception **** // Under Section 7 of GPL version 3, you are granted additional
  18:C:/TDM-GCC-32/lib/gcc/mingw32/5.1.0/include/c++\exception **** // permissions described in the GCC Runtime Library Exception, version
  19:C:/TDM-GCC-32/lib/gcc/mingw32/5.1.0/include/c++\exception **** // 3.1, as published by the Free Software Foundation.
  20:C:/TDM-GCC-32/lib/gcc/mingw32/5.1.0/include/c++\exception **** 
  21:C:/TDM-GCC-32/lib/gcc/mingw32/5.1.0/include/c++\exception **** // You should have received a copy of the GNU General Public License and
  22:C:/TDM-GCC-32/lib/gcc/mingw32/5.1.0/include/c++\exception **** // a copy of the GCC Runtime Library Exception along with this program;
  23:C:/TDM-GCC-32/lib/gcc/mingw32/5.1.0/include/c++\exception **** // see the files COPYING3 and COPYING.RUNTIME respectively.  If not, see
  24:C:/TDM-GCC-32/lib/gcc/mingw32/5.1.0/include/c++\exception **** // <http://www.gnu.org/licenses/>.
  25:C:/TDM-GCC-32/lib/gcc/mingw32/5.1.0/include/c++\exception **** 
  26:C:/TDM-GCC-32/lib/gcc/mingw32/5.1.0/include/c++\exception **** /** @file exception
  27:C:/TDM-GCC-32/lib/gcc/mingw32/5.1.0/include/c++\exception ****  *  This is a Standard C++ Library header.
  28:C:/TDM-GCC-32/lib/gcc/mingw32/5.1.0/include/c++\exception ****  */
  29:C:/TDM-GCC-32/lib/gcc/mingw32/5.1.0/include/c++\exception **** 
  30:C:/TDM-GCC-32/lib/gcc/mingw32/5.1.0/include/c++\exception **** #ifndef __EXCEPTION__
  31:C:/TDM-GCC-32/lib/gcc/mingw32/5.1.0/include/c++\exception **** #define __EXCEPTION__
  32:C:/TDM-GCC-32/lib/gcc/mingw32/5.1.0/include/c++\exception **** 
  33:C:/TDM-GCC-32/lib/gcc/mingw32/5.1.0/include/c++\exception **** #pragma GCC system_header
  34:C:/TDM-GCC-32/lib/gcc/mingw32/5.1.0/include/c++\exception **** 
  35:C:/TDM-GCC-32/lib/gcc/mingw32/5.1.0/include/c++\exception **** #pragma GCC visibility push(default)
  36:C:/TDM-GCC-32/lib/gcc/mingw32/5.1.0/include/c++\exception **** 
  37:C:/TDM-GCC-32/lib/gcc/mingw32/5.1.0/include/c++\exception **** #include <bits/c++config.h>
  38:C:/TDM-GCC-32/lib/gcc/mingw32/5.1.0/include/c++\exception **** #include <bits/atomic_lockfree_defines.h>
  39:C:/TDM-GCC-32/lib/gcc/mingw32/5.1.0/include/c++\exception **** 
  40:C:/TDM-GCC-32/lib/gcc/mingw32/5.1.0/include/c++\exception **** extern "C++" {
  41:C:/TDM-GCC-32/lib/gcc/mingw32/5.1.0/include/c++\exception **** 
  42:C:/TDM-GCC-32/lib/gcc/mingw32/5.1.0/include/c++\exception **** namespace std
  43:C:/TDM-GCC-32/lib/gcc/mingw32/5.1.0/include/c++\exception **** {
  44:C:/TDM-GCC-32/lib/gcc/mingw32/5.1.0/include/c++\exception ****   /**
  45:C:/TDM-GCC-32/lib/gcc/mingw32/5.1.0/include/c++\exception ****    * @defgroup exceptions Exceptions
  46:C:/TDM-GCC-32/lib/gcc/mingw32/5.1.0/include/c++\exception ****    * @ingroup diagnostics
GAS LISTING C:\Users\USER\AppData\Local\Temp\ccxBfeO7.s 			page 2


  47:C:/TDM-GCC-32/lib/gcc/mingw32/5.1.0/include/c++\exception ****    *
  48:C:/TDM-GCC-32/lib/gcc/mingw32/5.1.0/include/c++\exception ****    * Classes and functions for reporting errors via exception classes.
  49:C:/TDM-GCC-32/lib/gcc/mingw32/5.1.0/include/c++\exception ****    * @{
  50:C:/TDM-GCC-32/lib/gcc/mingw32/5.1.0/include/c++\exception ****    */
  51:C:/TDM-GCC-32/lib/gcc/mingw32/5.1.0/include/c++\exception **** 
  52:C:/TDM-GCC-32/lib/gcc/mingw32/5.1.0/include/c++\exception ****   /**
  53:C:/TDM-GCC-32/lib/gcc/mingw32/5.1.0/include/c++\exception ****    *  @brief Base class for all library exceptions.
  54:C:/TDM-GCC-32/lib/gcc/mingw32/5.1.0/include/c++\exception ****    *
  55:C:/TDM-GCC-32/lib/gcc/mingw32/5.1.0/include/c++\exception ****    *  This is the base class for all exceptions thrown by the standard
  56:C:/TDM-GCC-32/lib/gcc/mingw32/5.1.0/include/c++\exception ****    *  library, and by certain language expressions.  You are free to derive
  57:C:/TDM-GCC-32/lib/gcc/mingw32/5.1.0/include/c++\exception ****    *  your own %exception classes, or use a different hierarchy, or to
  58:C:/TDM-GCC-32/lib/gcc/mingw32/5.1.0/include/c++\exception ****    *  throw non-class data (e.g., fundamental types).
  59:C:/TDM-GCC-32/lib/gcc/mingw32/5.1.0/include/c++\exception ****    */
  60:C:/TDM-GCC-32/lib/gcc/mingw32/5.1.0/include/c++\exception ****   class exception
  61:C:/TDM-GCC-32/lib/gcc/mingw32/5.1.0/include/c++\exception ****   {
  62:C:/TDM-GCC-32/lib/gcc/mingw32/5.1.0/include/c++\exception ****   public:
  63:C:/TDM-GCC-32/lib/gcc/mingw32/5.1.0/include/c++\exception ****     exception() _GLIBCXX_USE_NOEXCEPT { }
  13              		.loc 1 63 0
  14              		.cfi_startproc
  15 0000 55       		pushl	%ebp
  16              		.cfi_def_cfa_offset 8
  17              		.cfi_offset 5, -8
  18 0001 89E5     		movl	%esp, %ebp
  19              		.cfi_def_cfa_register 5
  20 0003 83EC04   		subl	$4, %esp
  21 0006 894DFC   		movl	%ecx, -4(%ebp)
  22              	LBB2:
  23              		.loc 1 63 0
  24 0009 BA080000 		movl	$__ZTVSt9exception+8, %edx
  24      00
  25 000e 8B45FC   		movl	-4(%ebp), %eax
  26 0011 8910     		movl	%edx, (%eax)
  27              	LBE2:
  28 0013 90       		nop
  29 0014 C9       		leave
  30              		.cfi_restore 5
  31              		.cfi_def_cfa 4, 4
  32 0015 C3       		ret
  33              		.cfi_endproc
  34              	LFE18:
  35              	.lcomm __ZStL8__ioinit,1,1
  36 0016 9090     		.section .rdata,"dr"
  37              	LC0:
  38 0000 4572726F 		.ascii "Error: La cola esta vacia\0"
  38      723A204C 
  38      6120636F 
  38      6C612065 
  38      73746120 
  39              		.section	.text$_ZNK9ColaVacia4whatEv,"x"
  40              		.linkonce discard
  41              		.align 2
  42              		.globl	__ZNK9ColaVacia4whatEv
  44              	__ZNK9ColaVacia4whatEv:
  45              	LFB1014:
  46              		.file 2 "C:/Caleb/FIUNA/4to Semestre/POO/C++/EjercicioSumativoUn11/EjUn11/main.cpp"
   1:C:/Caleb/FIUNA/4to Semestre/POO/C++/EjercicioSumativoUn11/EjUn11\main.cpp **** //#include <iostream>
   2:C:/Caleb/FIUNA/4to Semestre/POO/C++/EjercicioSumativoUn11/EjUn11\main.cpp **** //
GAS LISTING C:\Users\USER\AppData\Local\Temp\ccxBfeO7.s 			page 3


   3:C:/Caleb/FIUNA/4to Semestre/POO/C++/EjercicioSumativoUn11/EjUn11\main.cpp **** //using namespace std;
   4:C:/Caleb/FIUNA/4to Semestre/POO/C++/EjercicioSumativoUn11/EjUn11\main.cpp **** //
   5:C:/Caleb/FIUNA/4to Semestre/POO/C++/EjercicioSumativoUn11/EjUn11\main.cpp **** ///* Agregue ColaVacia, Nodo y Cola aqui las clases */
   6:C:/Caleb/FIUNA/4to Semestre/POO/C++/EjercicioSumativoUn11/EjUn11\main.cpp **** //#include <exception>
   7:C:/Caleb/FIUNA/4to Semestre/POO/C++/EjercicioSumativoUn11/EjUn11\main.cpp **** //class ColaVacia : public exception
   8:C:/Caleb/FIUNA/4to Semestre/POO/C++/EjercicioSumativoUn11/EjUn11\main.cpp **** //{
   9:C:/Caleb/FIUNA/4to Semestre/POO/C++/EjercicioSumativoUn11/EjUn11\main.cpp **** //	public:
  10:C:/Caleb/FIUNA/4to Semestre/POO/C++/EjercicioSumativoUn11/EjUn11\main.cpp **** //	const char* what() const throw()
  11:C:/Caleb/FIUNA/4to Semestre/POO/C++/EjercicioSumativoUn11/EjUn11\main.cpp **** //	{
  12:C:/Caleb/FIUNA/4to Semestre/POO/C++/EjercicioSumativoUn11/EjUn11\main.cpp **** //		return "Error: La cola esta vacia";
  13:C:/Caleb/FIUNA/4to Semestre/POO/C++/EjercicioSumativoUn11/EjUn11\main.cpp **** //	}
  14:C:/Caleb/FIUNA/4to Semestre/POO/C++/EjercicioSumativoUn11/EjUn11\main.cpp **** //};
  15:C:/Caleb/FIUNA/4to Semestre/POO/C++/EjercicioSumativoUn11/EjUn11\main.cpp **** //template <class T>
  16:C:/Caleb/FIUNA/4to Semestre/POO/C++/EjercicioSumativoUn11/EjUn11\main.cpp **** //class Nodo
  17:C:/Caleb/FIUNA/4to Semestre/POO/C++/EjercicioSumativoUn11/EjUn11\main.cpp **** //{
  18:C:/Caleb/FIUNA/4to Semestre/POO/C++/EjercicioSumativoUn11/EjUn11\main.cpp **** //	private:
  19:C:/Caleb/FIUNA/4to Semestre/POO/C++/EjercicioSumativoUn11/EjUn11\main.cpp **** //	T dato;
  20:C:/Caleb/FIUNA/4to Semestre/POO/C++/EjercicioSumativoUn11/EjUn11\main.cpp **** //	Nodo* siguiente;
  21:C:/Caleb/FIUNA/4to Semestre/POO/C++/EjercicioSumativoUn11/EjUn11\main.cpp **** //
  22:C:/Caleb/FIUNA/4to Semestre/POO/C++/EjercicioSumativoUn11/EjUn11\main.cpp **** //	public:
  23:C:/Caleb/FIUNA/4to Semestre/POO/C++/EjercicioSumativoUn11/EjUn11\main.cpp **** //	Nodo(T _dato)
  24:C:/Caleb/FIUNA/4to Semestre/POO/C++/EjercicioSumativoUn11/EjUn11\main.cpp **** //	{
  25:C:/Caleb/FIUNA/4to Semestre/POO/C++/EjercicioSumativoUn11/EjUn11\main.cpp **** //		dato = _dato;
  26:C:/Caleb/FIUNA/4to Semestre/POO/C++/EjercicioSumativoUn11/EjUn11\main.cpp **** //		siguiente = 0;
  27:C:/Caleb/FIUNA/4to Semestre/POO/C++/EjercicioSumativoUn11/EjUn11\main.cpp **** //	}
  28:C:/Caleb/FIUNA/4to Semestre/POO/C++/EjercicioSumativoUn11/EjUn11\main.cpp **** //	virtual ~Nodo(){}
  29:C:/Caleb/FIUNA/4to Semestre/POO/C++/EjercicioSumativoUn11/EjUn11\main.cpp **** //	template <class T2> friend class Cola;
  30:C:/Caleb/FIUNA/4to Semestre/POO/C++/EjercicioSumativoUn11/EjUn11\main.cpp **** //
  31:C:/Caleb/FIUNA/4to Semestre/POO/C++/EjercicioSumativoUn11/EjUn11\main.cpp **** //};
  32:C:/Caleb/FIUNA/4to Semestre/POO/C++/EjercicioSumativoUn11/EjUn11\main.cpp **** //template <class T2>
  33:C:/Caleb/FIUNA/4to Semestre/POO/C++/EjercicioSumativoUn11/EjUn11\main.cpp **** //class Cola
  34:C:/Caleb/FIUNA/4to Semestre/POO/C++/EjercicioSumativoUn11/EjUn11\main.cpp **** //{
  35:C:/Caleb/FIUNA/4to Semestre/POO/C++/EjercicioSumativoUn11/EjUn11\main.cpp **** //	private:
  36:C:/Caleb/FIUNA/4to Semestre/POO/C++/EjercicioSumativoUn11/EjUn11\main.cpp **** //	Nodo<T2> *frente, *ultimo;
  37:C:/Caleb/FIUNA/4to Semestre/POO/C++/EjercicioSumativoUn11/EjUn11\main.cpp **** //	int tamanho;
  38:C:/Caleb/FIUNA/4to Semestre/POO/C++/EjercicioSumativoUn11/EjUn11\main.cpp **** //
  39:C:/Caleb/FIUNA/4to Semestre/POO/C++/EjercicioSumativoUn11/EjUn11\main.cpp **** //	public:
  40:C:/Caleb/FIUNA/4to Semestre/POO/C++/EjercicioSumativoUn11/EjUn11\main.cpp **** //	Cola()
  41:C:/Caleb/FIUNA/4to Semestre/POO/C++/EjercicioSumativoUn11/EjUn11\main.cpp **** //	{
  42:C:/Caleb/FIUNA/4to Semestre/POO/C++/EjercicioSumativoUn11/EjUn11\main.cpp **** //		frente = 0;
  43:C:/Caleb/FIUNA/4to Semestre/POO/C++/EjercicioSumativoUn11/EjUn11\main.cpp **** //		ultimo = 0;
  44:C:/Caleb/FIUNA/4to Semestre/POO/C++/EjercicioSumativoUn11/EjUn11\main.cpp **** //		tamanho = 0;
  45:C:/Caleb/FIUNA/4to Semestre/POO/C++/EjercicioSumativoUn11/EjUn11\main.cpp **** //	}
  46:C:/Caleb/FIUNA/4to Semestre/POO/C++/EjercicioSumativoUn11/EjUn11\main.cpp **** //	virtual ~Cola(){}
  47:C:/Caleb/FIUNA/4to Semestre/POO/C++/EjercicioSumativoUn11/EjUn11\main.cpp **** //	void agregar(T2 dato)
  48:C:/Caleb/FIUNA/4to Semestre/POO/C++/EjercicioSumativoUn11/EjUn11\main.cpp **** //	{
  49:C:/Caleb/FIUNA/4to Semestre/POO/C++/EjercicioSumativoUn11/EjUn11\main.cpp **** //		Nodo<T2> *n = new Nodo<T2>(dato);
  50:C:/Caleb/FIUNA/4to Semestre/POO/C++/EjercicioSumativoUn11/EjUn11\main.cpp **** //		if(tamanho == 0)
  51:C:/Caleb/FIUNA/4to Semestre/POO/C++/EjercicioSumativoUn11/EjUn11\main.cpp **** //		{
  52:C:/Caleb/FIUNA/4to Semestre/POO/C++/EjercicioSumativoUn11/EjUn11\main.cpp **** //			frente = n;
  53:C:/Caleb/FIUNA/4to Semestre/POO/C++/EjercicioSumativoUn11/EjUn11\main.cpp **** //			ultimo = n;
  54:C:/Caleb/FIUNA/4to Semestre/POO/C++/EjercicioSumativoUn11/EjUn11\main.cpp **** //		} else
  55:C:/Caleb/FIUNA/4to Semestre/POO/C++/EjercicioSumativoUn11/EjUn11\main.cpp **** //		{
  56:C:/Caleb/FIUNA/4to Semestre/POO/C++/EjercicioSumativoUn11/EjUn11\main.cpp **** //			ultimo->siguiente = n;
  57:C:/Caleb/FIUNA/4to Semestre/POO/C++/EjercicioSumativoUn11/EjUn11\main.cpp **** //			ultimo = n;
  58:C:/Caleb/FIUNA/4to Semestre/POO/C++/EjercicioSumativoUn11/EjUn11\main.cpp **** //		}
  59:C:/Caleb/FIUNA/4to Semestre/POO/C++/EjercicioSumativoUn11/EjUn11\main.cpp **** //		tamanho++;
GAS LISTING C:\Users\USER\AppData\Local\Temp\ccxBfeO7.s 			page 4


  60:C:/Caleb/FIUNA/4to Semestre/POO/C++/EjercicioSumativoUn11/EjUn11\main.cpp **** //	}
  61:C:/Caleb/FIUNA/4to Semestre/POO/C++/EjercicioSumativoUn11/EjUn11\main.cpp **** //	T2 eliminar() throw (ColaVacia)
  62:C:/Caleb/FIUNA/4to Semestre/POO/C++/EjercicioSumativoUn11/EjUn11\main.cpp **** //	{
  63:C:/Caleb/FIUNA/4to Semestre/POO/C++/EjercicioSumativoUn11/EjUn11\main.cpp **** //		if(tamanho > 0)
  64:C:/Caleb/FIUNA/4to Semestre/POO/C++/EjercicioSumativoUn11/EjUn11\main.cpp **** //		{
  65:C:/Caleb/FIUNA/4to Semestre/POO/C++/EjercicioSumativoUn11/EjUn11\main.cpp **** //			T2 aux = frente->dato;
  66:C:/Caleb/FIUNA/4to Semestre/POO/C++/EjercicioSumativoUn11/EjUn11\main.cpp **** //			frente = frente->siguiente;
  67:C:/Caleb/FIUNA/4to Semestre/POO/C++/EjercicioSumativoUn11/EjUn11\main.cpp **** //			tamanho--;
  68:C:/Caleb/FIUNA/4to Semestre/POO/C++/EjercicioSumativoUn11/EjUn11\main.cpp **** //			return aux;
  69:C:/Caleb/FIUNA/4to Semestre/POO/C++/EjercicioSumativoUn11/EjUn11\main.cpp **** //		} else
  70:C:/Caleb/FIUNA/4to Semestre/POO/C++/EjercicioSumativoUn11/EjUn11\main.cpp **** //		{
  71:C:/Caleb/FIUNA/4to Semestre/POO/C++/EjercicioSumativoUn11/EjUn11\main.cpp **** //			throw ColaVacia();
  72:C:/Caleb/FIUNA/4to Semestre/POO/C++/EjercicioSumativoUn11/EjUn11\main.cpp **** //		}
  73:C:/Caleb/FIUNA/4to Semestre/POO/C++/EjercicioSumativoUn11/EjUn11\main.cpp **** //	}
  74:C:/Caleb/FIUNA/4to Semestre/POO/C++/EjercicioSumativoUn11/EjUn11\main.cpp **** //	T2 ver() const throw(ColaVacia)
  75:C:/Caleb/FIUNA/4to Semestre/POO/C++/EjercicioSumativoUn11/EjUn11\main.cpp **** //	{
  76:C:/Caleb/FIUNA/4to Semestre/POO/C++/EjercicioSumativoUn11/EjUn11\main.cpp **** //		if(tamanho > 0)
  77:C:/Caleb/FIUNA/4to Semestre/POO/C++/EjercicioSumativoUn11/EjUn11\main.cpp **** //		{
  78:C:/Caleb/FIUNA/4to Semestre/POO/C++/EjercicioSumativoUn11/EjUn11\main.cpp **** //			return frente->dato;
  79:C:/Caleb/FIUNA/4to Semestre/POO/C++/EjercicioSumativoUn11/EjUn11\main.cpp **** //		} else
  80:C:/Caleb/FIUNA/4to Semestre/POO/C++/EjercicioSumativoUn11/EjUn11\main.cpp **** //		{
  81:C:/Caleb/FIUNA/4to Semestre/POO/C++/EjercicioSumativoUn11/EjUn11\main.cpp **** //			throw ColaVacia();
  82:C:/Caleb/FIUNA/4to Semestre/POO/C++/EjercicioSumativoUn11/EjUn11\main.cpp **** //		}
  83:C:/Caleb/FIUNA/4to Semestre/POO/C++/EjercicioSumativoUn11/EjUn11\main.cpp **** //	}
  84:C:/Caleb/FIUNA/4to Semestre/POO/C++/EjercicioSumativoUn11/EjUn11\main.cpp **** //	int buscar(T2 dato)
  85:C:/Caleb/FIUNA/4to Semestre/POO/C++/EjercicioSumativoUn11/EjUn11\main.cpp **** //	{
  86:C:/Caleb/FIUNA/4to Semestre/POO/C++/EjercicioSumativoUn11/EjUn11\main.cpp **** //		int i = 0;
  87:C:/Caleb/FIUNA/4to Semestre/POO/C++/EjercicioSumativoUn11/EjUn11\main.cpp **** //		Nodo<T2>* aux = frente;
  88:C:/Caleb/FIUNA/4to Semestre/POO/C++/EjercicioSumativoUn11/EjUn11\main.cpp **** //		for(;i<tamanho;i++)
  89:C:/Caleb/FIUNA/4to Semestre/POO/C++/EjercicioSumativoUn11/EjUn11\main.cpp **** //		{
  90:C:/Caleb/FIUNA/4to Semestre/POO/C++/EjercicioSumativoUn11/EjUn11\main.cpp **** //			if(aux->dato == dato)
  91:C:/Caleb/FIUNA/4to Semestre/POO/C++/EjercicioSumativoUn11/EjUn11\main.cpp **** //			{
  92:C:/Caleb/FIUNA/4to Semestre/POO/C++/EjercicioSumativoUn11/EjUn11\main.cpp **** //				return i+1;
  93:C:/Caleb/FIUNA/4to Semestre/POO/C++/EjercicioSumativoUn11/EjUn11\main.cpp **** //			}
  94:C:/Caleb/FIUNA/4to Semestre/POO/C++/EjercicioSumativoUn11/EjUn11\main.cpp **** //			aux = aux->siguiente;
  95:C:/Caleb/FIUNA/4to Semestre/POO/C++/EjercicioSumativoUn11/EjUn11\main.cpp **** //		}
  96:C:/Caleb/FIUNA/4to Semestre/POO/C++/EjercicioSumativoUn11/EjUn11\main.cpp **** //		return 0;
  97:C:/Caleb/FIUNA/4to Semestre/POO/C++/EjercicioSumativoUn11/EjUn11\main.cpp **** //	}
  98:C:/Caleb/FIUNA/4to Semestre/POO/C++/EjercicioSumativoUn11/EjUn11\main.cpp **** //	int getLongitud() const
  99:C:/Caleb/FIUNA/4to Semestre/POO/C++/EjercicioSumativoUn11/EjUn11\main.cpp **** //	{
 100:C:/Caleb/FIUNA/4to Semestre/POO/C++/EjercicioSumativoUn11/EjUn11\main.cpp **** //		return tamanho;
 101:C:/Caleb/FIUNA/4to Semestre/POO/C++/EjercicioSumativoUn11/EjUn11\main.cpp **** //	}
 102:C:/Caleb/FIUNA/4to Semestre/POO/C++/EjercicioSumativoUn11/EjUn11\main.cpp **** //	bool esVacia() const
 103:C:/Caleb/FIUNA/4to Semestre/POO/C++/EjercicioSumativoUn11/EjUn11\main.cpp **** //	{
 104:C:/Caleb/FIUNA/4to Semestre/POO/C++/EjercicioSumativoUn11/EjUn11\main.cpp **** //		if (tamanho == 0) return true;
 105:C:/Caleb/FIUNA/4to Semestre/POO/C++/EjercicioSumativoUn11/EjUn11\main.cpp **** //		else return false;
 106:C:/Caleb/FIUNA/4to Semestre/POO/C++/EjercicioSumativoUn11/EjUn11\main.cpp **** //	}
 107:C:/Caleb/FIUNA/4to Semestre/POO/C++/EjercicioSumativoUn11/EjUn11\main.cpp **** //};
 108:C:/Caleb/FIUNA/4to Semestre/POO/C++/EjercicioSumativoUn11/EjUn11\main.cpp **** //
 109:C:/Caleb/FIUNA/4to Semestre/POO/C++/EjercicioSumativoUn11/EjUn11\main.cpp **** ///* No modifique el main o leerLetra */
 110:C:/Caleb/FIUNA/4to Semestre/POO/C++/EjercicioSumativoUn11/EjUn11\main.cpp **** //
 111:C:/Caleb/FIUNA/4to Semestre/POO/C++/EjercicioSumativoUn11/EjUn11\main.cpp **** //char leerLetra() {
 112:C:/Caleb/FIUNA/4to Semestre/POO/C++/EjercicioSumativoUn11/EjUn11\main.cpp **** //    char x;
 113:C:/Caleb/FIUNA/4to Semestre/POO/C++/EjercicioSumativoUn11/EjUn11\main.cpp **** //    cin >> x;
 114:C:/Caleb/FIUNA/4to Semestre/POO/C++/EjercicioSumativoUn11/EjUn11\main.cpp **** //    return x;
 115:C:/Caleb/FIUNA/4to Semestre/POO/C++/EjercicioSumativoUn11/EjUn11\main.cpp **** //}
 116:C:/Caleb/FIUNA/4to Semestre/POO/C++/EjercicioSumativoUn11/EjUn11\main.cpp **** //
GAS LISTING C:\Users\USER\AppData\Local\Temp\ccxBfeO7.s 			page 5


 117:C:/Caleb/FIUNA/4to Semestre/POO/C++/EjercicioSumativoUn11/EjUn11\main.cpp **** //int main()
 118:C:/Caleb/FIUNA/4to Semestre/POO/C++/EjercicioSumativoUn11/EjUn11\main.cpp **** //{
 119:C:/Caleb/FIUNA/4to Semestre/POO/C++/EjercicioSumativoUn11/EjUn11\main.cpp **** //    Cola<char> letras;
 120:C:/Caleb/FIUNA/4to Semestre/POO/C++/EjercicioSumativoUn11/EjUn11\main.cpp **** //    cout<<"Esta vacia?: ";
 121:C:/Caleb/FIUNA/4to Semestre/POO/C++/EjercicioSumativoUn11/EjUn11\main.cpp **** //    if (letras.esVacia())
 122:C:/Caleb/FIUNA/4to Semestre/POO/C++/EjercicioSumativoUn11/EjUn11\main.cpp **** //       cout << "Si" <<endl;
 123:C:/Caleb/FIUNA/4to Semestre/POO/C++/EjercicioSumativoUn11/EjUn11\main.cpp **** //    else
 124:C:/Caleb/FIUNA/4to Semestre/POO/C++/EjercicioSumativoUn11/EjUn11\main.cpp **** //       cout << "No. Tiene " << letras.getLongitud() << " letras";
 125:C:/Caleb/FIUNA/4to Semestre/POO/C++/EjercicioSumativoUn11/EjUn11\main.cpp **** //    try{
 126:C:/Caleb/FIUNA/4to Semestre/POO/C++/EjercicioSumativoUn11/EjUn11\main.cpp **** //        cout<<"\nSe elimino: "<<letras.eliminar();
 127:C:/Caleb/FIUNA/4to Semestre/POO/C++/EjercicioSumativoUn11/EjUn11\main.cpp **** //     } catch(ColaVacia &ex){
 128:C:/Caleb/FIUNA/4to Semestre/POO/C++/EjercicioSumativoUn11/EjUn11\main.cpp **** //        cerr << ex.what();
 129:C:/Caleb/FIUNA/4to Semestre/POO/C++/EjercicioSumativoUn11/EjUn11\main.cpp **** //    }
 130:C:/Caleb/FIUNA/4to Semestre/POO/C++/EjercicioSumativoUn11/EjUn11\main.cpp **** //    cout << endl;
 131:C:/Caleb/FIUNA/4to Semestre/POO/C++/EjercicioSumativoUn11/EjUn11\main.cpp **** //    cout << "Ingrese 7 letras: ";
 132:C:/Caleb/FIUNA/4to Semestre/POO/C++/EjercicioSumativoUn11/EjUn11\main.cpp **** //    for(int i = 0; i<7; i++) {
 133:C:/Caleb/FIUNA/4to Semestre/POO/C++/EjercicioSumativoUn11/EjUn11\main.cpp **** //       letras.agregar(leerLetra());
 134:C:/Caleb/FIUNA/4to Semestre/POO/C++/EjercicioSumativoUn11/EjUn11\main.cpp **** //    }
 135:C:/Caleb/FIUNA/4to Semestre/POO/C++/EjercicioSumativoUn11/EjUn11\main.cpp **** //
 136:C:/Caleb/FIUNA/4to Semestre/POO/C++/EjercicioSumativoUn11/EjUn11\main.cpp **** //    cout<<"\nEsta vacia?: ";
 137:C:/Caleb/FIUNA/4to Semestre/POO/C++/EjercicioSumativoUn11/EjUn11\main.cpp **** //    if (letras.esVacia())
 138:C:/Caleb/FIUNA/4to Semestre/POO/C++/EjercicioSumativoUn11/EjUn11\main.cpp **** //       cout << "Si" <<endl;
 139:C:/Caleb/FIUNA/4to Semestre/POO/C++/EjercicioSumativoUn11/EjUn11\main.cpp **** //    else
 140:C:/Caleb/FIUNA/4to Semestre/POO/C++/EjercicioSumativoUn11/EjUn11\main.cpp **** //       cout << "No. Tiene " << letras.getLongitud() << " letras";
 141:C:/Caleb/FIUNA/4to Semestre/POO/C++/EjercicioSumativoUn11/EjUn11\main.cpp **** //    cout <<"\nLa 'o' esta en la posicion " << letras.buscar('o');
 142:C:/Caleb/FIUNA/4to Semestre/POO/C++/EjercicioSumativoUn11/EjUn11\main.cpp **** //
 143:C:/Caleb/FIUNA/4to Semestre/POO/C++/EjercicioSumativoUn11/EjUn11\main.cpp **** //    cout<<"\nElemento en el frente: " << letras.ver();
 144:C:/Caleb/FIUNA/4to Semestre/POO/C++/EjercicioSumativoUn11/EjUn11\main.cpp **** //    try{
 145:C:/Caleb/FIUNA/4to Semestre/POO/C++/EjercicioSumativoUn11/EjUn11\main.cpp **** //        for(int i = 0; i<5; i++) {
 146:C:/Caleb/FIUNA/4to Semestre/POO/C++/EjercicioSumativoUn11/EjUn11\main.cpp **** //           cout<<"\nSe elimino: "<<letras.eliminar();
 147:C:/Caleb/FIUNA/4to Semestre/POO/C++/EjercicioSumativoUn11/EjUn11\main.cpp **** //        }
 148:C:/Caleb/FIUNA/4to Semestre/POO/C++/EjercicioSumativoUn11/EjUn11\main.cpp **** //        cout<<"\nElemento en el frente: " << letras.ver();
 149:C:/Caleb/FIUNA/4to Semestre/POO/C++/EjercicioSumativoUn11/EjUn11\main.cpp **** //        cout<<"\nEsta vacia?: ";
 150:C:/Caleb/FIUNA/4to Semestre/POO/C++/EjercicioSumativoUn11/EjUn11\main.cpp **** //        if (letras.esVacia())
 151:C:/Caleb/FIUNA/4to Semestre/POO/C++/EjercicioSumativoUn11/EjUn11\main.cpp **** //           cout << "Si" <<endl;
 152:C:/Caleb/FIUNA/4to Semestre/POO/C++/EjercicioSumativoUn11/EjUn11\main.cpp **** //        else
 153:C:/Caleb/FIUNA/4to Semestre/POO/C++/EjercicioSumativoUn11/EjUn11\main.cpp **** //           cout << "No. Tiene " << letras.getLongitud() << " letras";
 154:C:/Caleb/FIUNA/4to Semestre/POO/C++/EjercicioSumativoUn11/EjUn11\main.cpp **** //        cout <<"\nLa 'd' esta en la posicion " << letras.buscar('d');
 155:C:/Caleb/FIUNA/4to Semestre/POO/C++/EjercicioSumativoUn11/EjUn11\main.cpp **** //        cout<<"\nSe elimino: "<<letras.eliminar();
 156:C:/Caleb/FIUNA/4to Semestre/POO/C++/EjercicioSumativoUn11/EjUn11\main.cpp **** //        cout<<"\nSe elimino: "<<letras.eliminar();
 157:C:/Caleb/FIUNA/4to Semestre/POO/C++/EjercicioSumativoUn11/EjUn11\main.cpp **** //        cout<<"\nSe elimino: "<<letras.eliminar();
 158:C:/Caleb/FIUNA/4to Semestre/POO/C++/EjercicioSumativoUn11/EjUn11\main.cpp **** //    }catch(ColaVacia &ex){
 159:C:/Caleb/FIUNA/4to Semestre/POO/C++/EjercicioSumativoUn11/EjUn11\main.cpp **** //        cerr<<ex.what();
 160:C:/Caleb/FIUNA/4to Semestre/POO/C++/EjercicioSumativoUn11/EjUn11\main.cpp **** //    }
 161:C:/Caleb/FIUNA/4to Semestre/POO/C++/EjercicioSumativoUn11/EjUn11\main.cpp **** //
 162:C:/Caleb/FIUNA/4to Semestre/POO/C++/EjercicioSumativoUn11/EjUn11\main.cpp **** //    cout<<"\nSistema finalizado con exito";
 163:C:/Caleb/FIUNA/4to Semestre/POO/C++/EjercicioSumativoUn11/EjUn11\main.cpp **** //}
 164:C:/Caleb/FIUNA/4to Semestre/POO/C++/EjercicioSumativoUn11/EjUn11\main.cpp **** 
 165:C:/Caleb/FIUNA/4to Semestre/POO/C++/EjercicioSumativoUn11/EjUn11\main.cpp **** #include <iostream>
 166:C:/Caleb/FIUNA/4to Semestre/POO/C++/EjercicioSumativoUn11/EjUn11\main.cpp **** 
 167:C:/Caleb/FIUNA/4to Semestre/POO/C++/EjercicioSumativoUn11/EjUn11\main.cpp **** using namespace std;
 168:C:/Caleb/FIUNA/4to Semestre/POO/C++/EjercicioSumativoUn11/EjUn11\main.cpp **** 
 169:C:/Caleb/FIUNA/4to Semestre/POO/C++/EjercicioSumativoUn11/EjUn11\main.cpp **** /* Agregue ColaVacia, Nodo y Cola aqui las clases */
 170:C:/Caleb/FIUNA/4to Semestre/POO/C++/EjercicioSumativoUn11/EjUn11\main.cpp **** 
 171:C:/Caleb/FIUNA/4to Semestre/POO/C++/EjercicioSumativoUn11/EjUn11\main.cpp **** #include <exception>
 172:C:/Caleb/FIUNA/4to Semestre/POO/C++/EjercicioSumativoUn11/EjUn11\main.cpp **** class ColaVacia : public exception
 173:C:/Caleb/FIUNA/4to Semestre/POO/C++/EjercicioSumativoUn11/EjUn11\main.cpp **** {
GAS LISTING C:\Users\USER\AppData\Local\Temp\ccxBfeO7.s 			page 6


 174:C:/Caleb/FIUNA/4to Semestre/POO/C++/EjercicioSumativoUn11/EjUn11\main.cpp ****     public:
 175:C:/Caleb/FIUNA/4to Semestre/POO/C++/EjercicioSumativoUn11/EjUn11\main.cpp ****     const char* what() const throw()
  47              		.loc 2 175 0
  48              		.cfi_startproc
  49 0000 55       		pushl	%ebp
  50              		.cfi_def_cfa_offset 8
  51              		.cfi_offset 5, -8
  52 0001 89E5     		movl	%esp, %ebp
  53              		.cfi_def_cfa_register 5
  54 0003 83EC04   		subl	$4, %esp
  55 0006 894DFC   		movl	%ecx, -4(%ebp)
 176:C:/Caleb/FIUNA/4to Semestre/POO/C++/EjercicioSumativoUn11/EjUn11\main.cpp ****     {
 177:C:/Caleb/FIUNA/4to Semestre/POO/C++/EjercicioSumativoUn11/EjUn11\main.cpp ****         return "Error: La cola esta vacia";
  56              		.loc 2 177 0
  57 0009 B8000000 		movl	$LC0, %eax
  57      00
 178:C:/Caleb/FIUNA/4to Semestre/POO/C++/EjercicioSumativoUn11/EjUn11\main.cpp ****     }
  58              		.loc 2 178 0
  59 000e C9       		leave
  60              		.cfi_restore 5
  61              		.cfi_def_cfa 4, 4
  62 000f C3       		ret
  63              		.cfi_endproc
  64              	LFE1014:
  65              		.text
  66              		.globl	__Z9leerLetrav
  68              	__Z9leerLetrav:
  69              	LFB1025:
 179:C:/Caleb/FIUNA/4to Semestre/POO/C++/EjercicioSumativoUn11/EjUn11\main.cpp **** };
 180:C:/Caleb/FIUNA/4to Semestre/POO/C++/EjercicioSumativoUn11/EjUn11\main.cpp **** 
 181:C:/Caleb/FIUNA/4to Semestre/POO/C++/EjercicioSumativoUn11/EjUn11\main.cpp **** template <class T>
 182:C:/Caleb/FIUNA/4to Semestre/POO/C++/EjercicioSumativoUn11/EjUn11\main.cpp **** class Nodo
 183:C:/Caleb/FIUNA/4to Semestre/POO/C++/EjercicioSumativoUn11/EjUn11\main.cpp **** {
 184:C:/Caleb/FIUNA/4to Semestre/POO/C++/EjercicioSumativoUn11/EjUn11\main.cpp ****   private:
 185:C:/Caleb/FIUNA/4to Semestre/POO/C++/EjercicioSumativoUn11/EjUn11\main.cpp ****   T dato;
 186:C:/Caleb/FIUNA/4to Semestre/POO/C++/EjercicioSumativoUn11/EjUn11\main.cpp ****   Nodo* siguiente;
 187:C:/Caleb/FIUNA/4to Semestre/POO/C++/EjercicioSumativoUn11/EjUn11\main.cpp **** 
 188:C:/Caleb/FIUNA/4to Semestre/POO/C++/EjercicioSumativoUn11/EjUn11\main.cpp ****   public:
 189:C:/Caleb/FIUNA/4to Semestre/POO/C++/EjercicioSumativoUn11/EjUn11\main.cpp ****   Nodo(T _dato)
 190:C:/Caleb/FIUNA/4to Semestre/POO/C++/EjercicioSumativoUn11/EjUn11\main.cpp ****   {
 191:C:/Caleb/FIUNA/4to Semestre/POO/C++/EjercicioSumativoUn11/EjUn11\main.cpp ****       dato = _dato;
 192:C:/Caleb/FIUNA/4to Semestre/POO/C++/EjercicioSumativoUn11/EjUn11\main.cpp ****       siguiente = 0;
 193:C:/Caleb/FIUNA/4to Semestre/POO/C++/EjercicioSumativoUn11/EjUn11\main.cpp ****   }
 194:C:/Caleb/FIUNA/4to Semestre/POO/C++/EjercicioSumativoUn11/EjUn11\main.cpp ****   virtual ~Nodo(){}
 195:C:/Caleb/FIUNA/4to Semestre/POO/C++/EjercicioSumativoUn11/EjUn11\main.cpp ****   template <class T2> friend class Cola;
 196:C:/Caleb/FIUNA/4to Semestre/POO/C++/EjercicioSumativoUn11/EjUn11\main.cpp **** };
 197:C:/Caleb/FIUNA/4to Semestre/POO/C++/EjercicioSumativoUn11/EjUn11\main.cpp **** 
 198:C:/Caleb/FIUNA/4to Semestre/POO/C++/EjercicioSumativoUn11/EjUn11\main.cpp **** template <class T2>
 199:C:/Caleb/FIUNA/4to Semestre/POO/C++/EjercicioSumativoUn11/EjUn11\main.cpp **** class Cola
 200:C:/Caleb/FIUNA/4to Semestre/POO/C++/EjercicioSumativoUn11/EjUn11\main.cpp **** {
 201:C:/Caleb/FIUNA/4to Semestre/POO/C++/EjercicioSumativoUn11/EjUn11\main.cpp ****     private:
 202:C:/Caleb/FIUNA/4to Semestre/POO/C++/EjercicioSumativoUn11/EjUn11\main.cpp ****     Nodo<T2> *frente, *ultimo;
 203:C:/Caleb/FIUNA/4to Semestre/POO/C++/EjercicioSumativoUn11/EjUn11\main.cpp ****     int tamanho;
 204:C:/Caleb/FIUNA/4to Semestre/POO/C++/EjercicioSumativoUn11/EjUn11\main.cpp **** 
 205:C:/Caleb/FIUNA/4to Semestre/POO/C++/EjercicioSumativoUn11/EjUn11\main.cpp ****     public:
 206:C:/Caleb/FIUNA/4to Semestre/POO/C++/EjercicioSumativoUn11/EjUn11\main.cpp ****     Cola()
 207:C:/Caleb/FIUNA/4to Semestre/POO/C++/EjercicioSumativoUn11/EjUn11\main.cpp ****     {
GAS LISTING C:\Users\USER\AppData\Local\Temp\ccxBfeO7.s 			page 7


 208:C:/Caleb/FIUNA/4to Semestre/POO/C++/EjercicioSumativoUn11/EjUn11\main.cpp ****         frente = 0;
 209:C:/Caleb/FIUNA/4to Semestre/POO/C++/EjercicioSumativoUn11/EjUn11\main.cpp ****         ultimo = 0;
 210:C:/Caleb/FIUNA/4to Semestre/POO/C++/EjercicioSumativoUn11/EjUn11\main.cpp ****         tamanho = 0;
 211:C:/Caleb/FIUNA/4to Semestre/POO/C++/EjercicioSumativoUn11/EjUn11\main.cpp ****     }
 212:C:/Caleb/FIUNA/4to Semestre/POO/C++/EjercicioSumativoUn11/EjUn11\main.cpp ****     virtual ~Cola(){}
 213:C:/Caleb/FIUNA/4to Semestre/POO/C++/EjercicioSumativoUn11/EjUn11\main.cpp ****     void agregar(T2 dato)
 214:C:/Caleb/FIUNA/4to Semestre/POO/C++/EjercicioSumativoUn11/EjUn11\main.cpp ****     {
 215:C:/Caleb/FIUNA/4to Semestre/POO/C++/EjercicioSumativoUn11/EjUn11\main.cpp ****         Nodo<T2> *n = new Nodo<T2>(dato);
 216:C:/Caleb/FIUNA/4to Semestre/POO/C++/EjercicioSumativoUn11/EjUn11\main.cpp ****         if(tamanho == 0)
 217:C:/Caleb/FIUNA/4to Semestre/POO/C++/EjercicioSumativoUn11/EjUn11\main.cpp ****         {
 218:C:/Caleb/FIUNA/4to Semestre/POO/C++/EjercicioSumativoUn11/EjUn11\main.cpp ****             frente = n;
 219:C:/Caleb/FIUNA/4to Semestre/POO/C++/EjercicioSumativoUn11/EjUn11\main.cpp ****             ultimo = n;
 220:C:/Caleb/FIUNA/4to Semestre/POO/C++/EjercicioSumativoUn11/EjUn11\main.cpp ****         } else
 221:C:/Caleb/FIUNA/4to Semestre/POO/C++/EjercicioSumativoUn11/EjUn11\main.cpp ****         {
 222:C:/Caleb/FIUNA/4to Semestre/POO/C++/EjercicioSumativoUn11/EjUn11\main.cpp ****             ultimo->siguiente = n;
 223:C:/Caleb/FIUNA/4to Semestre/POO/C++/EjercicioSumativoUn11/EjUn11\main.cpp ****             ultimo = n;
 224:C:/Caleb/FIUNA/4to Semestre/POO/C++/EjercicioSumativoUn11/EjUn11\main.cpp ****         }
 225:C:/Caleb/FIUNA/4to Semestre/POO/C++/EjercicioSumativoUn11/EjUn11\main.cpp ****         tamanho++;
 226:C:/Caleb/FIUNA/4to Semestre/POO/C++/EjercicioSumativoUn11/EjUn11\main.cpp ****     }
 227:C:/Caleb/FIUNA/4to Semestre/POO/C++/EjercicioSumativoUn11/EjUn11\main.cpp ****     T2 eliminar() throw(ColaVacia)
 228:C:/Caleb/FIUNA/4to Semestre/POO/C++/EjercicioSumativoUn11/EjUn11\main.cpp ****     {
 229:C:/Caleb/FIUNA/4to Semestre/POO/C++/EjercicioSumativoUn11/EjUn11\main.cpp ****         if(tamanho > 0)
 230:C:/Caleb/FIUNA/4to Semestre/POO/C++/EjercicioSumativoUn11/EjUn11\main.cpp ****         {
 231:C:/Caleb/FIUNA/4to Semestre/POO/C++/EjercicioSumativoUn11/EjUn11\main.cpp ****             T2 aux = frente->dato;
 232:C:/Caleb/FIUNA/4to Semestre/POO/C++/EjercicioSumativoUn11/EjUn11\main.cpp ****             frente = frente->siguiente;
 233:C:/Caleb/FIUNA/4to Semestre/POO/C++/EjercicioSumativoUn11/EjUn11\main.cpp ****             tamanho--;
 234:C:/Caleb/FIUNA/4to Semestre/POO/C++/EjercicioSumativoUn11/EjUn11\main.cpp ****             return aux;
 235:C:/Caleb/FIUNA/4to Semestre/POO/C++/EjercicioSumativoUn11/EjUn11\main.cpp ****         } else
 236:C:/Caleb/FIUNA/4to Semestre/POO/C++/EjercicioSumativoUn11/EjUn11\main.cpp ****         {
 237:C:/Caleb/FIUNA/4to Semestre/POO/C++/EjercicioSumativoUn11/EjUn11\main.cpp ****             throw ColaVacia();
 238:C:/Caleb/FIUNA/4to Semestre/POO/C++/EjercicioSumativoUn11/EjUn11\main.cpp ****         }
 239:C:/Caleb/FIUNA/4to Semestre/POO/C++/EjercicioSumativoUn11/EjUn11\main.cpp ****     }
 240:C:/Caleb/FIUNA/4to Semestre/POO/C++/EjercicioSumativoUn11/EjUn11\main.cpp ****     T2 ver() const throw(ColaVacia)
 241:C:/Caleb/FIUNA/4to Semestre/POO/C++/EjercicioSumativoUn11/EjUn11\main.cpp ****     {
 242:C:/Caleb/FIUNA/4to Semestre/POO/C++/EjercicioSumativoUn11/EjUn11\main.cpp ****         if(tamanho > 0)
 243:C:/Caleb/FIUNA/4to Semestre/POO/C++/EjercicioSumativoUn11/EjUn11\main.cpp ****         {
 244:C:/Caleb/FIUNA/4to Semestre/POO/C++/EjercicioSumativoUn11/EjUn11\main.cpp ****             return frente->dato;
 245:C:/Caleb/FIUNA/4to Semestre/POO/C++/EjercicioSumativoUn11/EjUn11\main.cpp ****         } else
 246:C:/Caleb/FIUNA/4to Semestre/POO/C++/EjercicioSumativoUn11/EjUn11\main.cpp ****         {
 247:C:/Caleb/FIUNA/4to Semestre/POO/C++/EjercicioSumativoUn11/EjUn11\main.cpp ****             throw ColaVacia();
 248:C:/Caleb/FIUNA/4to Semestre/POO/C++/EjercicioSumativoUn11/EjUn11\main.cpp ****         }
 249:C:/Caleb/FIUNA/4to Semestre/POO/C++/EjercicioSumativoUn11/EjUn11\main.cpp ****     }
 250:C:/Caleb/FIUNA/4to Semestre/POO/C++/EjercicioSumativoUn11/EjUn11\main.cpp ****     int buscar (T2 dato)
 251:C:/Caleb/FIUNA/4to Semestre/POO/C++/EjercicioSumativoUn11/EjUn11\main.cpp ****     {
 252:C:/Caleb/FIUNA/4to Semestre/POO/C++/EjercicioSumativoUn11/EjUn11\main.cpp ****         int i = 0;
 253:C:/Caleb/FIUNA/4to Semestre/POO/C++/EjercicioSumativoUn11/EjUn11\main.cpp ****         Nodo<T2>* aux = frente;
 254:C:/Caleb/FIUNA/4to Semestre/POO/C++/EjercicioSumativoUn11/EjUn11\main.cpp ****         for(;i<tamanho;i++)
 255:C:/Caleb/FIUNA/4to Semestre/POO/C++/EjercicioSumativoUn11/EjUn11\main.cpp ****         {
 256:C:/Caleb/FIUNA/4to Semestre/POO/C++/EjercicioSumativoUn11/EjUn11\main.cpp ****             if(aux->dato == dato)
 257:C:/Caleb/FIUNA/4to Semestre/POO/C++/EjercicioSumativoUn11/EjUn11\main.cpp ****             {
 258:C:/Caleb/FIUNA/4to Semestre/POO/C++/EjercicioSumativoUn11/EjUn11\main.cpp ****                 return i+1;
 259:C:/Caleb/FIUNA/4to Semestre/POO/C++/EjercicioSumativoUn11/EjUn11\main.cpp ****             } else
 260:C:/Caleb/FIUNA/4to Semestre/POO/C++/EjercicioSumativoUn11/EjUn11\main.cpp ****             {
 261:C:/Caleb/FIUNA/4to Semestre/POO/C++/EjercicioSumativoUn11/EjUn11\main.cpp ****                 aux = aux->siguiente;
 262:C:/Caleb/FIUNA/4to Semestre/POO/C++/EjercicioSumativoUn11/EjUn11\main.cpp ****             }
 263:C:/Caleb/FIUNA/4to Semestre/POO/C++/EjercicioSumativoUn11/EjUn11\main.cpp ****         }
 264:C:/Caleb/FIUNA/4to Semestre/POO/C++/EjercicioSumativoUn11/EjUn11\main.cpp ****         return 0;
GAS LISTING C:\Users\USER\AppData\Local\Temp\ccxBfeO7.s 			page 8


 265:C:/Caleb/FIUNA/4to Semestre/POO/C++/EjercicioSumativoUn11/EjUn11\main.cpp ****     }
 266:C:/Caleb/FIUNA/4to Semestre/POO/C++/EjercicioSumativoUn11/EjUn11\main.cpp ****     int getLongitud() const
 267:C:/Caleb/FIUNA/4to Semestre/POO/C++/EjercicioSumativoUn11/EjUn11\main.cpp ****     {
 268:C:/Caleb/FIUNA/4to Semestre/POO/C++/EjercicioSumativoUn11/EjUn11\main.cpp ****         return tamanho;
 269:C:/Caleb/FIUNA/4to Semestre/POO/C++/EjercicioSumativoUn11/EjUn11\main.cpp ****     }
 270:C:/Caleb/FIUNA/4to Semestre/POO/C++/EjercicioSumativoUn11/EjUn11\main.cpp ****     bool esVacia() const
 271:C:/Caleb/FIUNA/4to Semestre/POO/C++/EjercicioSumativoUn11/EjUn11\main.cpp ****     {
 272:C:/Caleb/FIUNA/4to Semestre/POO/C++/EjercicioSumativoUn11/EjUn11\main.cpp ****         if(tamanho == 0) return true;
 273:C:/Caleb/FIUNA/4to Semestre/POO/C++/EjercicioSumativoUn11/EjUn11\main.cpp ****         else return false;
 274:C:/Caleb/FIUNA/4to Semestre/POO/C++/EjercicioSumativoUn11/EjUn11\main.cpp ****     }
 275:C:/Caleb/FIUNA/4to Semestre/POO/C++/EjercicioSumativoUn11/EjUn11\main.cpp **** };
 276:C:/Caleb/FIUNA/4to Semestre/POO/C++/EjercicioSumativoUn11/EjUn11\main.cpp **** 
 277:C:/Caleb/FIUNA/4to Semestre/POO/C++/EjercicioSumativoUn11/EjUn11\main.cpp **** /* No modifique el main o leerLetra */
 278:C:/Caleb/FIUNA/4to Semestre/POO/C++/EjercicioSumativoUn11/EjUn11\main.cpp **** 
 279:C:/Caleb/FIUNA/4to Semestre/POO/C++/EjercicioSumativoUn11/EjUn11\main.cpp **** char leerLetra() {
  70              		.loc 2 279 0
  71              		.cfi_startproc
  72 0000 55       		pushl	%ebp
  73              		.cfi_def_cfa_offset 8
  74              		.cfi_offset 5, -8
  75 0001 89E5     		movl	%esp, %ebp
  76              		.cfi_def_cfa_register 5
  77 0003 83EC28   		subl	$40, %esp
 280:C:/Caleb/FIUNA/4to Semestre/POO/C++/EjercicioSumativoUn11/EjUn11\main.cpp ****     char x;
 281:C:/Caleb/FIUNA/4to Semestre/POO/C++/EjercicioSumativoUn11/EjUn11\main.cpp ****     cin >> x;
  78              		.loc 2 281 0
  79 0006 8D45F7   		leal	-9(%ebp), %eax
  80 0009 89442404 		movl	%eax, 4(%esp)
  81 000d C7042400 		movl	$__ZSt3cin, (%esp)
  81      000000
  82 0014 E8000000 		call	__ZStrsIcSt11char_traitsIcEERSt13basic_istreamIT_T0_ES6_RS3_
  82      00
 282:C:/Caleb/FIUNA/4to Semestre/POO/C++/EjercicioSumativoUn11/EjUn11\main.cpp ****     return x;
  83              		.loc 2 282 0
  84 0019 0FB645F7 		movzbl	-9(%ebp), %eax
 283:C:/Caleb/FIUNA/4to Semestre/POO/C++/EjercicioSumativoUn11/EjUn11\main.cpp **** }
  85              		.loc 2 283 0
  86 001d C9       		leave
  87              		.cfi_restore 5
  88              		.cfi_def_cfa 4, 4
  89 001e C3       		ret
  90              		.cfi_endproc
  91              	LFE1025:
  93              		.section .rdata,"dr"
  94              	LC1:
  95 001a 45737461 		.ascii "Esta vacia?: \0"
  95      20766163 
  95      69613F3A 
  95      2000
  96              	LC2:
  97 0028 536900   		.ascii "Si\0"
  98              	LC3:
  99 002b 4E6F2E20 		.ascii "No. Tiene \0"
  99      5469656E 
  99      652000
 100              	LC4:
 101 0036 206C6574 		.ascii " letras\0"
GAS LISTING C:\Users\USER\AppData\Local\Temp\ccxBfeO7.s 			page 9


 101      72617300 
 102              	LC5:
 103 003e 0A536520 		.ascii "\12Se elimino: \0"
 103      656C696D 
 103      696E6F3A 
 103      2000
 104              	LC6:
 105 004c 496E6772 		.ascii "Ingrese 7 letras: \0"
 105      65736520 
 105      37206C65 
 105      74726173 
 105      3A2000
 106              	LC7:
 107 005f 0A457374 		.ascii "\12Esta vacia?: \0"
 107      61207661 
 107      6369613F 
 107      3A2000
 108              	LC8:
 109 006e 0A4C6120 		.ascii "\12La 'o' esta en la posicion \0"
 109      276F2720 
 109      65737461 
 109      20656E20 
 109      6C612070 
 110              	LC9:
 111 008b 0A456C65 		.ascii "\12Elemento en el frente: \0"
 111      6D656E74 
 111      6F20656E 
 111      20656C20 
 111      6672656E 
 112              	LC10:
 113 00a4 0A4C6120 		.ascii "\12La 'd' esta en la posicion \0"
 113      27642720 
 113      65737461 
 113      20656E20 
 113      6C612070 
 114              	LC11:
 115 00c1 0A536973 		.ascii "\12Sistema finalizado con exito\0"
 115      74656D61 
 115      2066696E 
 115      616C697A 
 115      61646F20 
 119 00df 00       		.text
 120              		.globl	_main
 122              	_main:
 123              	LFB1026:
 284:C:/Caleb/FIUNA/4to Semestre/POO/C++/EjercicioSumativoUn11/EjUn11\main.cpp **** 
 285:C:/Caleb/FIUNA/4to Semestre/POO/C++/EjercicioSumativoUn11/EjUn11\main.cpp **** int main()
 286:C:/Caleb/FIUNA/4to Semestre/POO/C++/EjercicioSumativoUn11/EjUn11\main.cpp **** {
 124              		.loc 2 286 0
 125              		.cfi_startproc
 126              		.cfi_personality 0,___gxx_personality_sj0
 127              		.cfi_lsda 0,LLSDA1026
 128 001f 8D4C2404 		leal	4(%esp), %ecx
 129              		.cfi_def_cfa 1, 0
 130 0023 83E4F0   		andl	$-16, %esp
 131 0026 FF71FC   		pushl	-4(%ecx)
 132 0029 55       		pushl	%ebp
GAS LISTING C:\Users\USER\AppData\Local\Temp\ccxBfeO7.s 			page 10


 133              		.cfi_escape 0x10,0x5,0x2,0x75,0
 134 002a 89E5     		movl	%esp, %ebp
 135 002c 57       		pushl	%edi
 136 002d 56       		pushl	%esi
 137 002e 53       		pushl	%ebx
 138 002f 51       		pushl	%ecx
 139              		.cfi_escape 0xf,0x3,0x75,0x70,0x6
 140              		.cfi_escape 0x10,0x7,0x2,0x75,0x7c
 141              		.cfi_escape 0x10,0x6,0x2,0x75,0x78
 142              		.cfi_escape 0x10,0x3,0x2,0x75,0x74
 143 0030 83EC78   		subl	$120, %esp
 144 0033 C745AC00 		movl	$___gxx_personality_sj0, -84(%ebp)
 144      000000
 145 003a C745B000 		movl	$LLSDA1026, -80(%ebp)
 145      000000
 146 0041 8D45B4   		leal	-76(%ebp), %eax
 147 0044 8D5DE8   		leal	-24(%ebp), %ebx
 148 0047 8918     		movl	%ebx, (%eax)
 149 0049 BAAE0500 		movl	$L29, %edx
 149      00
 150 004e 895004   		movl	%edx, 4(%eax)
 151 0051 896008   		movl	%esp, 8(%eax)
 152 0054 8D4594   		leal	-108(%ebp), %eax
 153 0057 890424   		movl	%eax, (%esp)
 154 005a E8000000 		call	__Unwind_SjLj_Register
 154      00
 155              		.loc 2 286 0
 156 005f E8000000 		call	___main
 156      00
 287:C:/Caleb/FIUNA/4to Semestre/POO/C++/EjercicioSumativoUn11/EjUn11\main.cpp ****     Cola<char> letras;
 157              		.loc 2 287 0
 158 0064 8D45C8   		leal	-56(%ebp), %eax
 159 0067 89C1     		movl	%eax, %ecx
 160 0069 E8000000 		call	__ZN4ColaIcEC1Ev
 160      00
 288:C:/Caleb/FIUNA/4to Semestre/POO/C++/EjercicioSumativoUn11/EjUn11\main.cpp ****     cout<<"Esta vacia?: ";
 161              		.loc 2 288 0
 162 006e C7442404 		movl	$LC1, 4(%esp)
 162      1A000000 
 163 0076 C7042400 		movl	$__ZSt4cout, (%esp)
 163      000000
 164 007d C7459801 		movl	$1, -104(%ebp)
 164      000000
 165 0084 E8000000 		call	__ZStlsISt11char_traitsIcEERSt13basic_ostreamIcT_ES5_PKc
 165      00
 289:C:/Caleb/FIUNA/4to Semestre/POO/C++/EjercicioSumativoUn11/EjUn11\main.cpp ****     if (letras.esVacia())
 166              		.loc 2 289 0
 167 0089 8D45C8   		leal	-56(%ebp), %eax
 168 008c 89C1     		movl	%eax, %ecx
 169 008e E8000000 		call	__ZNK4ColaIcE7esVaciaEv
 169      00
 170 0093 84C0     		testb	%al, %al
 171 0095 7427     		je	L7
 290:C:/Caleb/FIUNA/4to Semestre/POO/C++/EjercicioSumativoUn11/EjUn11\main.cpp ****        cout << "Si" <<endl;
 172              		.loc 2 290 0
 173 0097 C7442404 		movl	$LC2, 4(%esp)
 173      28000000 
GAS LISTING C:\Users\USER\AppData\Local\Temp\ccxBfeO7.s 			page 11


 174 009f C7042400 		movl	$__ZSt4cout, (%esp)
 174      000000
 175 00a6 E8000000 		call	__ZStlsISt11char_traitsIcEERSt13basic_ostreamIcT_ES5_PKc
 175      00
 176 00ab C7042400 		movl	$__ZSt4endlIcSt11char_traitsIcEERSt13basic_ostreamIT_T0_ES6_, (%esp)
 176      000000
 177 00b2 89C1     		movl	%eax, %ecx
 178 00b4 E8000000 		call	__ZNSolsEPFRSoS_E
 178      00
 179              		.loc 2 290 0 is_stmt 0 discriminator 1
 180 00b9 83EC04   		subl	$4, %esp
 181 00bc EB48     		jmp	L8
 182              	L7:
 291:C:/Caleb/FIUNA/4to Semestre/POO/C++/EjercicioSumativoUn11/EjUn11\main.cpp ****     else
 292:C:/Caleb/FIUNA/4to Semestre/POO/C++/EjercicioSumativoUn11/EjUn11\main.cpp ****        cout << "No. Tiene " << letras.getLongitud() << " letras";
 183              		.loc 2 292 0 is_stmt 1
 184 00be 8D45C8   		leal	-56(%ebp), %eax
 185 00c1 89C1     		movl	%eax, %ecx
 186 00c3 E8000000 		call	__ZNK4ColaIcE11getLongitudEv
 186      00
 187 00c8 894590   		movl	%eax, -112(%ebp)
 188 00cb C7442404 		movl	$LC3, 4(%esp)
 188      2B000000 
 189 00d3 C7042400 		movl	$__ZSt4cout, (%esp)
 189      000000
 190 00da C7459801 		movl	$1, -104(%ebp)
 190      000000
 191 00e1 E8000000 		call	__ZStlsISt11char_traitsIcEERSt13basic_ostreamIcT_ES5_PKc
 191      00
 192 00e6 8B7590   		movl	-112(%ebp), %esi
 193 00e9 893424   		movl	%esi, (%esp)
 194 00ec 89C1     		movl	%eax, %ecx
 195 00ee E8000000 		call	__ZNSolsEi
 195      00
 196              		.loc 2 292 0 is_stmt 0 discriminator 1
 197 00f3 83EC04   		subl	$4, %esp
 198 00f6 C7442404 		movl	$LC4, 4(%esp)
 198      36000000 
 199 00fe 890424   		movl	%eax, (%esp)
 200 0101 E8000000 		call	__ZStlsISt11char_traitsIcEERSt13basic_ostreamIcT_ES5_PKc
 200      00
 201              	L8:
 293:C:/Caleb/FIUNA/4to Semestre/POO/C++/EjercicioSumativoUn11/EjUn11\main.cpp ****     try{
 294:C:/Caleb/FIUNA/4to Semestre/POO/C++/EjercicioSumativoUn11/EjUn11\main.cpp ****         cout<<"\nSe elimino: "<<letras.eliminar();
 202              		.loc 2 294 0 is_stmt 1
 203 0106 8D45C8   		leal	-56(%ebp), %eax
 204 0109 C7459802 		movl	$2, -104(%ebp)
 204      000000
 205 0110 89C1     		movl	%eax, %ecx
 206 0112 E8000000 		call	__ZN4ColaIcE8eliminarEv
 206      00
 207 0117 0FBEC0   		movsbl	%al, %eax
 208 011a 894590   		movl	%eax, -112(%ebp)
 209 011d C7442404 		movl	$LC5, 4(%esp)
 209      3E000000 
 210 0125 C7042400 		movl	$__ZSt4cout, (%esp)
 210      000000
GAS LISTING C:\Users\USER\AppData\Local\Temp\ccxBfeO7.s 			page 12


 211 012c E8000000 		call	__ZStlsISt11char_traitsIcEERSt13basic_ostreamIcT_ES5_PKc
 211      00
 212              		.loc 2 294 0 is_stmt 0 discriminator 1
 213 0131 8B7D90   		movl	-112(%ebp), %edi
 214 0134 897C2404 		movl	%edi, 4(%esp)
 215 0138 890424   		movl	%eax, (%esp)
 216 013b E8000000 		call	__ZStlsISt11char_traitsIcEERSt13basic_ostreamIcT_ES5_c
 216      00
 217              	L22:
 295:C:/Caleb/FIUNA/4to Semestre/POO/C++/EjercicioSumativoUn11/EjUn11\main.cpp ****      } catch(ColaVacia &ex){
 296:C:/Caleb/FIUNA/4to Semestre/POO/C++/EjercicioSumativoUn11/EjUn11\main.cpp ****         cerr << ex.what();
 297:C:/Caleb/FIUNA/4to Semestre/POO/C++/EjercicioSumativoUn11/EjUn11\main.cpp ****     }
 298:C:/Caleb/FIUNA/4to Semestre/POO/C++/EjercicioSumativoUn11/EjUn11\main.cpp ****     cout << endl;
 218              		.loc 2 298 0 is_stmt 1
 219 0140 C7042400 		movl	$__ZSt4endlIcSt11char_traitsIcEERSt13basic_ostreamIT_T0_ES6_, (%esp)
 219      000000
 220 0147 C7459801 		movl	$1, -104(%ebp)
 220      000000
 221 014e B9000000 		movl	$__ZSt4cout, %ecx
 221      00
 222 0153 E8000000 		call	__ZNSolsEPFRSoS_E
 222      00
 223 0158 83EC04   		subl	$4, %esp
 299:C:/Caleb/FIUNA/4to Semestre/POO/C++/EjercicioSumativoUn11/EjUn11\main.cpp ****     cout << "Ingrese 7 letras: ";
 224              		.loc 2 299 0
 225 015b C7442404 		movl	$LC6, 4(%esp)
 225      4C000000 
 226 0163 C7042400 		movl	$__ZSt4cout, (%esp)
 226      000000
 227 016a E8000000 		call	__ZStlsISt11char_traitsIcEERSt13basic_ostreamIcT_ES5_PKc
 227      00
 228              	LBB3:
 300:C:/Caleb/FIUNA/4to Semestre/POO/C++/EjercicioSumativoUn11/EjUn11\main.cpp ****     for(int i = 0; i<7; i++) {
 229              		.loc 2 300 0
 230 016f C745E400 		movl	$0, -28(%ebp)
 230      000000
 231              	L10:
 232              		.loc 2 300 0 is_stmt 0 discriminator 1
 233 0176 837DE406 		cmpl	$6, -28(%ebp)
 234 017a 7F25     		jg	L9
 301:C:/Caleb/FIUNA/4to Semestre/POO/C++/EjercicioSumativoUn11/EjUn11\main.cpp ****        letras.agregar(leerLetra());
 235              		.loc 2 301 0 is_stmt 1
 236 017c C7459801 		movl	$1, -104(%ebp)
 236      000000
 237 0183 E878FEFF 		call	__Z9leerLetrav
 237      FF
 238 0188 0FBED0   		movsbl	%al, %edx
 239 018b 8D45C8   		leal	-56(%ebp), %eax
 240 018e 891424   		movl	%edx, (%esp)
 241 0191 89C1     		movl	%eax, %ecx
 242 0193 E8000000 		call	__ZN4ColaIcE7agregarEc
 242      00
 243              		.loc 2 301 0 is_stmt 0 discriminator 1
 244 0198 83EC04   		subl	$4, %esp
 300:C:/Caleb/FIUNA/4to Semestre/POO/C++/EjercicioSumativoUn11/EjUn11\main.cpp ****     for(int i = 0; i<7; i++) {
 245              		.loc 2 300 0 is_stmt 1 discriminator 1
 246 019b 8345E401 		addl	$1, -28(%ebp)
GAS LISTING C:\Users\USER\AppData\Local\Temp\ccxBfeO7.s 			page 13


 247 019f EBD5     		jmp	L10
 248              	L9:
 249              	LBE3:
 302:C:/Caleb/FIUNA/4to Semestre/POO/C++/EjercicioSumativoUn11/EjUn11\main.cpp ****     }
 303:C:/Caleb/FIUNA/4to Semestre/POO/C++/EjercicioSumativoUn11/EjUn11\main.cpp **** 
 304:C:/Caleb/FIUNA/4to Semestre/POO/C++/EjercicioSumativoUn11/EjUn11\main.cpp ****     cout<<"\nEsta vacia?: ";
 250              		.loc 2 304 0
 251 01a1 C7442404 		movl	$LC7, 4(%esp)
 251      5F000000 
 252 01a9 C7042400 		movl	$__ZSt4cout, (%esp)
 252      000000
 253 01b0 C7459801 		movl	$1, -104(%ebp)
 253      000000
 254 01b7 E8000000 		call	__ZStlsISt11char_traitsIcEERSt13basic_ostreamIcT_ES5_PKc
 254      00
 305:C:/Caleb/FIUNA/4to Semestre/POO/C++/EjercicioSumativoUn11/EjUn11\main.cpp ****     if (letras.esVacia())
 255              		.loc 2 305 0
 256 01bc 8D45C8   		leal	-56(%ebp), %eax
 257 01bf 89C1     		movl	%eax, %ecx
 258 01c1 E8000000 		call	__ZNK4ColaIcE7esVaciaEv
 258      00
 259 01c6 84C0     		testb	%al, %al
 260 01c8 7427     		je	L11
 306:C:/Caleb/FIUNA/4to Semestre/POO/C++/EjercicioSumativoUn11/EjUn11\main.cpp ****        cout << "Si" <<endl;
 261              		.loc 2 306 0
 262 01ca C7442404 		movl	$LC2, 4(%esp)
 262      28000000 
 263 01d2 C7042400 		movl	$__ZSt4cout, (%esp)
 263      000000
 264 01d9 E8000000 		call	__ZStlsISt11char_traitsIcEERSt13basic_ostreamIcT_ES5_PKc
 264      00
 265 01de C7042400 		movl	$__ZSt4endlIcSt11char_traitsIcEERSt13basic_ostreamIT_T0_ES6_, (%esp)
 265      000000
 266 01e5 89C1     		movl	%eax, %ecx
 267 01e7 E8000000 		call	__ZNSolsEPFRSoS_E
 267      00
 268              		.loc 2 306 0 is_stmt 0 discriminator 1
 269 01ec 83EC04   		subl	$4, %esp
 270 01ef EB48     		jmp	L12
 271              	L11:
 307:C:/Caleb/FIUNA/4to Semestre/POO/C++/EjercicioSumativoUn11/EjUn11\main.cpp ****     else
 308:C:/Caleb/FIUNA/4to Semestre/POO/C++/EjercicioSumativoUn11/EjUn11\main.cpp ****        cout << "No. Tiene " << letras.getLongitud() << " letras";
 272              		.loc 2 308 0 is_stmt 1
 273 01f1 8D45C8   		leal	-56(%ebp), %eax
 274 01f4 89C1     		movl	%eax, %ecx
 275 01f6 E8000000 		call	__ZNK4ColaIcE11getLongitudEv
 275      00
 276 01fb 894590   		movl	%eax, -112(%ebp)
 277 01fe C7442404 		movl	$LC3, 4(%esp)
 277      2B000000 
 278 0206 C7042400 		movl	$__ZSt4cout, (%esp)
 278      000000
 279 020d C7459801 		movl	$1, -104(%ebp)
 279      000000
 280 0214 E8000000 		call	__ZStlsISt11char_traitsIcEERSt13basic_ostreamIcT_ES5_PKc
 280      00
 281 0219 8B5D90   		movl	-112(%ebp), %ebx
GAS LISTING C:\Users\USER\AppData\Local\Temp\ccxBfeO7.s 			page 14


 282 021c 891C24   		movl	%ebx, (%esp)
 283 021f 89C1     		movl	%eax, %ecx
 284 0221 E8000000 		call	__ZNSolsEi
 284      00
 285              		.loc 2 308 0 is_stmt 0 discriminator 1
 286 0226 83EC04   		subl	$4, %esp
 287 0229 C7442404 		movl	$LC4, 4(%esp)
 287      36000000 
 288 0231 890424   		movl	%eax, (%esp)
 289 0234 E8000000 		call	__ZStlsISt11char_traitsIcEERSt13basic_ostreamIcT_ES5_PKc
 289      00
 290              	L12:
 309:C:/Caleb/FIUNA/4to Semestre/POO/C++/EjercicioSumativoUn11/EjUn11\main.cpp ****     cout <<"\nLa 'o' esta en la posicion " << letras.buscar('o');
 291              		.loc 2 309 0 is_stmt 1
 292 0239 8D45C8   		leal	-56(%ebp), %eax
 293 023c C704246F 		movl	$111, (%esp)
 293      000000
 294 0243 89C1     		movl	%eax, %ecx
 295 0245 E8000000 		call	__ZN4ColaIcE6buscarEc
 295      00
 296 024a 83EC04   		subl	$4, %esp
 297 024d 894590   		movl	%eax, -112(%ebp)
 298 0250 C7442404 		movl	$LC8, 4(%esp)
 298      6E000000 
 299 0258 C7042400 		movl	$__ZSt4cout, (%esp)
 299      000000
 300 025f C7459801 		movl	$1, -104(%ebp)
 300      000000
 301 0266 E8000000 		call	__ZStlsISt11char_traitsIcEERSt13basic_ostreamIcT_ES5_PKc
 301      00
 302 026b 8B7590   		movl	-112(%ebp), %esi
 303 026e 893424   		movl	%esi, (%esp)
 304 0271 89C1     		movl	%eax, %ecx
 305 0273 E8000000 		call	__ZNSolsEi
 305      00
 306              		.loc 2 309 0 is_stmt 0 discriminator 1
 307 0278 83EC04   		subl	$4, %esp
 310:C:/Caleb/FIUNA/4to Semestre/POO/C++/EjercicioSumativoUn11/EjUn11\main.cpp **** 
 311:C:/Caleb/FIUNA/4to Semestre/POO/C++/EjercicioSumativoUn11/EjUn11\main.cpp ****     cout<<"\nElemento en el frente: " << letras.ver();
 308              		.loc 2 311 0 is_stmt 1 discriminator 1
 309 027b 8D45C8   		leal	-56(%ebp), %eax
 310 027e 89C1     		movl	%eax, %ecx
 311 0280 E8000000 		call	__ZNK4ColaIcE3verEv
 311      00
 312              		.loc 2 311 0 is_stmt 0
 313 0285 0FBEC0   		movsbl	%al, %eax
 314 0288 894590   		movl	%eax, -112(%ebp)
 315 028b C7442404 		movl	$LC9, 4(%esp)
 315      8B000000 
 316 0293 C7042400 		movl	$__ZSt4cout, (%esp)
 316      000000
 317 029a E8000000 		call	__ZStlsISt11char_traitsIcEERSt13basic_ostreamIcT_ES5_PKc
 317      00
 318              		.loc 2 311 0 discriminator 1
 319 029f 8B7D90   		movl	-112(%ebp), %edi
 320 02a2 897C2404 		movl	%edi, 4(%esp)
 321 02a6 890424   		movl	%eax, (%esp)
GAS LISTING C:\Users\USER\AppData\Local\Temp\ccxBfeO7.s 			page 15


 322 02a9 E8000000 		call	__ZStlsISt11char_traitsIcEERSt13basic_ostreamIcT_ES5_c
 322      00
 323              	LBB4:
 324              	LBB5:
 312:C:/Caleb/FIUNA/4to Semestre/POO/C++/EjercicioSumativoUn11/EjUn11\main.cpp ****     try{
 313:C:/Caleb/FIUNA/4to Semestre/POO/C++/EjercicioSumativoUn11/EjUn11\main.cpp ****         for(int i = 0; i<5; i++) {
 325              		.loc 2 313 0 is_stmt 1
 326 02ae C745E000 		movl	$0, -32(%ebp)
 326      000000
 327              	L14:
 328              		.loc 2 313 0 is_stmt 0 discriminator 1
 329 02b5 837DE004 		cmpl	$4, -32(%ebp)
 330 02b9 7F40     		jg	L13
 314:C:/Caleb/FIUNA/4to Semestre/POO/C++/EjercicioSumativoUn11/EjUn11\main.cpp ****            cout<<"\nSe elimino: "<<letras.eliminar();
 331              		.loc 2 314 0 is_stmt 1
 332 02bb 8D45C8   		leal	-56(%ebp), %eax
 333 02be C7459804 		movl	$4, -104(%ebp)
 333      000000
 334 02c5 89C1     		movl	%eax, %ecx
 335 02c7 E8000000 		call	__ZN4ColaIcE8eliminarEv
 335      00
 336 02cc 0FBEC0   		movsbl	%al, %eax
 337 02cf 894590   		movl	%eax, -112(%ebp)
 338 02d2 C7442404 		movl	$LC5, 4(%esp)
 338      3E000000 
 339 02da C7042400 		movl	$__ZSt4cout, (%esp)
 339      000000
 340 02e1 E8000000 		call	__ZStlsISt11char_traitsIcEERSt13basic_ostreamIcT_ES5_PKc
 340      00
 341              		.loc 2 314 0 is_stmt 0 discriminator 1
 342 02e6 8B5D90   		movl	-112(%ebp), %ebx
 343 02e9 895C2404 		movl	%ebx, 4(%esp)
 344 02ed 890424   		movl	%eax, (%esp)
 345 02f0 E8000000 		call	__ZStlsISt11char_traitsIcEERSt13basic_ostreamIcT_ES5_c
 345      00
 313:C:/Caleb/FIUNA/4to Semestre/POO/C++/EjercicioSumativoUn11/EjUn11\main.cpp ****            cout<<"\nSe elimino: "<<letras.eliminar();
 346              		.loc 2 313 0 is_stmt 1 discriminator 2
 347 02f5 8345E001 		addl	$1, -32(%ebp)
 348 02f9 EBBA     		jmp	L14
 349              	L13:
 350              	LBE5:
 315:C:/Caleb/FIUNA/4to Semestre/POO/C++/EjercicioSumativoUn11/EjUn11\main.cpp ****         }
 316:C:/Caleb/FIUNA/4to Semestre/POO/C++/EjercicioSumativoUn11/EjUn11\main.cpp ****         cout<<"\nElemento en el frente: " << letras.ver();
 351              		.loc 2 316 0
 352 02fb 8D45C8   		leal	-56(%ebp), %eax
 353 02fe C7459804 		movl	$4, -104(%ebp)
 353      000000
 354 0305 89C1     		movl	%eax, %ecx
 355 0307 E8000000 		call	__ZNK4ColaIcE3verEv
 355      00
 356 030c 0FBEC0   		movsbl	%al, %eax
 357 030f 894590   		movl	%eax, -112(%ebp)
 358 0312 C7442404 		movl	$LC9, 4(%esp)
 358      8B000000 
 359 031a C7042400 		movl	$__ZSt4cout, (%esp)
 359      000000
 360 0321 E8000000 		call	__ZStlsISt11char_traitsIcEERSt13basic_ostreamIcT_ES5_PKc
GAS LISTING C:\Users\USER\AppData\Local\Temp\ccxBfeO7.s 			page 16


 360      00
 361              		.loc 2 316 0 is_stmt 0 discriminator 1
 362 0326 8B7590   		movl	-112(%ebp), %esi
 363 0329 89742404 		movl	%esi, 4(%esp)
 364 032d 890424   		movl	%eax, (%esp)
 365 0330 E8000000 		call	__ZStlsISt11char_traitsIcEERSt13basic_ostreamIcT_ES5_c
 365      00
 317:C:/Caleb/FIUNA/4to Semestre/POO/C++/EjercicioSumativoUn11/EjUn11\main.cpp ****         cout<<"\nEsta vacia?: ";
 366              		.loc 2 317 0 is_stmt 1
 367 0335 C7442404 		movl	$LC7, 4(%esp)
 367      5F000000 
 368 033d C7042400 		movl	$__ZSt4cout, (%esp)
 368      000000
 369 0344 E8000000 		call	__ZStlsISt11char_traitsIcEERSt13basic_ostreamIcT_ES5_PKc
 369      00
 318:C:/Caleb/FIUNA/4to Semestre/POO/C++/EjercicioSumativoUn11/EjUn11\main.cpp ****         if (letras.esVacia())
 370              		.loc 2 318 0
 371 0349 8D45C8   		leal	-56(%ebp), %eax
 372 034c 89C1     		movl	%eax, %ecx
 373 034e E8000000 		call	__ZNK4ColaIcE7esVaciaEv
 373      00
 374 0353 84C0     		testb	%al, %al
 375 0355 7427     		je	L15
 319:C:/Caleb/FIUNA/4to Semestre/POO/C++/EjercicioSumativoUn11/EjUn11\main.cpp ****            cout << "Si" <<endl;
 376              		.loc 2 319 0
 377 0357 C7442404 		movl	$LC2, 4(%esp)
 377      28000000 
 378 035f C7042400 		movl	$__ZSt4cout, (%esp)
 378      000000
 379 0366 E8000000 		call	__ZStlsISt11char_traitsIcEERSt13basic_ostreamIcT_ES5_PKc
 379      00
 380 036b C7042400 		movl	$__ZSt4endlIcSt11char_traitsIcEERSt13basic_ostreamIT_T0_ES6_, (%esp)
 380      000000
 381 0372 89C1     		movl	%eax, %ecx
 382 0374 E8000000 		call	__ZNSolsEPFRSoS_E
 382      00
 383              		.loc 2 319 0 is_stmt 0 discriminator 1
 384 0379 83EC04   		subl	$4, %esp
 385 037c EB48     		jmp	L16
 386              	L15:
 320:C:/Caleb/FIUNA/4to Semestre/POO/C++/EjercicioSumativoUn11/EjUn11\main.cpp ****         else
 321:C:/Caleb/FIUNA/4to Semestre/POO/C++/EjercicioSumativoUn11/EjUn11\main.cpp ****            cout << "No. Tiene " << letras.getLongitud() << " letras";
 387              		.loc 2 321 0 is_stmt 1
 388 037e 8D45C8   		leal	-56(%ebp), %eax
 389 0381 89C1     		movl	%eax, %ecx
 390 0383 E8000000 		call	__ZNK4ColaIcE11getLongitudEv
 390      00
 391 0388 894590   		movl	%eax, -112(%ebp)
 392 038b C7442404 		movl	$LC3, 4(%esp)
 392      2B000000 
 393 0393 C7042400 		movl	$__ZSt4cout, (%esp)
 393      000000
 394 039a C7459804 		movl	$4, -104(%ebp)
 394      000000
 395 03a1 E8000000 		call	__ZStlsISt11char_traitsIcEERSt13basic_ostreamIcT_ES5_PKc
 395      00
 396 03a6 8B7D90   		movl	-112(%ebp), %edi
GAS LISTING C:\Users\USER\AppData\Local\Temp\ccxBfeO7.s 			page 17


 397 03a9 893C24   		movl	%edi, (%esp)
 398 03ac 89C1     		movl	%eax, %ecx
 399 03ae E8000000 		call	__ZNSolsEi
 399      00
 400              		.loc 2 321 0 is_stmt 0 discriminator 1
 401 03b3 83EC04   		subl	$4, %esp
 402 03b6 C7442404 		movl	$LC4, 4(%esp)
 402      36000000 
 403 03be 890424   		movl	%eax, (%esp)
 404 03c1 E8000000 		call	__ZStlsISt11char_traitsIcEERSt13basic_ostreamIcT_ES5_PKc
 404      00
 405              	L16:
 322:C:/Caleb/FIUNA/4to Semestre/POO/C++/EjercicioSumativoUn11/EjUn11\main.cpp ****         cout <<"\nLa 'd' esta en la posicion " << letras.buscar('d');
 406              		.loc 2 322 0 is_stmt 1
 407 03c6 8D45C8   		leal	-56(%ebp), %eax
 408 03c9 C7042464 		movl	$100, (%esp)
 408      000000
 409 03d0 89C1     		movl	%eax, %ecx
 410 03d2 E8000000 		call	__ZN4ColaIcE6buscarEc
 410      00
 411 03d7 83EC04   		subl	$4, %esp
 412 03da 894590   		movl	%eax, -112(%ebp)
 413 03dd C7442404 		movl	$LC10, 4(%esp)
 413      A4000000 
 414 03e5 C7042400 		movl	$__ZSt4cout, (%esp)
 414      000000
 415 03ec C7459804 		movl	$4, -104(%ebp)
 415      000000
 416 03f3 E8000000 		call	__ZStlsISt11char_traitsIcEERSt13basic_ostreamIcT_ES5_PKc
 416      00
 417 03f8 8B5D90   		movl	-112(%ebp), %ebx
 418 03fb 891C24   		movl	%ebx, (%esp)
 419 03fe 89C1     		movl	%eax, %ecx
 420 0400 E8000000 		call	__ZNSolsEi
 420      00
 421              		.loc 2 322 0 is_stmt 0 discriminator 1
 422 0405 83EC04   		subl	$4, %esp
 323:C:/Caleb/FIUNA/4to Semestre/POO/C++/EjercicioSumativoUn11/EjUn11\main.cpp ****         cout<<"\nSe elimino: "<<letras.eliminar();
 423              		.loc 2 323 0 is_stmt 1 discriminator 1
 424 0408 8D45C8   		leal	-56(%ebp), %eax
 425 040b 89C1     		movl	%eax, %ecx
 426 040d E8000000 		call	__ZN4ColaIcE8eliminarEv
 426      00
 427              		.loc 2 323 0 is_stmt 0
 428 0412 0FBEC0   		movsbl	%al, %eax
 429 0415 894590   		movl	%eax, -112(%ebp)
 430 0418 C7442404 		movl	$LC5, 4(%esp)
 430      3E000000 
 431 0420 C7042400 		movl	$__ZSt4cout, (%esp)
 431      000000
 432 0427 E8000000 		call	__ZStlsISt11char_traitsIcEERSt13basic_ostreamIcT_ES5_PKc
 432      00
 433              		.loc 2 323 0 discriminator 1
 434 042c 8B7590   		movl	-112(%ebp), %esi
 435 042f 89742404 		movl	%esi, 4(%esp)
 436 0433 890424   		movl	%eax, (%esp)
 437 0436 E8000000 		call	__ZStlsISt11char_traitsIcEERSt13basic_ostreamIcT_ES5_c
GAS LISTING C:\Users\USER\AppData\Local\Temp\ccxBfeO7.s 			page 18


 437      00
 324:C:/Caleb/FIUNA/4to Semestre/POO/C++/EjercicioSumativoUn11/EjUn11\main.cpp ****         cout<<"\nSe elimino: "<<letras.eliminar();
 438              		.loc 2 324 0 is_stmt 1
 439 043b 8D45C8   		leal	-56(%ebp), %eax
 440 043e 89C1     		movl	%eax, %ecx
 441 0440 E8000000 		call	__ZN4ColaIcE8eliminarEv
 441      00
 442 0445 0FBEC0   		movsbl	%al, %eax
 443 0448 894590   		movl	%eax, -112(%ebp)
 444 044b C7442404 		movl	$LC5, 4(%esp)
 444      3E000000 
 445 0453 C7042400 		movl	$__ZSt4cout, (%esp)
 445      000000
 446 045a E8000000 		call	__ZStlsISt11char_traitsIcEERSt13basic_ostreamIcT_ES5_PKc
 446      00
 447              		.loc 2 324 0 is_stmt 0 discriminator 1
 448 045f 8B7D90   		movl	-112(%ebp), %edi
 449 0462 897C2404 		movl	%edi, 4(%esp)
 450 0466 890424   		movl	%eax, (%esp)
 451 0469 E8000000 		call	__ZStlsISt11char_traitsIcEERSt13basic_ostreamIcT_ES5_c
 451      00
 325:C:/Caleb/FIUNA/4to Semestre/POO/C++/EjercicioSumativoUn11/EjUn11\main.cpp ****         cout<<"\nSe elimino: "<<letras.eliminar();
 452              		.loc 2 325 0 is_stmt 1
 453 046e 8D45C8   		leal	-56(%ebp), %eax
 454 0471 89C1     		movl	%eax, %ecx
 455 0473 E8000000 		call	__ZN4ColaIcE8eliminarEv
 455      00
 456 0478 0FBEC0   		movsbl	%al, %eax
 457 047b 894590   		movl	%eax, -112(%ebp)
 458 047e C7442404 		movl	$LC5, 4(%esp)
 458      3E000000 
 459 0486 C7042400 		movl	$__ZSt4cout, (%esp)
 459      000000
 460 048d E8000000 		call	__ZStlsISt11char_traitsIcEERSt13basic_ostreamIcT_ES5_PKc
 460      00
 461              		.loc 2 325 0 is_stmt 0 discriminator 1
 462 0492 8B5D90   		movl	-112(%ebp), %ebx
 463 0495 895C2404 		movl	%ebx, 4(%esp)
 464 0499 890424   		movl	%eax, (%esp)
 465 049c E8000000 		call	__ZStlsISt11char_traitsIcEERSt13basic_ostreamIcT_ES5_c
 465      00
 466              	L27:
 467              	LBE4:
 326:C:/Caleb/FIUNA/4to Semestre/POO/C++/EjercicioSumativoUn11/EjUn11\main.cpp ****     }catch(ColaVacia &ex){
 327:C:/Caleb/FIUNA/4to Semestre/POO/C++/EjercicioSumativoUn11/EjUn11\main.cpp ****         cerr<<ex.what();
 328:C:/Caleb/FIUNA/4to Semestre/POO/C++/EjercicioSumativoUn11/EjUn11\main.cpp ****     }
 329:C:/Caleb/FIUNA/4to Semestre/POO/C++/EjercicioSumativoUn11/EjUn11\main.cpp **** 
 330:C:/Caleb/FIUNA/4to Semestre/POO/C++/EjercicioSumativoUn11/EjUn11\main.cpp ****     cout<<"\nSistema finalizado con exito";
 468              		.loc 2 330 0 is_stmt 1
 469 04a1 C7442404 		movl	$LC11, 4(%esp)
 469      C1000000 
 470 04a9 C7042400 		movl	$__ZSt4cout, (%esp)
 470      000000
 471 04b0 C7459801 		movl	$1, -104(%ebp)
 471      000000
 472 04b7 E8000000 		call	__ZStlsISt11char_traitsIcEERSt13basic_ostreamIcT_ES5_PKc
 472      00
GAS LISTING C:\Users\USER\AppData\Local\Temp\ccxBfeO7.s 			page 19


 287:C:/Caleb/FIUNA/4to Semestre/POO/C++/EjercicioSumativoUn11/EjUn11\main.cpp ****     cout<<"Esta vacia?: ";
 473              		.loc 2 287 0
 474 04bc 8D45C8   		leal	-56(%ebp), %eax
 475 04bf 89C1     		movl	%eax, %ecx
 476 04c1 E8000000 		call	__ZN4ColaIcED1Ev
 476      00
 331:C:/Caleb/FIUNA/4to Semestre/POO/C++/EjercicioSumativoUn11/EjUn11\main.cpp **** }
 477              		.loc 2 331 0
 478 04c6 B8000000 		movl	$0, %eax
 478      00
 479 04cb 894590   		movl	%eax, -112(%ebp)
 480 04ce E9370100 		jmp	L35
 480      00
 481              	L31:
 482 04d3 89D0     		movl	%edx, %eax
 483 04d5 89CA     		movl	%ecx, %edx
 484 04d7 83FA01   		cmpl	$1, %edx
 485 04da 7408     		je	L20
 486 04dc 894590   		movl	%eax, -112(%ebp)
 487 04df E90A0100 		jmp	L21
 487      00
 488              	L20:
 489              	LBB6:
 295:C:/Caleb/FIUNA/4to Semestre/POO/C++/EjercicioSumativoUn11/EjUn11\main.cpp ****         cerr << ex.what();
 490              		.loc 2 295 0
 491 04e4 890424   		movl	%eax, (%esp)
 492 04e7 E8000000 		call	___cxa_begin_catch
 492      00
 493 04ec 8945DC   		movl	%eax, -36(%ebp)
 296:C:/Caleb/FIUNA/4to Semestre/POO/C++/EjercicioSumativoUn11/EjUn11\main.cpp ****     }
 494              		.loc 2 296 0
 495 04ef 8B45DC   		movl	-36(%ebp), %eax
 496 04f2 8B00     		movl	(%eax), %eax
 497 04f4 83C008   		addl	$8, %eax
 498 04f7 8B00     		movl	(%eax), %eax
 499 04f9 8B55DC   		movl	-36(%ebp), %edx
 500 04fc 89D1     		movl	%edx, %ecx
 501 04fe FFD0     		call	*%eax
 502 0500 89442404 		movl	%eax, 4(%esp)
 503 0504 C7042400 		movl	$__ZSt4cerr, (%esp)
 503      000000
 504 050b C7459803 		movl	$3, -104(%ebp)
 504      000000
 505 0512 E8000000 		call	__ZStlsISt11char_traitsIcEERSt13basic_ostreamIcT_ES5_PKc
 505      00
 295:C:/Caleb/FIUNA/4to Semestre/POO/C++/EjercicioSumativoUn11/EjUn11\main.cpp ****         cerr << ex.what();
 506              		.loc 2 295 0
 507 0517 C7459801 		movl	$1, -104(%ebp)
 507      000000
 508 051e E8000000 		call	___cxa_end_catch
 508      00
 509 0523 E918FCFF 		jmp	L22
 509      FF
 510              	L32:
 511 0528 895590   		movl	%edx, -112(%ebp)
 512 052b C7459800 		movl	$0, -104(%ebp)
 512      000000
GAS LISTING C:\Users\USER\AppData\Local\Temp\ccxBfeO7.s 			page 20


 513 0532 E8000000 		call	___cxa_end_catch
 513      00
 514 0537 8B4590   		movl	-112(%ebp), %eax
 515 053a 894590   		movl	%eax, -112(%ebp)
 516 053d E9AC0000 		jmp	L21
 516      00
 517              	L33:
 518 0542 89D0     		movl	%edx, %eax
 519 0544 89CA     		movl	%ecx, %edx
 520 0546 83FA01   		cmpl	$1, %edx
 521 0549 7408     		je	L26
 522 054b 894590   		movl	%eax, -112(%ebp)
 523 054e E99B0000 		jmp	L21
 523      00
 524              	L26:
 525              	LBE6:
 526              	LBB7:
 326:C:/Caleb/FIUNA/4to Semestre/POO/C++/EjercicioSumativoUn11/EjUn11\main.cpp ****         cerr<<ex.what();
 527              		.loc 2 326 0
 528 0553 890424   		movl	%eax, (%esp)
 529 0556 E8000000 		call	___cxa_begin_catch
 529      00
 530 055b 8945D8   		movl	%eax, -40(%ebp)
 327:C:/Caleb/FIUNA/4to Semestre/POO/C++/EjercicioSumativoUn11/EjUn11\main.cpp ****     }
 531              		.loc 2 327 0
 532 055e 8B45D8   		movl	-40(%ebp), %eax
 533 0561 8B00     		movl	(%eax), %eax
 534 0563 83C008   		addl	$8, %eax
 535 0566 8B00     		movl	(%eax), %eax
 536 0568 8B55D8   		movl	-40(%ebp), %edx
 537 056b 89D1     		movl	%edx, %ecx
 538 056d FFD0     		call	*%eax
 539 056f 89442404 		movl	%eax, 4(%esp)
 540 0573 C7042400 		movl	$__ZSt4cerr, (%esp)
 540      000000
 541 057a C7459805 		movl	$5, -104(%ebp)
 541      000000
 542 0581 E8000000 		call	__ZStlsISt11char_traitsIcEERSt13basic_ostreamIcT_ES5_PKc
 542      00
 326:C:/Caleb/FIUNA/4to Semestre/POO/C++/EjercicioSumativoUn11/EjUn11\main.cpp ****         cerr<<ex.what();
 543              		.loc 2 326 0
 544 0586 C7459801 		movl	$1, -104(%ebp)
 544      000000
 545 058d E8000000 		call	___cxa_end_catch
 545      00
 546 0592 E90AFFFF 		jmp	L27
 546      FF
 547              	L34:
 548 0597 895590   		movl	%edx, -112(%ebp)
 549 059a C7459800 		movl	$0, -104(%ebp)
 549      000000
 550 05a1 E8000000 		call	___cxa_end_catch
 550      00
 551 05a6 8B4590   		movl	-112(%ebp), %eax
 552 05a9 894590   		movl	%eax, -112(%ebp)
 553 05ac EB40     		jmp	L21
 554              	L29:
GAS LISTING C:\Users\USER\AppData\Local\Temp\ccxBfeO7.s 			page 21


 555 05ae 8D6D18   		leal	24(%ebp), %ebp
 556 05b1 8B559C   		movl	-100(%ebp), %edx
 557 05b4 8B4DA0   		movl	-96(%ebp), %ecx
 558 05b7 8B4598   		movl	-104(%ebp), %eax
 559 05ba 85C0     		testl	%eax, %eax
 560 05bc 742D     		je	L30
 561 05be 83E801   		subl	$1, %eax
 562 05c1 85C0     		testl	%eax, %eax
 563 05c3 0F840AFF 		je	L31
 563      FFFF
 564 05c9 83E801   		subl	$1, %eax
 565 05cc 85C0     		testl	%eax, %eax
 566 05ce 0F8454FF 		je	L32
 566      FFFF
 567 05d4 83E801   		subl	$1, %eax
 568 05d7 85C0     		testl	%eax, %eax
 569 05d9 0F8463FF 		je	L33
 569      FFFF
 570 05df 83E801   		subl	$1, %eax
 571 05e2 85C0     		testl	%eax, %eax
 572 05e4 74B1     		je	L34
 573 05e6 83E801   		subl	$1, %eax
 574 05e9 0F0B     		ud2
 575              	L30:
 576 05eb 895590   		movl	%edx, -112(%ebp)
 577              	L21:
 578              	LBE7:
 287:C:/Caleb/FIUNA/4to Semestre/POO/C++/EjercicioSumativoUn11/EjUn11\main.cpp ****     cout<<"Esta vacia?: ";
 579              		.loc 2 287 0
 580 05ee 8D45C8   		leal	-56(%ebp), %eax
 581 05f1 89C1     		movl	%eax, %ecx
 582 05f3 E8000000 		call	__ZN4ColaIcED1Ev
 582      00
 583 05f8 8B4590   		movl	-112(%ebp), %eax
 584 05fb 890424   		movl	%eax, (%esp)
 585 05fe C74598FF 		movl	$-1, -104(%ebp)
 585      FFFFFF
 586 0605 E8000000 		call	__Unwind_SjLj_Resume
 586      00
 587              	L35:
 588 060a 8D4594   		leal	-108(%ebp), %eax
 589 060d 890424   		movl	%eax, (%esp)
 590 0610 E8000000 		call	__Unwind_SjLj_Unregister
 590      00
 591              		.loc 2 331 0
 592 0615 8B4590   		movl	-112(%ebp), %eax
 593 0618 8D65F0   		leal	-16(%ebp), %esp
 594 061b 59       		popl	%ecx
 595              		.cfi_restore 1
 596              		.cfi_def_cfa 1, 0
 597 061c 5B       		popl	%ebx
 598              		.cfi_restore 3
 599 061d 5E       		popl	%esi
 600              		.cfi_restore 6
 601 061e 5F       		popl	%edi
 602              		.cfi_restore 7
 603 061f 5D       		popl	%ebp
GAS LISTING C:\Users\USER\AppData\Local\Temp\ccxBfeO7.s 			page 22


 604              		.cfi_restore 5
 605 0620 8D61FC   		leal	-4(%ecx), %esp
 606              		.cfi_def_cfa 4, 4
 607 0623 C3       		ret
 608              		.cfi_endproc
 609              	LFE1026:
 610              		.section	.gcc_except_table,"w"
 611              		.align 4
 612              	LLSDA1026:
 613 0000 FF       		.byte	0xff
 614 0001 00       		.byte	0
 615 0002 15       		.uleb128 LLSDATT1026-LLSDATTD1026
 616              	LLSDATTD1026:
 617 0003 01       		.byte	0x1
 618 0004 0A       		.uleb128 LLSDACSE1026-LLSDACSB1026
 619              	LLSDACSB1026:
 620 0005 00       		.uleb128 0
 621 0006 00       		.uleb128 0
 622 0007 01       		.uleb128 0x1
 623 0008 03       		.uleb128 0x3
 624 0009 02       		.uleb128 0x2
 625 000a 00       		.uleb128 0
 626 000b 03       		.uleb128 0x3
 627 000c 03       		.uleb128 0x3
 628 000d 04       		.uleb128 0x4
 629 000e 00       		.uleb128 0
 630              	LLSDACSE1026:
 631 000f 00       		.byte	0
 632 0010 00       		.byte	0
 633 0011 01       		.byte	0x1
 634 0012 7D       		.byte	0x7d
 635 0013 00       		.align 4
 636 0014 00000000 		.long	__ZTI9ColaVacia
 637              	LLSDATT1026:
 638              		.text
 639              		.section	.text$_ZN4ColaIcEC1Ev,"x"
 640              		.linkonce discard
 641              		.align 2
 642              		.globl	__ZN4ColaIcEC1Ev
 644              	__ZN4ColaIcEC1Ev:
 645              	LFB1029:
 206:C:/Caleb/FIUNA/4to Semestre/POO/C++/EjercicioSumativoUn11/EjUn11\main.cpp ****     {
 646              		.loc 2 206 0
 647              		.cfi_startproc
 648 0000 55       		pushl	%ebp
 649              		.cfi_def_cfa_offset 8
 650              		.cfi_offset 5, -8
 651 0001 89E5     		movl	%esp, %ebp
 652              		.cfi_def_cfa_register 5
 653 0003 83EC04   		subl	$4, %esp
 654 0006 894DFC   		movl	%ecx, -4(%ebp)
 655              	LBB8:
 207:C:/Caleb/FIUNA/4to Semestre/POO/C++/EjercicioSumativoUn11/EjUn11\main.cpp ****         frente = 0;
 656              		.loc 2 207 0
 657 0009 BA080000 		movl	$__ZTV4ColaIcE+8, %edx
 657      00
 658 000e 8B45FC   		movl	-4(%ebp), %eax
GAS LISTING C:\Users\USER\AppData\Local\Temp\ccxBfeO7.s 			page 23


 659 0011 8910     		movl	%edx, (%eax)
 208:C:/Caleb/FIUNA/4to Semestre/POO/C++/EjercicioSumativoUn11/EjUn11\main.cpp ****         ultimo = 0;
 660              		.loc 2 208 0
 661 0013 8B45FC   		movl	-4(%ebp), %eax
 662 0016 C7400400 		movl	$0, 4(%eax)
 662      000000
 209:C:/Caleb/FIUNA/4to Semestre/POO/C++/EjercicioSumativoUn11/EjUn11\main.cpp ****         tamanho = 0;
 663              		.loc 2 209 0
 664 001d 8B45FC   		movl	-4(%ebp), %eax
 665 0020 C7400800 		movl	$0, 8(%eax)
 665      000000
 210:C:/Caleb/FIUNA/4to Semestre/POO/C++/EjercicioSumativoUn11/EjUn11\main.cpp ****     }
 666              		.loc 2 210 0
 667 0027 8B45FC   		movl	-4(%ebp), %eax
 668 002a C7400C00 		movl	$0, 12(%eax)
 668      000000
 669              	LBE8:
 211:C:/Caleb/FIUNA/4to Semestre/POO/C++/EjercicioSumativoUn11/EjUn11\main.cpp ****     virtual ~Cola(){}
 670              		.loc 2 211 0
 671 0031 90       		nop
 672 0032 C9       		leave
 673              		.cfi_restore 5
 674              		.cfi_def_cfa 4, 4
 675 0033 C3       		ret
 676              		.cfi_endproc
 677              	LFE1029:
 678              		.section	.text$_ZN4ColaIcED1Ev,"x"
 679              		.linkonce discard
 680              		.align 2
 681              		.globl	__ZN4ColaIcED1Ev
 683              	__ZN4ColaIcED1Ev:
 684              	LFB1032:
 212:C:/Caleb/FIUNA/4to Semestre/POO/C++/EjercicioSumativoUn11/EjUn11\main.cpp ****     void agregar(T2 dato)
 685              		.loc 2 212 0
 686              		.cfi_startproc
 687 0000 55       		pushl	%ebp
 688              		.cfi_def_cfa_offset 8
 689              		.cfi_offset 5, -8
 690 0001 89E5     		movl	%esp, %ebp
 691              		.cfi_def_cfa_register 5
 692 0003 83EC28   		subl	$40, %esp
 693 0006 894DF4   		movl	%ecx, -12(%ebp)
 694              	LBB9:
 212:C:/Caleb/FIUNA/4to Semestre/POO/C++/EjercicioSumativoUn11/EjUn11\main.cpp ****     void agregar(T2 dato)
 695              		.loc 2 212 0
 696 0009 BA080000 		movl	$__ZTV4ColaIcE+8, %edx
 696      00
 697 000e 8B45F4   		movl	-12(%ebp), %eax
 698 0011 8910     		movl	%edx, (%eax)
 699              	LBE9:
 700 0013 B8000000 		movl	$0, %eax
 700      00
 701 0018 85C0     		testl	%eax, %eax
 702 001a 740B     		je	L37
 212:C:/Caleb/FIUNA/4to Semestre/POO/C++/EjercicioSumativoUn11/EjUn11\main.cpp ****     void agregar(T2 dato)
 703              		.loc 2 212 0 is_stmt 0 discriminator 2
 704 001c 8B45F4   		movl	-12(%ebp), %eax
GAS LISTING C:\Users\USER\AppData\Local\Temp\ccxBfeO7.s 			page 24


 705 001f 890424   		movl	%eax, (%esp)
 706 0022 E8000000 		call	__ZdlPv
 706      00
 707              	L37:
 212:C:/Caleb/FIUNA/4to Semestre/POO/C++/EjercicioSumativoUn11/EjUn11\main.cpp ****     void agregar(T2 dato)
 708              		.loc 2 212 0
 709 0027 C9       		leave
 710              		.cfi_restore 5
 711              		.cfi_def_cfa 4, 4
 712 0028 C3       		ret
 713              		.cfi_endproc
 714              	LFE1032:
 715 0029 909090   		.section	.text$_ZN4ColaIcED0Ev,"x"
 716              		.linkonce discard
 717              		.align 2
 718              		.globl	__ZN4ColaIcED0Ev
 720              	__ZN4ColaIcED0Ev:
 721              	LFB1033:
 212:C:/Caleb/FIUNA/4to Semestre/POO/C++/EjercicioSumativoUn11/EjUn11\main.cpp ****     void agregar(T2 dato)
 722              		.loc 2 212 0 is_stmt 1
 723              		.cfi_startproc
 724 0000 55       		pushl	%ebp
 725              		.cfi_def_cfa_offset 8
 726              		.cfi_offset 5, -8
 727 0001 89E5     		movl	%esp, %ebp
 728              		.cfi_def_cfa_register 5
 729 0003 83EC28   		subl	$40, %esp
 730 0006 894DF4   		movl	%ecx, -12(%ebp)
 212:C:/Caleb/FIUNA/4to Semestre/POO/C++/EjercicioSumativoUn11/EjUn11\main.cpp ****     void agregar(T2 dato)
 731              		.loc 2 212 0
 732 0009 8B45F4   		movl	-12(%ebp), %eax
 733 000c 89C1     		movl	%eax, %ecx
 734 000e E8000000 		call	__ZN4ColaIcED1Ev
 734      00
 735 0013 8B45F4   		movl	-12(%ebp), %eax
 736 0016 890424   		movl	%eax, (%esp)
 737 0019 E8000000 		call	__ZdlPv
 737      00
 738 001e C9       		leave
 739              		.cfi_restore 5
 740              		.cfi_def_cfa 4, 4
 741 001f C3       		ret
 742              		.cfi_endproc
 743              	LFE1033:
 744              		.section	.text$_ZNK4ColaIcE7esVaciaEv,"x"
 745              		.linkonce discard
 746              		.align 2
 747              		.globl	__ZNK4ColaIcE7esVaciaEv
 749              	__ZNK4ColaIcE7esVaciaEv:
 750              	LFB1035:
 270:C:/Caleb/FIUNA/4to Semestre/POO/C++/EjercicioSumativoUn11/EjUn11\main.cpp ****     {
 751              		.loc 2 270 0
 752              		.cfi_startproc
 753 0000 55       		pushl	%ebp
 754              		.cfi_def_cfa_offset 8
 755              		.cfi_offset 5, -8
 756 0001 89E5     		movl	%esp, %ebp
GAS LISTING C:\Users\USER\AppData\Local\Temp\ccxBfeO7.s 			page 25


 757              		.cfi_def_cfa_register 5
 758 0003 83EC04   		subl	$4, %esp
 759 0006 894DFC   		movl	%ecx, -4(%ebp)
 272:C:/Caleb/FIUNA/4to Semestre/POO/C++/EjercicioSumativoUn11/EjUn11\main.cpp ****         else return false;
 760              		.loc 2 272 0
 761 0009 8B45FC   		movl	-4(%ebp), %eax
 762 000c 8B400C   		movl	12(%eax), %eax
 763 000f 85C0     		testl	%eax, %eax
 764 0011 7507     		jne	L41
 272:C:/Caleb/FIUNA/4to Semestre/POO/C++/EjercicioSumativoUn11/EjUn11\main.cpp ****         else return false;
 765              		.loc 2 272 0 is_stmt 0 discriminator 1
 766 0013 B8010000 		movl	$1, %eax
 766      00
 767 0018 EB05     		jmp	L42
 768              	L41:
 273:C:/Caleb/FIUNA/4to Semestre/POO/C++/EjercicioSumativoUn11/EjUn11\main.cpp ****     }
 769              		.loc 2 273 0 is_stmt 1
 770 001a B8000000 		movl	$0, %eax
 770      00
 771              	L42:
 274:C:/Caleb/FIUNA/4to Semestre/POO/C++/EjercicioSumativoUn11/EjUn11\main.cpp **** };
 772              		.loc 2 274 0
 773 001f C9       		leave
 774              		.cfi_restore 5
 775              		.cfi_def_cfa 4, 4
 776 0020 C3       		ret
 777              		.cfi_endproc
 778              	LFE1035:
 779 0021 909090   		.section	.text$_ZNK4ColaIcE11getLongitudEv,"x"
 780              		.linkonce discard
 781              		.align 2
 782              		.globl	__ZNK4ColaIcE11getLongitudEv
 784              	__ZNK4ColaIcE11getLongitudEv:
 785              	LFB1038:
 266:C:/Caleb/FIUNA/4to Semestre/POO/C++/EjercicioSumativoUn11/EjUn11\main.cpp ****     {
 786              		.loc 2 266 0
 787              		.cfi_startproc
 788 0000 55       		pushl	%ebp
 789              		.cfi_def_cfa_offset 8
 790              		.cfi_offset 5, -8
 791 0001 89E5     		movl	%esp, %ebp
 792              		.cfi_def_cfa_register 5
 793 0003 83EC04   		subl	$4, %esp
 794 0006 894DFC   		movl	%ecx, -4(%ebp)
 268:C:/Caleb/FIUNA/4to Semestre/POO/C++/EjercicioSumativoUn11/EjUn11\main.cpp ****     }
 795              		.loc 2 268 0
 796 0009 8B45FC   		movl	-4(%ebp), %eax
 797 000c 8B400C   		movl	12(%eax), %eax
 269:C:/Caleb/FIUNA/4to Semestre/POO/C++/EjercicioSumativoUn11/EjUn11\main.cpp ****     bool esVacia() const
 798              		.loc 2 269 0
 799 000f C9       		leave
 800              		.cfi_restore 5
 801              		.cfi_def_cfa 4, 4
 802 0010 C3       		ret
 803              		.cfi_endproc
 804              	LFE1038:
 805 0011 909090   		.section	.text$_ZN9ColaVaciaC1Ev,"x"
GAS LISTING C:\Users\USER\AppData\Local\Temp\ccxBfeO7.s 			page 26


 806              		.linkonce discard
 807              		.align 2
 808              		.globl	__ZN9ColaVaciaC1Ev
 810              	__ZN9ColaVaciaC1Ev:
 811              	LFB1042:
 172:C:/Caleb/FIUNA/4to Semestre/POO/C++/EjercicioSumativoUn11/EjUn11\main.cpp **** {
 812              		.loc 2 172 0
 813              		.cfi_startproc
 814 0000 55       		pushl	%ebp
 815              		.cfi_def_cfa_offset 8
 816              		.cfi_offset 5, -8
 817 0001 89E5     		movl	%esp, %ebp
 818              		.cfi_def_cfa_register 5
 819 0003 83EC04   		subl	$4, %esp
 820 0006 894DFC   		movl	%ecx, -4(%ebp)
 821              	LBB10:
 172:C:/Caleb/FIUNA/4to Semestre/POO/C++/EjercicioSumativoUn11/EjUn11\main.cpp **** {
 822              		.loc 2 172 0
 823 0009 8B45FC   		movl	-4(%ebp), %eax
 824 000c 89C1     		movl	%eax, %ecx
 825 000e E8000000 		call	__ZNSt9exceptionC2Ev
 825      00
 826 0013 BA080000 		movl	$__ZTV9ColaVacia+8, %edx
 826      00
 827 0018 8B45FC   		movl	-4(%ebp), %eax
 828 001b 8910     		movl	%edx, (%eax)
 829              	LBE10:
 830 001d 90       		nop
 831 001e C9       		leave
 832              		.cfi_restore 5
 833              		.cfi_def_cfa 4, 4
 834 001f C3       		ret
 835              		.cfi_endproc
 836              	LFE1042:
 837              		.section	.text$_ZN9ColaVaciaD1Ev,"x"
 838              		.linkonce discard
 839              		.align 2
 840              		.globl	__ZN9ColaVaciaD1Ev
 842              	__ZN9ColaVaciaD1Ev:
 843              	LFB1045:
 172:C:/Caleb/FIUNA/4to Semestre/POO/C++/EjercicioSumativoUn11/EjUn11\main.cpp **** {
 844              		.loc 2 172 0
 845              		.cfi_startproc
 846 0000 55       		pushl	%ebp
 847              		.cfi_def_cfa_offset 8
 848              		.cfi_offset 5, -8
 849 0001 89E5     		movl	%esp, %ebp
 850              		.cfi_def_cfa_register 5
 851 0003 83EC28   		subl	$40, %esp
 852 0006 894DF4   		movl	%ecx, -12(%ebp)
 853              	LBB11:
 172:C:/Caleb/FIUNA/4to Semestre/POO/C++/EjercicioSumativoUn11/EjUn11\main.cpp **** {
 854              		.loc 2 172 0
 855 0009 BA080000 		movl	$__ZTV9ColaVacia+8, %edx
 855      00
 856 000e 8B45F4   		movl	-12(%ebp), %eax
 857 0011 8910     		movl	%edx, (%eax)
GAS LISTING C:\Users\USER\AppData\Local\Temp\ccxBfeO7.s 			page 27


 858 0013 8B45F4   		movl	-12(%ebp), %eax
 859 0016 89C1     		movl	%eax, %ecx
 860 0018 E8000000 		call	__ZNSt9exceptionD2Ev
 860      00
 861              	LBE11:
 862 001d B8000000 		movl	$0, %eax
 862      00
 863 0022 85C0     		testl	%eax, %eax
 864 0024 740B     		je	L46
 172:C:/Caleb/FIUNA/4to Semestre/POO/C++/EjercicioSumativoUn11/EjUn11\main.cpp **** {
 865              		.loc 2 172 0 is_stmt 0 discriminator 2
 866 0026 8B45F4   		movl	-12(%ebp), %eax
 867 0029 890424   		movl	%eax, (%esp)
 868 002c E8000000 		call	__ZdlPv
 868      00
 869              	L46:
 172:C:/Caleb/FIUNA/4to Semestre/POO/C++/EjercicioSumativoUn11/EjUn11\main.cpp **** {
 870              		.loc 2 172 0
 871 0031 C9       		leave
 872              		.cfi_restore 5
 873              		.cfi_def_cfa 4, 4
 874 0032 C3       		ret
 875              		.cfi_endproc
 876              	LFE1045:
 877 0033 90       		.section	.text$_ZN9ColaVaciaD0Ev,"x"
 878              		.linkonce discard
 879              		.align 2
 880              		.globl	__ZN9ColaVaciaD0Ev
 882              	__ZN9ColaVaciaD0Ev:
 883              	LFB1046:
 172:C:/Caleb/FIUNA/4to Semestre/POO/C++/EjercicioSumativoUn11/EjUn11\main.cpp **** {
 884              		.loc 2 172 0 is_stmt 1
 885              		.cfi_startproc
 886 0000 55       		pushl	%ebp
 887              		.cfi_def_cfa_offset 8
 888              		.cfi_offset 5, -8
 889 0001 89E5     		movl	%esp, %ebp
 890              		.cfi_def_cfa_register 5
 891 0003 83EC28   		subl	$40, %esp
 892 0006 894DF4   		movl	%ecx, -12(%ebp)
 172:C:/Caleb/FIUNA/4to Semestre/POO/C++/EjercicioSumativoUn11/EjUn11\main.cpp **** {
 893              		.loc 2 172 0
 894 0009 8B45F4   		movl	-12(%ebp), %eax
 895 000c 89C1     		movl	%eax, %ecx
 896 000e E8000000 		call	__ZN9ColaVaciaD1Ev
 896      00
 897 0013 8B45F4   		movl	-12(%ebp), %eax
 898 0016 890424   		movl	%eax, (%esp)
 899 0019 E8000000 		call	__ZdlPv
 899      00
 900 001e C9       		leave
 901              		.cfi_restore 5
 902              		.cfi_def_cfa 4, 4
 903 001f C3       		ret
 904              		.cfi_endproc
 905              	LFE1046:
 906              		.section	.text$_ZN4ColaIcE8eliminarEv,"x"
GAS LISTING C:\Users\USER\AppData\Local\Temp\ccxBfeO7.s 			page 28


 907              		.linkonce discard
 908              		.align 2
 909              		.globl	__ZN4ColaIcE8eliminarEv
 911              	__ZN4ColaIcE8eliminarEv:
 912              	LFB1039:
 227:C:/Caleb/FIUNA/4to Semestre/POO/C++/EjercicioSumativoUn11/EjUn11\main.cpp ****     {
 913              		.loc 2 227 0
 914              		.cfi_startproc
 915              		.cfi_personality 0,___gxx_personality_sj0
 916              		.cfi_lsda 0,LLSDA1039
 917 0000 55       		pushl	%ebp
 918              		.cfi_def_cfa_offset 8
 919              		.cfi_offset 5, -8
 920 0001 89E5     		movl	%esp, %ebp
 921              		.cfi_def_cfa_register 5
 922 0003 57       		pushl	%edi
 923 0004 56       		pushl	%esi
 924 0005 53       		pushl	%ebx
 925 0006 83EC6C   		subl	$108, %esp
 926              		.cfi_offset 7, -12
 927              		.cfi_offset 6, -16
 928              		.cfi_offset 3, -20
 929 0009 894DD4   		movl	%ecx, -44(%ebp)
 930 000c C745B800 		movl	$___gxx_personality_sj0, -72(%ebp)
 930      000000
 931 0013 C745BC18 		movl	$LLSDA1039, -68(%ebp)
 931      000000
 932 001a 8D45C0   		leal	-64(%ebp), %eax
 933 001d 8D5DE8   		leal	-24(%ebp), %ebx
 934 0020 8918     		movl	%ebx, (%eax)
 935 0022 BAB40000 		movl	$L54, %edx
 935      00
 936 0027 895004   		movl	%edx, 4(%eax)
 937 002a 896008   		movl	%esp, 8(%eax)
 938 002d 8D45A0   		leal	-96(%ebp), %eax
 939 0030 890424   		movl	%eax, (%esp)
 940 0033 E8000000 		call	__Unwind_SjLj_Register
 940      00
 941              	LBB12:
 229:C:/Caleb/FIUNA/4to Semestre/POO/C++/EjercicioSumativoUn11/EjUn11\main.cpp ****         {
 942              		.loc 2 229 0
 943 0038 8B45D4   		movl	-44(%ebp), %eax
 944 003b 8B400C   		movl	12(%eax), %eax
 945 003e 85C0     		testl	%eax, %eax
 946 0040 7E34     		jle	L50
 947              	LBB13:
 231:C:/Caleb/FIUNA/4to Semestre/POO/C++/EjercicioSumativoUn11/EjUn11\main.cpp ****             frente = frente->siguiente;
 948              		.loc 2 231 0
 949 0042 8B45D4   		movl	-44(%ebp), %eax
 950 0045 8B4004   		movl	4(%eax), %eax
 951 0048 0FB64004 		movzbl	4(%eax), %eax
 952 004c 8845E7   		movb	%al, -25(%ebp)
 232:C:/Caleb/FIUNA/4to Semestre/POO/C++/EjercicioSumativoUn11/EjUn11\main.cpp ****             tamanho--;
 953              		.loc 2 232 0
 954 004f 8B45D4   		movl	-44(%ebp), %eax
 955 0052 8B4004   		movl	4(%eax), %eax
 956 0055 8B5008   		movl	8(%eax), %edx
GAS LISTING C:\Users\USER\AppData\Local\Temp\ccxBfeO7.s 			page 29


 957 0058 8B45D4   		movl	-44(%ebp), %eax
 958 005b 895004   		movl	%edx, 4(%eax)
 233:C:/Caleb/FIUNA/4to Semestre/POO/C++/EjercicioSumativoUn11/EjUn11\main.cpp ****             return aux;
 959              		.loc 2 233 0
 960 005e 8B45D4   		movl	-44(%ebp), %eax
 961 0061 8B400C   		movl	12(%eax), %eax
 962 0064 8D50FF   		leal	-1(%eax), %edx
 963 0067 8B45D4   		movl	-44(%ebp), %eax
 964 006a 89500C   		movl	%edx, 12(%eax)
 234:C:/Caleb/FIUNA/4to Semestre/POO/C++/EjercicioSumativoUn11/EjUn11\main.cpp ****         } else
 965              		.loc 2 234 0
 966 006d 0FB645E7 		movzbl	-25(%ebp), %eax
 967 0071 88459C   		movb	%al, -100(%ebp)
 968 0074 EB6A     		jmp	L56
 969              	L50:
 970              	LBE13:
 237:C:/Caleb/FIUNA/4to Semestre/POO/C++/EjercicioSumativoUn11/EjUn11\main.cpp ****         }
 971              		.loc 2 237 0
 972 0076 C7042404 		movl	$4, (%esp)
 972      000000
 973 007d E8000000 		call	___cxa_allocate_exception
 973      00
 974 0082 C7000000 		movl	$0, (%eax)
 974      0000
 975 0088 89459C   		movl	%eax, -100(%ebp)
 976 008b 89C1     		movl	%eax, %ecx
 977 008d E8000000 		call	__ZN9ColaVaciaC1Ev
 977      00
 978 0092 C7442408 		movl	$__ZN9ColaVaciaD1Ev, 8(%esp)
 978      00000000 
 979 009a C7442404 		movl	$__ZTI9ColaVacia, 4(%esp)
 979      00000000 
 980 00a2 8B459C   		movl	-100(%ebp), %eax
 981 00a5 890424   		movl	%eax, (%esp)
 982 00a8 C745A401 		movl	$1, -92(%ebp)
 982      000000
 983 00af E8000000 		call	___cxa_throw
 983      00
 984              	L54:
 985 00b4 8D6D18   		leal	24(%ebp), %ebp
 986 00b7 8B45A8   		movl	-88(%ebp), %eax
 987 00ba 8B55AC   		movl	-84(%ebp), %edx
 988 00bd 83FAFF   		cmpl	$-1, %edx
 989 00c0 740F     		je	L53
 990 00c2 890424   		movl	%eax, (%esp)
 991 00c5 C745A4FF 		movl	$-1, -92(%ebp)
 991      FFFFFF
 992 00cc E8000000 		call	__Unwind_SjLj_Resume
 992      00
 993              	L53:
 994              	LBE12:
 227:C:/Caleb/FIUNA/4to Semestre/POO/C++/EjercicioSumativoUn11/EjUn11\main.cpp ****     {
 995              		.loc 2 227 0
 996 00d1 890424   		movl	%eax, (%esp)
 997 00d4 C745A4FF 		movl	$-1, -92(%ebp)
 997      FFFFFF
 998 00db E8000000 		call	___cxa_call_unexpected
GAS LISTING C:\Users\USER\AppData\Local\Temp\ccxBfeO7.s 			page 30


 998      00
 999              	L56:
 1000 00e0 8D45A0   		leal	-96(%ebp), %eax
 1001 00e3 890424   		movl	%eax, (%esp)
 1002 00e6 E8000000 		call	__Unwind_SjLj_Unregister
 1002      00
 239:C:/Caleb/FIUNA/4to Semestre/POO/C++/EjercicioSumativoUn11/EjUn11\main.cpp ****     T2 ver() const throw(ColaVacia)
 1003              		.loc 2 239 0
 1004 00eb 0FB6459C 		movzbl	-100(%ebp), %eax
 1005 00ef 83C46C   		addl	$108, %esp
 1006 00f2 5B       		popl	%ebx
 1007              		.cfi_restore 3
 1008 00f3 5E       		popl	%esi
 1009              		.cfi_restore 6
 1010 00f4 5F       		popl	%edi
 1011              		.cfi_restore 7
 1012 00f5 5D       		popl	%ebp
 1013              		.cfi_restore 5
 1014              		.cfi_def_cfa 4, 4
 1015 00f6 C3       		ret
 1016              		.cfi_endproc
 1017              	LFE1039:
 1018              		.section	.gcc_except_table,"w"
 1019              		.align 4
 1020              	LLSDA1039:
 1021 0018 FF       		.byte	0xff
 1022 0019 00       		.byte	0
 1023 001a 0D       		.uleb128 LLSDATT1039-LLSDATTD1039
 1024              	LLSDATTD1039:
 1025 001b 01       		.byte	0x1
 1026 001c 02       		.uleb128 LLSDACSE1039-LLSDACSB1039
 1027              	LLSDACSB1039:
 1028 001d 00       		.uleb128 0
 1029 001e 01       		.uleb128 0x1
 1030              	LLSDACSE1039:
 1031 001f 7F       		.byte	0x7f
 1032 0020 00       		.byte	0
 1033 0021 000000   		.align 4
 1034 0024 00000000 		.long	__ZTI9ColaVacia
 1035              	LLSDATT1039:
 1036 0028 01       		.byte	0x1
 1037 0029 00       		.byte	0
 1038              		.section	.text$_ZN4ColaIcE8eliminarEv,"x"
 1039              		.linkonce discard
 1040 00f7 90       		.section	.text$_ZN4ColaIcE7agregarEc,"x"
 1041              		.linkonce discard
 1042              		.align 2
 1043              		.globl	__ZN4ColaIcE7agregarEc
 1045              	__ZN4ColaIcE7agregarEc:
 1046              	LFB1054:
 213:C:/Caleb/FIUNA/4to Semestre/POO/C++/EjercicioSumativoUn11/EjUn11\main.cpp ****     {
 1047              		.loc 2 213 0
 1048              		.cfi_startproc
 1049 0000 55       		pushl	%ebp
 1050              		.cfi_def_cfa_offset 8
 1051              		.cfi_offset 5, -8
 1052 0001 89E5     		movl	%esp, %ebp
GAS LISTING C:\Users\USER\AppData\Local\Temp\ccxBfeO7.s 			page 31


 1053              		.cfi_def_cfa_register 5
 1054 0003 53       		pushl	%ebx
 1055 0004 83EC34   		subl	$52, %esp
 1056              		.cfi_offset 3, -12
 1057 0007 894DE4   		movl	%ecx, -28(%ebp)
 1058 000a 8B4508   		movl	8(%ebp), %eax
 1059 000d 8845E0   		movb	%al, -32(%ebp)
 215:C:/Caleb/FIUNA/4to Semestre/POO/C++/EjercicioSumativoUn11/EjUn11\main.cpp ****         if(tamanho == 0)
 1060              		.loc 2 215 0
 1061 0010 C704240C 		movl	$12, (%esp)
 1061      000000
 1062 0017 E8000000 		call	__Znwj
 1062      00
 1063 001c 89C3     		movl	%eax, %ebx
 1064 001e 0FBE45E0 		movsbl	-32(%ebp), %eax
 1065 0022 890424   		movl	%eax, (%esp)
 1066 0025 89D9     		movl	%ebx, %ecx
 1067 0027 E8000000 		call	__ZN4NodoIcEC1Ec
 1067      00
 1068 002c 83EC04   		subl	$4, %esp
 1069 002f 895DF4   		movl	%ebx, -12(%ebp)
 216:C:/Caleb/FIUNA/4to Semestre/POO/C++/EjercicioSumativoUn11/EjUn11\main.cpp ****         {
 1070              		.loc 2 216 0
 1071 0032 8B45E4   		movl	-28(%ebp), %eax
 1072 0035 8B400C   		movl	12(%eax), %eax
 1073 0038 85C0     		testl	%eax, %eax
 1074 003a 7514     		jne	L58
 218:C:/Caleb/FIUNA/4to Semestre/POO/C++/EjercicioSumativoUn11/EjUn11\main.cpp ****             ultimo = n;
 1075              		.loc 2 218 0
 1076 003c 8B45E4   		movl	-28(%ebp), %eax
 1077 003f 8B55F4   		movl	-12(%ebp), %edx
 1078 0042 895004   		movl	%edx, 4(%eax)
 219:C:/Caleb/FIUNA/4to Semestre/POO/C++/EjercicioSumativoUn11/EjUn11\main.cpp ****         } else
 1079              		.loc 2 219 0
 1080 0045 8B45E4   		movl	-28(%ebp), %eax
 1081 0048 8B55F4   		movl	-12(%ebp), %edx
 1082 004b 895008   		movl	%edx, 8(%eax)
 1083 004e EB15     		jmp	L59
 1084              	L58:
 222:C:/Caleb/FIUNA/4to Semestre/POO/C++/EjercicioSumativoUn11/EjUn11\main.cpp ****             ultimo = n;
 1085              		.loc 2 222 0
 1086 0050 8B45E4   		movl	-28(%ebp), %eax
 1087 0053 8B4008   		movl	8(%eax), %eax
 1088 0056 8B55F4   		movl	-12(%ebp), %edx
 1089 0059 895008   		movl	%edx, 8(%eax)
 223:C:/Caleb/FIUNA/4to Semestre/POO/C++/EjercicioSumativoUn11/EjUn11\main.cpp ****         }
 1090              		.loc 2 223 0
 1091 005c 8B45E4   		movl	-28(%ebp), %eax
 1092 005f 8B55F4   		movl	-12(%ebp), %edx
 1093 0062 895008   		movl	%edx, 8(%eax)
 1094              	L59:
 225:C:/Caleb/FIUNA/4to Semestre/POO/C++/EjercicioSumativoUn11/EjUn11\main.cpp ****     }
 1095              		.loc 2 225 0
 1096 0065 8B45E4   		movl	-28(%ebp), %eax
 1097 0068 8B400C   		movl	12(%eax), %eax
 1098 006b 8D5001   		leal	1(%eax), %edx
 1099 006e 8B45E4   		movl	-28(%ebp), %eax
GAS LISTING C:\Users\USER\AppData\Local\Temp\ccxBfeO7.s 			page 32


 1100 0071 89500C   		movl	%edx, 12(%eax)
 226:C:/Caleb/FIUNA/4to Semestre/POO/C++/EjercicioSumativoUn11/EjUn11\main.cpp ****     T2 eliminar() throw(ColaVacia)
 1101              		.loc 2 226 0
 1102 0074 90       		nop
 1103 0075 8B5DFC   		movl	-4(%ebp), %ebx
 1104 0078 C9       		leave
 1105              		.cfi_restore 5
 1106              		.cfi_restore 3
 1107              		.cfi_def_cfa 4, 4
 1108 0079 C20400   		ret	$4
 1109              		.cfi_endproc
 1110              	LFE1054:
 1111              		.section	.text$_ZN4ColaIcE6buscarEc,"x"
 1112              		.linkonce discard
 1113              		.align 2
 1114              		.globl	__ZN4ColaIcE6buscarEc
 1116              	__ZN4ColaIcE6buscarEc:
 1117              	LFB1055:
 250:C:/Caleb/FIUNA/4to Semestre/POO/C++/EjercicioSumativoUn11/EjUn11\main.cpp ****     {
 1118              		.loc 2 250 0
 1119              		.cfi_startproc
 1120 0000 55       		pushl	%ebp
 1121              		.cfi_def_cfa_offset 8
 1122              		.cfi_offset 5, -8
 1123 0001 89E5     		movl	%esp, %ebp
 1124              		.cfi_def_cfa_register 5
 1125 0003 83EC18   		subl	$24, %esp
 1126 0006 894DEC   		movl	%ecx, -20(%ebp)
 1127 0009 8B4508   		movl	8(%ebp), %eax
 1128 000c 8845E8   		movb	%al, -24(%ebp)
 252:C:/Caleb/FIUNA/4to Semestre/POO/C++/EjercicioSumativoUn11/EjUn11\main.cpp ****         Nodo<T2>* aux = frente;
 1129              		.loc 2 252 0
 1130 000f C745FC00 		movl	$0, -4(%ebp)
 1130      000000
 253:C:/Caleb/FIUNA/4to Semestre/POO/C++/EjercicioSumativoUn11/EjUn11\main.cpp ****         for(;i<tamanho;i++)
 1131              		.loc 2 253 0
 1132 0016 8B45EC   		movl	-20(%ebp), %eax
 1133 0019 8B4004   		movl	4(%eax), %eax
 1134 001c 8945F8   		movl	%eax, -8(%ebp)
 1135              	L64:
 254:C:/Caleb/FIUNA/4to Semestre/POO/C++/EjercicioSumativoUn11/EjUn11\main.cpp ****         {
 1136              		.loc 2 254 0 discriminator 1
 1137 001f 8B45EC   		movl	-20(%ebp), %eax
 1138 0022 8B400C   		movl	12(%eax), %eax
 1139 0025 3B45FC   		cmpl	-4(%ebp), %eax
 1140 0028 7E23     		jle	L61
 256:C:/Caleb/FIUNA/4to Semestre/POO/C++/EjercicioSumativoUn11/EjUn11\main.cpp ****             {
 1141              		.loc 2 256 0
 1142 002a 8B45F8   		movl	-8(%ebp), %eax
 1143 002d 0FB64004 		movzbl	4(%eax), %eax
 1144 0031 3A45E8   		cmpb	-24(%ebp), %al
 1145 0034 7508     		jne	L62
 258:C:/Caleb/FIUNA/4to Semestre/POO/C++/EjercicioSumativoUn11/EjUn11\main.cpp ****             } else
 1146              		.loc 2 258 0
 1147 0036 8B45FC   		movl	-4(%ebp), %eax
 1148 0039 83C001   		addl	$1, %eax
 1149 003c EB14     		jmp	L63
GAS LISTING C:\Users\USER\AppData\Local\Temp\ccxBfeO7.s 			page 33


 1150              	L62:
 261:C:/Caleb/FIUNA/4to Semestre/POO/C++/EjercicioSumativoUn11/EjUn11\main.cpp ****             }
 1151              		.loc 2 261 0
 1152 003e 8B45F8   		movl	-8(%ebp), %eax
 1153 0041 8B4008   		movl	8(%eax), %eax
 1154 0044 8945F8   		movl	%eax, -8(%ebp)
 254:C:/Caleb/FIUNA/4to Semestre/POO/C++/EjercicioSumativoUn11/EjUn11\main.cpp ****         {
 1155              		.loc 2 254 0
 1156 0047 8345FC01 		addl	$1, -4(%ebp)
 1157 004b EBD2     		jmp	L64
 1158              	L61:
 264:C:/Caleb/FIUNA/4to Semestre/POO/C++/EjercicioSumativoUn11/EjUn11\main.cpp ****     }
 1159              		.loc 2 264 0
 1160 004d B8000000 		movl	$0, %eax
 1160      00
 1161              	L63:
 265:C:/Caleb/FIUNA/4to Semestre/POO/C++/EjercicioSumativoUn11/EjUn11\main.cpp ****     int getLongitud() const
 1162              		.loc 2 265 0
 1163 0052 C9       		leave
 1164              		.cfi_restore 5
 1165              		.cfi_def_cfa 4, 4
 1166 0053 C20400   		ret	$4
 1167              		.cfi_endproc
 1168              	LFE1055:
 1169 0056 9090     		.section	.text$_ZNK4ColaIcE3verEv,"x"
 1170              		.linkonce discard
 1171              		.align 2
 1172              		.globl	__ZNK4ColaIcE3verEv
 1174              	__ZNK4ColaIcE3verEv:
 1175              	LFB1056:
 240:C:/Caleb/FIUNA/4to Semestre/POO/C++/EjercicioSumativoUn11/EjUn11\main.cpp ****     {
 1176              		.loc 2 240 0
 1177              		.cfi_startproc
 1178              		.cfi_personality 0,___gxx_personality_sj0
 1179              		.cfi_lsda 0,LLSDA1056
 1180 0000 55       		pushl	%ebp
 1181              		.cfi_def_cfa_offset 8
 1182              		.cfi_offset 5, -8
 1183 0001 89E5     		movl	%esp, %ebp
 1184              		.cfi_def_cfa_register 5
 1185 0003 57       		pushl	%edi
 1186 0004 56       		pushl	%esi
 1187 0005 53       		pushl	%ebx
 1188 0006 83EC5C   		subl	$92, %esp
 1189              		.cfi_offset 7, -12
 1190              		.cfi_offset 6, -16
 1191              		.cfi_offset 3, -20
 1192 0009 894DE4   		movl	%ecx, -28(%ebp)
 1193 000c C745C800 		movl	$___gxx_personality_sj0, -56(%ebp)
 1193      000000
 1194 0013 C745CC2C 		movl	$LLSDA1056, -52(%ebp)
 1194      000000
 1195 001a 8D45D0   		leal	-48(%ebp), %eax
 1196 001d 8D5DE8   		leal	-24(%ebp), %ebx
 1197 0020 8918     		movl	%ebx, (%eax)
 1198 0022 BA8F0000 		movl	$L70, %edx
 1198      00
GAS LISTING C:\Users\USER\AppData\Local\Temp\ccxBfeO7.s 			page 34


 1199 0027 895004   		movl	%edx, 4(%eax)
 1200 002a 896008   		movl	%esp, 8(%eax)
 1201 002d 8D45B0   		leal	-80(%ebp), %eax
 1202 0030 890424   		movl	%eax, (%esp)
 1203 0033 E8000000 		call	__Unwind_SjLj_Register
 1203      00
 242:C:/Caleb/FIUNA/4to Semestre/POO/C++/EjercicioSumativoUn11/EjUn11\main.cpp ****         {
 1204              		.loc 2 242 0
 1205 0038 8B45E4   		movl	-28(%ebp), %eax
 1206 003b 8B400C   		movl	12(%eax), %eax
 1207 003e 85C0     		testl	%eax, %eax
 1208 0040 7E0F     		jle	L66
 244:C:/Caleb/FIUNA/4to Semestre/POO/C++/EjercicioSumativoUn11/EjUn11\main.cpp ****         } else
 1209              		.loc 2 244 0
 1210 0042 8B45E4   		movl	-28(%ebp), %eax
 1211 0045 8B4004   		movl	4(%eax), %eax
 1212 0048 0FB64004 		movzbl	4(%eax), %eax
 1213 004c 8845AC   		movb	%al, -84(%ebp)
 1214 004f EB6A     		jmp	L72
 1215              	L66:
 247:C:/Caleb/FIUNA/4to Semestre/POO/C++/EjercicioSumativoUn11/EjUn11\main.cpp ****         }
 1216              		.loc 2 247 0
 1217 0051 C7042404 		movl	$4, (%esp)
 1217      000000
 1218 0058 E8000000 		call	___cxa_allocate_exception
 1218      00
 1219 005d C7000000 		movl	$0, (%eax)
 1219      0000
 1220 0063 8945AC   		movl	%eax, -84(%ebp)
 1221 0066 89C1     		movl	%eax, %ecx
 1222 0068 E8000000 		call	__ZN9ColaVaciaC1Ev
 1222      00
 1223 006d C7442408 		movl	$__ZN9ColaVaciaD1Ev, 8(%esp)
 1223      00000000 
 1224 0075 C7442404 		movl	$__ZTI9ColaVacia, 4(%esp)
 1224      00000000 
 1225 007d 8B45AC   		movl	-84(%ebp), %eax
 1226 0080 890424   		movl	%eax, (%esp)
 1227 0083 C745B401 		movl	$1, -76(%ebp)
 1227      000000
 1228 008a E8000000 		call	___cxa_throw
 1228      00
 1229              	L70:
 1230 008f 8D6D18   		leal	24(%ebp), %ebp
 1231 0092 8B45B8   		movl	-72(%ebp), %eax
 1232 0095 8B55BC   		movl	-68(%ebp), %edx
 1233 0098 83FAFF   		cmpl	$-1, %edx
 1234 009b 740F     		je	L69
 1235 009d 890424   		movl	%eax, (%esp)
 1236 00a0 C745B4FF 		movl	$-1, -76(%ebp)
 1236      FFFFFF
 1237 00a7 E8000000 		call	__Unwind_SjLj_Resume
 1237      00
 1238              	L69:
 240:C:/Caleb/FIUNA/4to Semestre/POO/C++/EjercicioSumativoUn11/EjUn11\main.cpp ****     {
 1239              		.loc 2 240 0
 1240 00ac 890424   		movl	%eax, (%esp)
GAS LISTING C:\Users\USER\AppData\Local\Temp\ccxBfeO7.s 			page 35


 1241 00af C745B4FF 		movl	$-1, -76(%ebp)
 1241      FFFFFF
 1242 00b6 E8000000 		call	___cxa_call_unexpected
 1242      00
 1243              	L72:
 1244 00bb 8D45B0   		leal	-80(%ebp), %eax
 1245 00be 890424   		movl	%eax, (%esp)
 1246 00c1 E8000000 		call	__Unwind_SjLj_Unregister
 1246      00
 249:C:/Caleb/FIUNA/4to Semestre/POO/C++/EjercicioSumativoUn11/EjUn11\main.cpp ****     int buscar (T2 dato)
 1247              		.loc 2 249 0
 1248 00c6 0FB645AC 		movzbl	-84(%ebp), %eax
 1249 00ca 83C45C   		addl	$92, %esp
 1250 00cd 5B       		popl	%ebx
 1251              		.cfi_restore 3
 1252 00ce 5E       		popl	%esi
 1253              		.cfi_restore 6
 1254 00cf 5F       		popl	%edi
 1255              		.cfi_restore 7
 1256 00d0 5D       		popl	%ebp
 1257              		.cfi_restore 5
 1258              		.cfi_def_cfa 4, 4
 1259 00d1 C3       		ret
 1260              		.cfi_endproc
 1261              	LFE1056:
 1262              		.section	.gcc_except_table,"w"
 1263 002a 0000     		.align 4
 1264              	LLSDA1056:
 1265 002c FF       		.byte	0xff
 1266 002d 00       		.byte	0
 1267 002e 0D       		.uleb128 LLSDATT1056-LLSDATTD1056
 1268              	LLSDATTD1056:
 1269 002f 01       		.byte	0x1
 1270 0030 02       		.uleb128 LLSDACSE1056-LLSDACSB1056
 1271              	LLSDACSB1056:
 1272 0031 00       		.uleb128 0
 1273 0032 01       		.uleb128 0x1
 1274              	LLSDACSE1056:
 1275 0033 7F       		.byte	0x7f
 1276 0034 00       		.byte	0
 1277 0035 000000   		.align 4
 1278 0038 00000000 		.long	__ZTI9ColaVacia
 1279              	LLSDATT1056:
 1280 003c 01       		.byte	0x1
 1281 003d 00       		.byte	0
 1282 003e 0000     		.section	.text$_ZNK4ColaIcE3verEv,"x"
 1283              		.linkonce discard
 1284 00d2 9090     		.section	.text$_ZN4NodoIcEC1Ec,"x"
 1285              		.linkonce discard
 1286              		.align 2
 1287              		.globl	__ZN4NodoIcEC1Ec
 1289              	__ZN4NodoIcEC1Ec:
 1290              	LFB1062:
 189:C:/Caleb/FIUNA/4to Semestre/POO/C++/EjercicioSumativoUn11/EjUn11\main.cpp ****   {
 1291              		.loc 2 189 0
 1292              		.cfi_startproc
 1293 0000 55       		pushl	%ebp
GAS LISTING C:\Users\USER\AppData\Local\Temp\ccxBfeO7.s 			page 36


 1294              		.cfi_def_cfa_offset 8
 1295              		.cfi_offset 5, -8
 1296 0001 89E5     		movl	%esp, %ebp
 1297              		.cfi_def_cfa_register 5
 1298 0003 83EC08   		subl	$8, %esp
 1299 0006 894DFC   		movl	%ecx, -4(%ebp)
 1300 0009 8B4508   		movl	8(%ebp), %eax
 1301 000c 8845F8   		movb	%al, -8(%ebp)
 1302              	LBB14:
 190:C:/Caleb/FIUNA/4to Semestre/POO/C++/EjercicioSumativoUn11/EjUn11\main.cpp ****       dato = _dato;
 1303              		.loc 2 190 0
 1304 000f BA080000 		movl	$__ZTV4NodoIcE+8, %edx
 1304      00
 1305 0014 8B45FC   		movl	-4(%ebp), %eax
 1306 0017 8910     		movl	%edx, (%eax)
 191:C:/Caleb/FIUNA/4to Semestre/POO/C++/EjercicioSumativoUn11/EjUn11\main.cpp ****       siguiente = 0;
 1307              		.loc 2 191 0
 1308 0019 8B45FC   		movl	-4(%ebp), %eax
 1309 001c 0FB655F8 		movzbl	-8(%ebp), %edx
 1310 0020 885004   		movb	%dl, 4(%eax)
 192:C:/Caleb/FIUNA/4to Semestre/POO/C++/EjercicioSumativoUn11/EjUn11\main.cpp ****   }
 1311              		.loc 2 192 0
 1312 0023 8B45FC   		movl	-4(%ebp), %eax
 1313 0026 C7400800 		movl	$0, 8(%eax)
 1313      000000
 1314              	LBE14:
 193:C:/Caleb/FIUNA/4to Semestre/POO/C++/EjercicioSumativoUn11/EjUn11\main.cpp ****   virtual ~Nodo(){}
 1315              		.loc 2 193 0
 1316 002d 90       		nop
 1317 002e C9       		leave
 1318              		.cfi_restore 5
 1319              		.cfi_def_cfa 4, 4
 1320 002f C20400   		ret	$4
 1321              		.cfi_endproc
 1322              	LFE1062:
 1323              		.globl	__ZTV4NodoIcE
 1324 0032 9090     		.section	.rdata$_ZTV4NodoIcE,"dr"
 1325              		.linkonce same_size
 1326              		.align 4
 1327              	__ZTV4NodoIcE:
 1328 0000 00000000 		.long	0
 1329 0004 00000000 		.long	__ZTI4NodoIcE
 1330 0008 00000000 		.long	__ZN4NodoIcED1Ev
 1331 000c 00000000 		.long	__ZN4NodoIcED0Ev
 1332              		.globl	__ZTV4ColaIcE
 1333              		.section	.rdata$_ZTV4ColaIcE,"dr"
 1334              		.linkonce same_size
 1335              		.align 4
 1336              	__ZTV4ColaIcE:
 1337 0000 00000000 		.long	0
 1338 0004 00000000 		.long	__ZTI4ColaIcE
 1339 0008 00000000 		.long	__ZN4ColaIcED1Ev
 1340 000c 00000000 		.long	__ZN4ColaIcED0Ev
 1341              		.globl	__ZTV9ColaVacia
 1342              		.section	.rdata$_ZTV9ColaVacia,"dr"
 1343              		.linkonce same_size
 1344              		.align 4
GAS LISTING C:\Users\USER\AppData\Local\Temp\ccxBfeO7.s 			page 37


 1345              	__ZTV9ColaVacia:
 1346 0000 00000000 		.long	0
 1347 0004 00000000 		.long	__ZTI9ColaVacia
 1348 0008 00000000 		.long	__ZN9ColaVaciaD1Ev
 1349 000c 00000000 		.long	__ZN9ColaVaciaD0Ev
 1350 0010 00000000 		.long	__ZNK9ColaVacia4whatEv
 1351              		.globl	__ZTI4NodoIcE
 1352              		.section	.rdata$_ZTI4NodoIcE,"dr"
 1353              		.linkonce same_size
 1354              		.align 4
 1355              	__ZTI4NodoIcE:
 1356 0000 08000000 		.long	__ZTVN10__cxxabiv117__class_type_infoE+8
 1357 0004 00000000 		.long	__ZTS4NodoIcE
 1358              		.globl	__ZTS4NodoIcE
 1359              		.section	.rdata$_ZTS4NodoIcE,"dr"
 1360              		.linkonce same_size
 1361              		.align 4
 1362              	__ZTS4NodoIcE:
 1363 0000 344E6F64 		.ascii "4NodoIcE\0"
 1363      6F496345 
 1363      00
 1364              		.globl	__ZTI4ColaIcE
 1365 0009 000000   		.section	.rdata$_ZTI4ColaIcE,"dr"
 1366              		.linkonce same_size
 1367              		.align 4
 1368              	__ZTI4ColaIcE:
 1369 0000 08000000 		.long	__ZTVN10__cxxabiv117__class_type_infoE+8
 1370 0004 00000000 		.long	__ZTS4ColaIcE
 1371              		.globl	__ZTS4ColaIcE
 1372              		.section	.rdata$_ZTS4ColaIcE,"dr"
 1373              		.linkonce same_size
 1374              		.align 4
 1375              	__ZTS4ColaIcE:
 1376 0000 34436F6C 		.ascii "4ColaIcE\0"
 1376      61496345 
 1376      00
 1377              		.globl	__ZTI9ColaVacia
 1378 0009 000000   		.section	.rdata$_ZTI9ColaVacia,"dr"
 1379              		.linkonce same_size
 1380              		.align 4
 1381              	__ZTI9ColaVacia:
 1382 0000 08000000 		.long	__ZTVN10__cxxabiv120__si_class_type_infoE+8
 1383 0004 00000000 		.long	__ZTS9ColaVacia
 1384 0008 00000000 		.long	__ZTISt9exception
 1385              		.globl	__ZTS9ColaVacia
 1386              		.section	.rdata$_ZTS9ColaVacia,"dr"
 1387              		.linkonce same_size
 1388              		.align 4
 1389              	__ZTS9ColaVacia:
 1390 0000 39436F6C 		.ascii "9ColaVacia\0"
 1390      61566163 
 1390      696100
 1391              		.globl	__ZTISt9exception
 1392 000b 00       		.section	.rdata$_ZTISt9exception,"dr"
 1393              		.linkonce same_size
 1394              		.align 4
 1395              	__ZTISt9exception:
GAS LISTING C:\Users\USER\AppData\Local\Temp\ccxBfeO7.s 			page 38


 1396 0000 08000000 		.long	__ZTVN10__cxxabiv117__class_type_infoE+8
 1397 0004 00000000 		.long	__ZTSSt9exception
 1398              		.globl	__ZTSSt9exception
 1399              		.section	.rdata$_ZTSSt9exception,"dr"
 1400              		.linkonce same_size
 1401              		.align 4
 1402              	__ZTSSt9exception:
 1403 0000 53743965 		.ascii "St9exception\0"
 1403      78636570 
 1403      74696F6E 
 1403      00
 1404 000d 000000   		.text
 1406              	___tcf_0:
 1407              	LFB1066:
 1408              		.file 3 "C:/TDM-GCC-32/lib/gcc/mingw32/5.1.0/include/c++/iostream"
   1:C:/TDM-GCC-32/lib/gcc/mingw32/5.1.0/include/c++\iostream **** // Standard iostream objects -*- C++ -*-
   2:C:/TDM-GCC-32/lib/gcc/mingw32/5.1.0/include/c++\iostream **** 
   3:C:/TDM-GCC-32/lib/gcc/mingw32/5.1.0/include/c++\iostream **** // Copyright (C) 1997-2015 Free Software Foundation, Inc.
   4:C:/TDM-GCC-32/lib/gcc/mingw32/5.1.0/include/c++\iostream **** //
   5:C:/TDM-GCC-32/lib/gcc/mingw32/5.1.0/include/c++\iostream **** // This file is part of the GNU ISO C++ Library.  This library is free
   6:C:/TDM-GCC-32/lib/gcc/mingw32/5.1.0/include/c++\iostream **** // software; you can redistribute it and/or modify it under the
   7:C:/TDM-GCC-32/lib/gcc/mingw32/5.1.0/include/c++\iostream **** // terms of the GNU General Public License as published by the
   8:C:/TDM-GCC-32/lib/gcc/mingw32/5.1.0/include/c++\iostream **** // Free Software Foundation; either version 3, or (at your option)
   9:C:/TDM-GCC-32/lib/gcc/mingw32/5.1.0/include/c++\iostream **** // any later version.
  10:C:/TDM-GCC-32/lib/gcc/mingw32/5.1.0/include/c++\iostream **** 
  11:C:/TDM-GCC-32/lib/gcc/mingw32/5.1.0/include/c++\iostream **** // This library is distributed in the hope that it will be useful,
  12:C:/TDM-GCC-32/lib/gcc/mingw32/5.1.0/include/c++\iostream **** // but WITHOUT ANY WARRANTY; without even the implied warranty of
  13:C:/TDM-GCC-32/lib/gcc/mingw32/5.1.0/include/c++\iostream **** // MERCHANTABILITY or FITNESS FOR A PARTICULAR PURPOSE.  See the
  14:C:/TDM-GCC-32/lib/gcc/mingw32/5.1.0/include/c++\iostream **** // GNU General Public License for more details.
  15:C:/TDM-GCC-32/lib/gcc/mingw32/5.1.0/include/c++\iostream **** 
  16:C:/TDM-GCC-32/lib/gcc/mingw32/5.1.0/include/c++\iostream **** // Under Section 7 of GPL version 3, you are granted additional
  17:C:/TDM-GCC-32/lib/gcc/mingw32/5.1.0/include/c++\iostream **** // permissions described in the GCC Runtime Library Exception, version
  18:C:/TDM-GCC-32/lib/gcc/mingw32/5.1.0/include/c++\iostream **** // 3.1, as published by the Free Software Foundation.
  19:C:/TDM-GCC-32/lib/gcc/mingw32/5.1.0/include/c++\iostream **** 
  20:C:/TDM-GCC-32/lib/gcc/mingw32/5.1.0/include/c++\iostream **** // You should have received a copy of the GNU General Public License and
  21:C:/TDM-GCC-32/lib/gcc/mingw32/5.1.0/include/c++\iostream **** // a copy of the GCC Runtime Library Exception along with this program;
  22:C:/TDM-GCC-32/lib/gcc/mingw32/5.1.0/include/c++\iostream **** // see the files COPYING3 and COPYING.RUNTIME respectively.  If not, see
  23:C:/TDM-GCC-32/lib/gcc/mingw32/5.1.0/include/c++\iostream **** // <http://www.gnu.org/licenses/>.
  24:C:/TDM-GCC-32/lib/gcc/mingw32/5.1.0/include/c++\iostream **** 
  25:C:/TDM-GCC-32/lib/gcc/mingw32/5.1.0/include/c++\iostream **** /** @file include/iostream
  26:C:/TDM-GCC-32/lib/gcc/mingw32/5.1.0/include/c++\iostream ****  *  This is a Standard C++ Library header.
  27:C:/TDM-GCC-32/lib/gcc/mingw32/5.1.0/include/c++\iostream ****  */
  28:C:/TDM-GCC-32/lib/gcc/mingw32/5.1.0/include/c++\iostream **** 
  29:C:/TDM-GCC-32/lib/gcc/mingw32/5.1.0/include/c++\iostream **** //
  30:C:/TDM-GCC-32/lib/gcc/mingw32/5.1.0/include/c++\iostream **** // ISO C++ 14882: 27.3  Standard iostream objects
  31:C:/TDM-GCC-32/lib/gcc/mingw32/5.1.0/include/c++\iostream **** //
  32:C:/TDM-GCC-32/lib/gcc/mingw32/5.1.0/include/c++\iostream **** 
  33:C:/TDM-GCC-32/lib/gcc/mingw32/5.1.0/include/c++\iostream **** #ifndef _GLIBCXX_IOSTREAM
  34:C:/TDM-GCC-32/lib/gcc/mingw32/5.1.0/include/c++\iostream **** #define _GLIBCXX_IOSTREAM 1
  35:C:/TDM-GCC-32/lib/gcc/mingw32/5.1.0/include/c++\iostream **** 
  36:C:/TDM-GCC-32/lib/gcc/mingw32/5.1.0/include/c++\iostream **** #pragma GCC system_header
  37:C:/TDM-GCC-32/lib/gcc/mingw32/5.1.0/include/c++\iostream **** 
  38:C:/TDM-GCC-32/lib/gcc/mingw32/5.1.0/include/c++\iostream **** #include <bits/c++config.h>
  39:C:/TDM-GCC-32/lib/gcc/mingw32/5.1.0/include/c++\iostream **** #include <ostream>
  40:C:/TDM-GCC-32/lib/gcc/mingw32/5.1.0/include/c++\iostream **** #include <istream>
  41:C:/TDM-GCC-32/lib/gcc/mingw32/5.1.0/include/c++\iostream **** 
  42:C:/TDM-GCC-32/lib/gcc/mingw32/5.1.0/include/c++\iostream **** namespace std _GLIBCXX_VISIBILITY(default)
GAS LISTING C:\Users\USER\AppData\Local\Temp\ccxBfeO7.s 			page 39


  43:C:/TDM-GCC-32/lib/gcc/mingw32/5.1.0/include/c++\iostream **** {
  44:C:/TDM-GCC-32/lib/gcc/mingw32/5.1.0/include/c++\iostream **** _GLIBCXX_BEGIN_NAMESPACE_VERSION
  45:C:/TDM-GCC-32/lib/gcc/mingw32/5.1.0/include/c++\iostream **** 
  46:C:/TDM-GCC-32/lib/gcc/mingw32/5.1.0/include/c++\iostream ****   /**
  47:C:/TDM-GCC-32/lib/gcc/mingw32/5.1.0/include/c++\iostream ****    *  @name Standard Stream Objects
  48:C:/TDM-GCC-32/lib/gcc/mingw32/5.1.0/include/c++\iostream ****    *
  49:C:/TDM-GCC-32/lib/gcc/mingw32/5.1.0/include/c++\iostream ****    *  The &lt;iostream&gt; header declares the eight <em>standard stream
  50:C:/TDM-GCC-32/lib/gcc/mingw32/5.1.0/include/c++\iostream ****    *  objects</em>.  For other declarations, see
  51:C:/TDM-GCC-32/lib/gcc/mingw32/5.1.0/include/c++\iostream ****    *  http://gcc.gnu.org/onlinedocs/libstdc++/manual/io.html
  52:C:/TDM-GCC-32/lib/gcc/mingw32/5.1.0/include/c++\iostream ****    *  and the @link iosfwd I/O forward declarations @endlink
  53:C:/TDM-GCC-32/lib/gcc/mingw32/5.1.0/include/c++\iostream ****    *
  54:C:/TDM-GCC-32/lib/gcc/mingw32/5.1.0/include/c++\iostream ****    *  They are required by default to cooperate with the global C
  55:C:/TDM-GCC-32/lib/gcc/mingw32/5.1.0/include/c++\iostream ****    *  library's @c FILE streams, and to be available during program
  56:C:/TDM-GCC-32/lib/gcc/mingw32/5.1.0/include/c++\iostream ****    *  startup and termination. For more information, see the section of the
  57:C:/TDM-GCC-32/lib/gcc/mingw32/5.1.0/include/c++\iostream ****    *  manual linked to above.
  58:C:/TDM-GCC-32/lib/gcc/mingw32/5.1.0/include/c++\iostream ****   */
  59:C:/TDM-GCC-32/lib/gcc/mingw32/5.1.0/include/c++\iostream ****   //@{
  60:C:/TDM-GCC-32/lib/gcc/mingw32/5.1.0/include/c++\iostream ****   extern istream cin;		/// Linked to standard input
  61:C:/TDM-GCC-32/lib/gcc/mingw32/5.1.0/include/c++\iostream ****   extern ostream cout;		/// Linked to standard output
  62:C:/TDM-GCC-32/lib/gcc/mingw32/5.1.0/include/c++\iostream ****   extern ostream cerr;		/// Linked to standard error (unbuffered)
  63:C:/TDM-GCC-32/lib/gcc/mingw32/5.1.0/include/c++\iostream ****   extern ostream clog;		/// Linked to standard error (buffered)
  64:C:/TDM-GCC-32/lib/gcc/mingw32/5.1.0/include/c++\iostream **** 
  65:C:/TDM-GCC-32/lib/gcc/mingw32/5.1.0/include/c++\iostream **** #ifdef _GLIBCXX_USE_WCHAR_T
  66:C:/TDM-GCC-32/lib/gcc/mingw32/5.1.0/include/c++\iostream ****   extern wistream wcin;		/// Linked to standard input
  67:C:/TDM-GCC-32/lib/gcc/mingw32/5.1.0/include/c++\iostream ****   extern wostream wcout;	/// Linked to standard output
  68:C:/TDM-GCC-32/lib/gcc/mingw32/5.1.0/include/c++\iostream ****   extern wostream wcerr;	/// Linked to standard error (unbuffered)
  69:C:/TDM-GCC-32/lib/gcc/mingw32/5.1.0/include/c++\iostream ****   extern wostream wclog;	/// Linked to standard error (buffered)
  70:C:/TDM-GCC-32/lib/gcc/mingw32/5.1.0/include/c++\iostream **** #endif
  71:C:/TDM-GCC-32/lib/gcc/mingw32/5.1.0/include/c++\iostream ****   //@}
  72:C:/TDM-GCC-32/lib/gcc/mingw32/5.1.0/include/c++\iostream **** 
  73:C:/TDM-GCC-32/lib/gcc/mingw32/5.1.0/include/c++\iostream ****   // For construction of filebuffers for cout, cin, cerr, clog et. al.
  74:C:/TDM-GCC-32/lib/gcc/mingw32/5.1.0/include/c++\iostream ****   static ios_base::Init __ioinit;
 1409              		.loc 3 74 0
 1410              		.cfi_startproc
 1411 0624 55       		pushl	%ebp
 1412              		.cfi_def_cfa_offset 8
 1413              		.cfi_offset 5, -8
 1414 0625 89E5     		movl	%esp, %ebp
 1415              		.cfi_def_cfa_register 5
 1416 0627 83EC08   		subl	$8, %esp
 1417              		.loc 3 74 0
 1418 062a B9000000 		movl	$__ZStL8__ioinit, %ecx
 1418      00
 1419 062f E8000000 		call	__ZNSt8ios_base4InitD1Ev
 1419      00
 1420 0634 C9       		leave
 1421              		.cfi_restore 5
 1422              		.cfi_def_cfa 4, 4
 1423 0635 C3       		ret
 1424              		.cfi_endproc
 1425              	LFE1066:
 1427              	__Z41__static_initialization_and_destruction_0ii:
 1428              	LFB1065:
 1429              		.loc 2 331 0
 1430              		.cfi_startproc
 1431 0636 55       		pushl	%ebp
 1432              		.cfi_def_cfa_offset 8
GAS LISTING C:\Users\USER\AppData\Local\Temp\ccxBfeO7.s 			page 40


 1433              		.cfi_offset 5, -8
 1434 0637 89E5     		movl	%esp, %ebp
 1435              		.cfi_def_cfa_register 5
 1436 0639 83EC18   		subl	$24, %esp
 1437              		.loc 2 331 0
 1438 063c 837D0801 		cmpl	$1, 8(%ebp)
 1439 0640 751F     		jne	L77
 1440              		.loc 2 331 0 is_stmt 0 discriminator 1
 1441 0642 817D0CFF 		cmpl	$65535, 12(%ebp)
 1441      FF0000
 1442 0649 7516     		jne	L77
 1443              		.loc 3 74 0 is_stmt 1
 1444 064b B9000000 		movl	$__ZStL8__ioinit, %ecx
 1444      00
 1445 0650 E8000000 		call	__ZNSt8ios_base4InitC1Ev
 1445      00
 1446 0655 C7042424 		movl	$___tcf_0, (%esp)
 1446      060000
 1447 065c E8000000 		call	_atexit
 1447      00
 1448              	L77:
 1449              		.loc 2 331 0
 1450 0661 90       		nop
 1451 0662 C9       		leave
 1452              		.cfi_restore 5
 1453              		.cfi_def_cfa 4, 4
 1454 0663 C3       		ret
 1455              		.cfi_endproc
 1456              	LFE1065:
 1457              		.section	.text$_ZN4NodoIcED1Ev,"x"
 1458              		.linkonce discard
 1459              		.align 2
 1460              		.globl	__ZN4NodoIcED1Ev
 1462              	__ZN4NodoIcED1Ev:
 1463              	LFB1069:
 194:C:/Caleb/FIUNA/4to Semestre/POO/C++/EjercicioSumativoUn11/EjUn11\main.cpp ****   template <class T2> friend class Cola;
 1464              		.loc 2 194 0
 1465              		.cfi_startproc
 1466 0000 55       		pushl	%ebp
 1467              		.cfi_def_cfa_offset 8
 1468              		.cfi_offset 5, -8
 1469 0001 89E5     		movl	%esp, %ebp
 1470              		.cfi_def_cfa_register 5
 1471 0003 83EC28   		subl	$40, %esp
 1472 0006 894DF4   		movl	%ecx, -12(%ebp)
 1473              	LBB15:
 194:C:/Caleb/FIUNA/4to Semestre/POO/C++/EjercicioSumativoUn11/EjUn11\main.cpp ****   template <class T2> friend class Cola;
 1474              		.loc 2 194 0
 1475 0009 BA080000 		movl	$__ZTV4NodoIcE+8, %edx
 1475      00
 1476 000e 8B45F4   		movl	-12(%ebp), %eax
 1477 0011 8910     		movl	%edx, (%eax)
 1478              	LBE15:
 1479 0013 B8000000 		movl	$0, %eax
 1479      00
 1480 0018 85C0     		testl	%eax, %eax
 1481 001a 740B     		je	L78
GAS LISTING C:\Users\USER\AppData\Local\Temp\ccxBfeO7.s 			page 41


 194:C:/Caleb/FIUNA/4to Semestre/POO/C++/EjercicioSumativoUn11/EjUn11\main.cpp ****   template <class T2> friend class Cola;
 1482              		.loc 2 194 0 is_stmt 0 discriminator 2
 1483 001c 8B45F4   		movl	-12(%ebp), %eax
 1484 001f 890424   		movl	%eax, (%esp)
 1485 0022 E8000000 		call	__ZdlPv
 1485      00
 1486              	L78:
 194:C:/Caleb/FIUNA/4to Semestre/POO/C++/EjercicioSumativoUn11/EjUn11\main.cpp ****   template <class T2> friend class Cola;
 1487              		.loc 2 194 0
 1488 0027 C9       		leave
 1489              		.cfi_restore 5
 1490              		.cfi_def_cfa 4, 4
 1491 0028 C3       		ret
 1492              		.cfi_endproc
 1493              	LFE1069:
 1494 0029 909090   		.section	.text$_ZN4NodoIcED0Ev,"x"
 1495              		.linkonce discard
 1496              		.align 2
 1497              		.globl	__ZN4NodoIcED0Ev
 1499              	__ZN4NodoIcED0Ev:
 1500              	LFB1070:
 194:C:/Caleb/FIUNA/4to Semestre/POO/C++/EjercicioSumativoUn11/EjUn11\main.cpp ****   template <class T2> friend class Cola;
 1501              		.loc 2 194 0 is_stmt 1
 1502              		.cfi_startproc
 1503 0000 55       		pushl	%ebp
 1504              		.cfi_def_cfa_offset 8
 1505              		.cfi_offset 5, -8
 1506 0001 89E5     		movl	%esp, %ebp
 1507              		.cfi_def_cfa_register 5
 1508 0003 83EC28   		subl	$40, %esp
 1509 0006 894DF4   		movl	%ecx, -12(%ebp)
 194:C:/Caleb/FIUNA/4to Semestre/POO/C++/EjercicioSumativoUn11/EjUn11\main.cpp ****   template <class T2> friend class Cola;
 1510              		.loc 2 194 0
 1511 0009 8B45F4   		movl	-12(%ebp), %eax
 1512 000c 89C1     		movl	%eax, %ecx
 1513 000e E8000000 		call	__ZN4NodoIcED1Ev
 1513      00
 1514 0013 8B45F4   		movl	-12(%ebp), %eax
 1515 0016 890424   		movl	%eax, (%esp)
 1516 0019 E8000000 		call	__ZdlPv
 1516      00
 1517 001e C9       		leave
 1518              		.cfi_restore 5
 1519              		.cfi_def_cfa 4, 4
 1520 001f C3       		ret
 1521              		.cfi_endproc
 1522              	LFE1070:
 1523              		.text
 1525              	__GLOBAL__sub_I__Z9leerLetrav:
 1526              	LFB1071:
 1527              		.loc 2 331 0
 1528              		.cfi_startproc
 1529 0664 55       		pushl	%ebp
 1530              		.cfi_def_cfa_offset 8
 1531              		.cfi_offset 5, -8
 1532 0665 89E5     		movl	%esp, %ebp
 1533              		.cfi_def_cfa_register 5
GAS LISTING C:\Users\USER\AppData\Local\Temp\ccxBfeO7.s 			page 42


 1534 0667 83EC18   		subl	$24, %esp
 1535              		.loc 2 331 0
 1536 066a C7442404 		movl	$65535, 4(%esp)
 1536      FFFF0000 
 1537 0672 C7042401 		movl	$1, (%esp)
 1537      000000
 1538 0679 E8B8FFFF 		call	__Z41__static_initialization_and_destruction_0ii
 1538      FF
 1539 067e C9       		leave
 1540              		.cfi_restore 5
 1541              		.cfi_def_cfa 4, 4
 1542 067f C3       		ret
 1543              		.cfi_endproc
 1544              	LFE1071:
 1545              		.section	.ctors,"w"
 1546              		.align 4
 1547 0000 64060000 		.long	__GLOBAL__sub_I__Z9leerLetrav
 1548              		.text
 1549              	Letext0:
 1550              		.file 4 "C:/TDM-GCC-32/lib/gcc/mingw32/5.1.0/include/c++/cwchar"
 1551              		.file 5 "C:/TDM-GCC-32/lib/gcc/mingw32/5.1.0/include/c++/mingw32/bits/c++config.h"
 1552              		.file 6 "C:/TDM-GCC-32/lib/gcc/mingw32/5.1.0/include/c++/debug/debug.h"
 1553              		.file 7 "C:/TDM-GCC-32/lib/gcc/mingw32/5.1.0/include/c++/bits/char_traits.h"
 1554              		.file 8 "C:/TDM-GCC-32/lib/gcc/mingw32/5.1.0/include/c++/clocale"
 1555              		.file 9 "C:/TDM-GCC-32/lib/gcc/mingw32/5.1.0/include/c++/bits/ios_base.h"
 1556              		.file 10 "C:/TDM-GCC-32/lib/gcc/mingw32/5.1.0/include/c++/cwctype"
 1557              		.file 11 "C:/TDM-GCC-32/lib/gcc/mingw32/5.1.0/include/c++/iosfwd"
 1558              		.file 12 "<built-in>"
 1559              		.file 13 "C:/TDM-GCC-32/lib/gcc/mingw32/5.1.0/include/c++/bits/predefined_ops.h"
 1560              		.file 14 "C:/TDM-GCC-32/lib/gcc/mingw32/5.1.0/include/c++/ext/new_allocator.h"
 1561              		.file 15 "C:/TDM-GCC-32/lib/gcc/mingw32/5.1.0/include/c++/ext/numeric_traits.h"
 1562              		.file 16 "C:/TDM-GCC-32/lib/gcc/mingw32/5.1.0/include/stddef.h"
 1563              		.file 17 "C:/TDM-GCC-32/include/wctype.h"
 1564              		.file 18 "C:/TDM-GCC-32/include/wchar.h"
 1565              		.file 19 "C:/TDM-GCC-32/include/locale.h"
 1566              		.file 20 "C:/TDM-GCC-32/lib/gcc/mingw32/5.1.0/include/c++/mingw32/bits/atomic_word.h"
 1567              		.file 21 "C:/TDM-GCC-32/include/ctype.h"
 1568              		.section	.debug_info,"dr"
 1569              	Ldebug_info0:
 1570 0000 43270000 		.long	0x2743
 1571 0004 0400     		.word	0x4
 1572 0006 00000000 		.secrel32	Ldebug_abbrev0
 1573 000a 04       		.byte	0x4
 1574 000b 01       		.uleb128 0x1
 1575 000c 474E5520 		.ascii "GNU C++ 5.1.0 -mtune=generic -march=pentiumpro -g -fexceptions\0"
 1575      432B2B20 
 1575      352E312E 
 1575      30202D6D 
 1575      74756E65 
 1576 004b 04       		.byte	0x4
 1577 004c 433A5C43 		.ascii "C:\\Caleb\\FIUNA\\4to Semestre\\POO\\C++\\EjercicioSumativoUn11\\EjUn11\\main.cpp\0"
 1577      616C6562 
 1577      5C464955 
 1577      4E415C34 
 1577      746F2053 
 1578 0096 433A5C43 		.ascii "C:\\Caleb\\FIUNA\\4to Semestre\\POO\\C++\\EjercicioSumativoUn11\\EjUn11\0"
 1578      616C6562 
GAS LISTING C:\Users\USER\AppData\Local\Temp\ccxBfeO7.s 			page 43


 1578      5C464955 
 1578      4E415C34 
 1578      746F2053 
 1579 00d7 00000000 		.secrel32	Ldebug_ranges0+0
 1580 00db 00000000 		.long	0
 1581 00df 00000000 		.secrel32	Ldebug_line0
 1582 00e3 02       		.uleb128 0x2
 1583 00e4 73746400 		.ascii "std\0"
 1584 00e8 0C       		.byte	0xc
 1585 00e9 00       		.byte	0
 1586 00ea 6A0D0000 		.long	0xd6a
 1587 00ee 03       		.uleb128 0x3
 1588 00ef 5F5F6378 		.ascii "__cxx11\0"
 1588      78313100 
 1589 00f7 05       		.byte	0x5
 1590 00f8 DA       		.byte	0xda
 1591 00f9 04       		.uleb128 0x4
 1592 00fa 05       		.byte	0x5
 1593 00fb DA       		.byte	0xda
 1594 00fc EE000000 		.long	0xee
 1595 0100 05       		.uleb128 0x5
 1596 0101 04       		.byte	0x4
 1597 0102 40       		.byte	0x40
 1598 0103 30110000 		.long	0x1130
 1599 0107 05       		.uleb128 0x5
 1600 0108 04       		.byte	0x4
 1601 0109 8B       		.byte	0x8b
 1602 010a 5B0F0000 		.long	0xf5b
 1603 010e 05       		.uleb128 0x5
 1604 010f 04       		.byte	0x4
 1605 0110 8D       		.byte	0x8d
 1606 0111 9D110000 		.long	0x119d
 1607 0115 05       		.uleb128 0x5
 1608 0116 04       		.byte	0x4
 1609 0117 8E       		.byte	0x8e
 1610 0118 B5110000 		.long	0x11b5
 1611 011c 05       		.uleb128 0x5
 1612 011d 04       		.byte	0x4
 1613 011e 8F       		.byte	0x8f
 1614 011f D3110000 		.long	0x11d3
 1615 0123 05       		.uleb128 0x5
 1616 0124 04       		.byte	0x4
 1617 0125 90       		.byte	0x90
 1618 0126 FB110000 		.long	0x11fb
 1619 012a 05       		.uleb128 0x5
 1620 012b 04       		.byte	0x4
 1621 012c 91       		.byte	0x91
 1622 012d 18120000 		.long	0x1218
 1623 0131 05       		.uleb128 0x5
 1624 0132 04       		.byte	0x4
 1625 0133 92       		.byte	0x92
 1626 0134 40120000 		.long	0x1240
 1627 0138 05       		.uleb128 0x5
 1628 0139 04       		.byte	0x4
 1629 013a 93       		.byte	0x93
 1630 013b 5D120000 		.long	0x125d
 1631 013f 05       		.uleb128 0x5
GAS LISTING C:\Users\USER\AppData\Local\Temp\ccxBfeO7.s 			page 44


 1632 0140 04       		.byte	0x4
 1633 0141 94       		.byte	0x94
 1634 0142 7D120000 		.long	0x127d
 1635 0146 05       		.uleb128 0x5
 1636 0147 04       		.byte	0x4
 1637 0148 95       		.byte	0x95
 1638 0149 9C120000 		.long	0x129c
 1639 014d 05       		.uleb128 0x5
 1640 014e 04       		.byte	0x4
 1641 014f 96       		.byte	0x96
 1642 0150 B3120000 		.long	0x12b3
 1643 0154 05       		.uleb128 0x5
 1644 0155 04       		.byte	0x4
 1645 0156 97       		.byte	0x97
 1646 0157 C3120000 		.long	0x12c3
 1647 015b 05       		.uleb128 0x5
 1648 015c 04       		.byte	0x4
 1649 015d 98       		.byte	0x98
 1650 015e F7120000 		.long	0x12f7
 1651 0162 05       		.uleb128 0x5
 1652 0163 04       		.byte	0x4
 1653 0164 99       		.byte	0x99
 1654 0165 20130000 		.long	0x1320
 1655 0169 05       		.uleb128 0x5
 1656 016a 04       		.byte	0x4
 1657 016b 9A       		.byte	0x9a
 1658 016c 45130000 		.long	0x1345
 1659 0170 05       		.uleb128 0x5
 1660 0171 04       		.byte	0x4
 1661 0172 9B       		.byte	0x9b
 1662 0173 76130000 		.long	0x1376
 1663 0177 05       		.uleb128 0x5
 1664 0178 04       		.byte	0x4
 1665 0179 9C       		.byte	0x9c
 1666 017a 92130000 		.long	0x1392
 1667 017e 05       		.uleb128 0x5
 1668 017f 04       		.byte	0x4
 1669 0180 A0       		.byte	0xa0
 1670 0181 AC130000 		.long	0x13ac
 1671 0185 05       		.uleb128 0x5
 1672 0186 04       		.byte	0x4
 1673 0187 A1       		.byte	0xa1
 1674 0188 CB130000 		.long	0x13cb
 1675 018c 05       		.uleb128 0x5
 1676 018d 04       		.byte	0x4
 1677 018e A2       		.byte	0xa2
 1678 018f E9130000 		.long	0x13e9
 1679 0193 05       		.uleb128 0x5
 1680 0194 04       		.byte	0x4
 1681 0195 A4       		.byte	0xa4
 1682 0196 0E140000 		.long	0x140e
 1683 019a 05       		.uleb128 0x5
 1684 019b 04       		.byte	0x4
 1685 019c AA       		.byte	0xaa
 1686 019d 32140000 		.long	0x1432
 1687 01a1 05       		.uleb128 0x5
 1688 01a2 04       		.byte	0x4
GAS LISTING C:\Users\USER\AppData\Local\Temp\ccxBfeO7.s 			page 45


 1689 01a3 AC       		.byte	0xac
 1690 01a4 56140000 		.long	0x1456
 1691 01a8 05       		.uleb128 0x5
 1692 01a9 04       		.byte	0x4
 1693 01aa AE       		.byte	0xae
 1694 01ab 75140000 		.long	0x1475
 1695 01af 05       		.uleb128 0x5
 1696 01b0 04       		.byte	0x4
 1697 01b1 B0       		.byte	0xb0
 1698 01b2 93140000 		.long	0x1493
 1699 01b6 05       		.uleb128 0x5
 1700 01b7 04       		.byte	0x4
 1701 01b8 B1       		.byte	0xb1
 1702 01b9 B7140000 		.long	0x14b7
 1703 01bd 05       		.uleb128 0x5
 1704 01be 04       		.byte	0x4
 1705 01bf B2       		.byte	0xb2
 1706 01c0 D4140000 		.long	0x14d4
 1707 01c4 05       		.uleb128 0x5
 1708 01c5 04       		.byte	0x4
 1709 01c6 B3       		.byte	0xb3
 1710 01c7 F1140000 		.long	0x14f1
 1711 01cb 05       		.uleb128 0x5
 1712 01cc 04       		.byte	0x4
 1713 01cd B4       		.byte	0xb4
 1714 01ce 0F150000 		.long	0x150f
 1715 01d2 05       		.uleb128 0x5
 1716 01d3 04       		.byte	0x4
 1717 01d4 B5       		.byte	0xb5
 1718 01d5 2C150000 		.long	0x152c
 1719 01d9 05       		.uleb128 0x5
 1720 01da 04       		.byte	0x4
 1721 01db B6       		.byte	0xb6
 1722 01dc 4A150000 		.long	0x154a
 1723 01e0 05       		.uleb128 0x5
 1724 01e1 04       		.byte	0x4
 1725 01e2 B7       		.byte	0xb7
 1726 01e3 7E150000 		.long	0x157e
 1727 01e7 05       		.uleb128 0x5
 1728 01e8 04       		.byte	0x4
 1729 01e9 B8       		.byte	0xb8
 1730 01ea 96150000 		.long	0x1596
 1731 01ee 05       		.uleb128 0x5
 1732 01ef 04       		.byte	0x4
 1733 01f0 B9       		.byte	0xb9
 1734 01f1 B9150000 		.long	0x15b9
 1735 01f5 05       		.uleb128 0x5
 1736 01f6 04       		.byte	0x4
 1737 01f7 BA       		.byte	0xba
 1738 01f8 DC150000 		.long	0x15dc
 1739 01fc 05       		.uleb128 0x5
 1740 01fd 04       		.byte	0x4
 1741 01fe BB       		.byte	0xbb
 1742 01ff FF150000 		.long	0x15ff
 1743 0203 05       		.uleb128 0x5
 1744 0204 04       		.byte	0x4
 1745 0205 BC       		.byte	0xbc
GAS LISTING C:\Users\USER\AppData\Local\Temp\ccxBfeO7.s 			page 46


 1746 0206 30160000 		.long	0x1630
 1747 020a 05       		.uleb128 0x5
 1748 020b 04       		.byte	0x4
 1749 020c BD       		.byte	0xbd
 1750 020d 4D160000 		.long	0x164d
 1751 0211 05       		.uleb128 0x5
 1752 0212 04       		.byte	0x4
 1753 0213 BF       		.byte	0xbf
 1754 0214 7A160000 		.long	0x167a
 1755 0218 05       		.uleb128 0x5
 1756 0219 04       		.byte	0x4
 1757 021a C1       		.byte	0xc1
 1758 021b A0160000 		.long	0x16a0
 1759 021f 05       		.uleb128 0x5
 1760 0220 04       		.byte	0x4
 1761 0221 C2       		.byte	0xc2
 1762 0222 BD160000 		.long	0x16bd
 1763 0226 05       		.uleb128 0x5
 1764 0227 04       		.byte	0x4
 1765 0228 C3       		.byte	0xc3
 1766 0229 DF160000 		.long	0x16df
 1767 022d 05       		.uleb128 0x5
 1768 022e 04       		.byte	0x4
 1769 022f C4       		.byte	0xc4
 1770 0230 02170000 		.long	0x1702
 1771 0234 05       		.uleb128 0x5
 1772 0235 04       		.byte	0x4
 1773 0236 C5       		.byte	0xc5
 1774 0237 25170000 		.long	0x1725
 1775 023b 05       		.uleb128 0x5
 1776 023c 04       		.byte	0x4
 1777 023d C6       		.byte	0xc6
 1778 023e 3D170000 		.long	0x173d
 1779 0242 05       		.uleb128 0x5
 1780 0243 04       		.byte	0x4
 1781 0244 C7       		.byte	0xc7
 1782 0245 61170000 		.long	0x1761
 1783 0249 05       		.uleb128 0x5
 1784 024a 04       		.byte	0x4
 1785 024b C8       		.byte	0xc8
 1786 024c 85170000 		.long	0x1785
 1787 0250 05       		.uleb128 0x5
 1788 0251 04       		.byte	0x4
 1789 0252 C9       		.byte	0xc9
 1790 0253 AA170000 		.long	0x17aa
 1791 0257 05       		.uleb128 0x5
 1792 0258 04       		.byte	0x4
 1793 0259 CA       		.byte	0xca
 1794 025a CE170000 		.long	0x17ce
 1795 025e 05       		.uleb128 0x5
 1796 025f 04       		.byte	0x4
 1797 0260 CB       		.byte	0xcb
 1798 0261 E8170000 		.long	0x17e8
 1799 0265 05       		.uleb128 0x5
 1800 0266 04       		.byte	0x4
 1801 0267 CC       		.byte	0xcc
 1802 0268 01180000 		.long	0x1801
GAS LISTING C:\Users\USER\AppData\Local\Temp\ccxBfeO7.s 			page 47


 1803 026c 05       		.uleb128 0x5
 1804 026d 04       		.byte	0x4
 1805 026e CD       		.byte	0xcd
 1806 026f 1E180000 		.long	0x181e
 1807 0273 05       		.uleb128 0x5
 1808 0274 04       		.byte	0x4
 1809 0275 CE       		.byte	0xce
 1810 0276 3C180000 		.long	0x183c
 1811 027a 05       		.uleb128 0x5
 1812 027b 04       		.byte	0x4
 1813 027c CF       		.byte	0xcf
 1814 027d 5A180000 		.long	0x185a
 1815 0281 05       		.uleb128 0x5
 1816 0282 04       		.byte	0x4
 1817 0283 D0       		.byte	0xd0
 1818 0284 77180000 		.long	0x1877
 1819 0288 06       		.uleb128 0x6
 1820 0289 04       		.byte	0x4
 1821 028a 0801     		.word	0x108
 1822 028c 9B180000 		.long	0x189b
 1823 0290 06       		.uleb128 0x6
 1824 0291 04       		.byte	0x4
 1825 0292 0901     		.word	0x109
 1826 0294 C8180000 		.long	0x18c8
 1827 0298 06       		.uleb128 0x6
 1828 0299 04       		.byte	0x4
 1829 029a 0A01     		.word	0x10a
 1830 029c EC180000 		.long	0x18ec
 1831 02a0 03       		.uleb128 0x3
 1832 02a1 5F5F6465 		.ascii "__debug\0"
 1832      62756700 
 1833 02a9 06       		.byte	0x6
 1834 02aa 30       		.byte	0x30
 1835 02ab 07       		.uleb128 0x7
 1836 02ac 63686172 		.ascii "char_traits<char>\0"
 1836      5F747261 
 1836      6974733C 
 1836      63686172 
 1836      3E00
 1837 02be 01       		.byte	0x1
 1838 02bf 07       		.byte	0x7
 1839 02c0 E9       		.byte	0xe9
 1840 02c1 6C060000 		.long	0x66c
 1841 02c5 08       		.uleb128 0x8
 1842 02c6 63686172 		.ascii "char_type\0"
 1842      5F747970 
 1842      6500
 1843 02d0 07       		.byte	0x7
 1844 02d1 EB       		.byte	0xeb
 1845 02d2 980F0000 		.long	0xf98
 1846 02d6 08       		.uleb128 0x8
 1847 02d7 696E745F 		.ascii "int_type\0"
 1847      74797065 
 1847      00
 1848 02e0 07       		.byte	0x7
 1849 02e1 EC       		.byte	0xec
 1850 02e2 CC0F0000 		.long	0xfcc
GAS LISTING C:\Users\USER\AppData\Local\Temp\ccxBfeO7.s 			page 48


 1851 02e6 09       		.uleb128 0x9
 1852 02e7 61737369 		.ascii "assign\0"
 1852      676E00
 1853 02ee 07       		.byte	0x7
 1854 02ef F2       		.byte	0xf2
 1855 02f0 5F5A4E53 		.ascii "_ZNSt11char_traitsIcE6assignERcRKc\0"
 1855      74313163 
 1855      6861725F 
 1855      74726169 
 1855      74734963 
 1856 0313 22030000 		.long	0x322
 1857 0317 0A       		.uleb128 0xa
 1858 0318 2C190000 		.long	0x192c
 1859 031c 0A       		.uleb128 0xa
 1860 031d 32190000 		.long	0x1932
 1861 0321 00       		.byte	0
 1862 0322 0B       		.uleb128 0xb
 1863 0323 C5020000 		.long	0x2c5
 1864 0327 0C       		.uleb128 0xc
 1865 0328 657100   		.ascii "eq\0"
 1866 032b 07       		.byte	0x7
 1867 032c F6       		.byte	0xf6
 1868 032d 5F5A4E53 		.ascii "_ZNSt11char_traitsIcE2eqERKcS2_\0"
 1868      74313163 
 1868      6861725F 
 1868      74726169 
 1868      74734963 
 1869 034d 38190000 		.long	0x1938
 1870 0351 60030000 		.long	0x360
 1871 0355 0A       		.uleb128 0xa
 1872 0356 32190000 		.long	0x1932
 1873 035a 0A       		.uleb128 0xa
 1874 035b 32190000 		.long	0x1932
 1875 035f 00       		.byte	0
 1876 0360 0C       		.uleb128 0xc
 1877 0361 6C7400   		.ascii "lt\0"
 1878 0364 07       		.byte	0x7
 1879 0365 FA       		.byte	0xfa
 1880 0366 5F5A4E53 		.ascii "_ZNSt11char_traitsIcE2ltERKcS2_\0"
 1880      74313163 
 1880      6861725F 
 1880      74726169 
 1880      74734963 
 1881 0386 38190000 		.long	0x1938
 1882 038a 99030000 		.long	0x399
 1883 038e 0A       		.uleb128 0xa
 1884 038f 32190000 		.long	0x1932
 1885 0393 0A       		.uleb128 0xa
 1886 0394 32190000 		.long	0x1932
 1887 0398 00       		.byte	0
 1888 0399 0D       		.uleb128 0xd
 1889 039a 636F6D70 		.ascii "compare\0"
 1889      61726500 
 1890 03a2 07       		.byte	0x7
 1891 03a3 0201     		.word	0x102
 1892 03a5 5F5A4E53 		.ascii "_ZNSt11char_traitsIcE7compareEPKcS2_j\0"
 1892      74313163 
GAS LISTING C:\Users\USER\AppData\Local\Temp\ccxBfeO7.s 			page 49


 1892      6861725F 
 1892      74726169 
 1892      74734963 
 1893 03cb CC0F0000 		.long	0xfcc
 1894 03cf E3030000 		.long	0x3e3
 1895 03d3 0A       		.uleb128 0xa
 1896 03d4 40190000 		.long	0x1940
 1897 03d8 0A       		.uleb128 0xa
 1898 03d9 40190000 		.long	0x1940
 1899 03dd 0A       		.uleb128 0xa
 1900 03de 6C060000 		.long	0x66c
 1901 03e2 00       		.byte	0
 1902 03e3 0D       		.uleb128 0xd
 1903 03e4 6C656E67 		.ascii "length\0"
 1903      746800
 1904 03eb 07       		.byte	0x7
 1905 03ec 0601     		.word	0x106
 1906 03ee 5F5A4E53 		.ascii "_ZNSt11char_traitsIcE6lengthEPKc\0"
 1906      74313163 
 1906      6861725F 
 1906      74726169 
 1906      74734963 
 1907 040f 6C060000 		.long	0x66c
 1908 0413 1D040000 		.long	0x41d
 1909 0417 0A       		.uleb128 0xa
 1910 0418 40190000 		.long	0x1940
 1911 041c 00       		.byte	0
 1912 041d 0D       		.uleb128 0xd
 1913 041e 66696E64 		.ascii "find\0"
 1913      00
 1914 0423 07       		.byte	0x7
 1915 0424 0A01     		.word	0x10a
 1916 0426 5F5A4E53 		.ascii "_ZNSt11char_traitsIcE4findEPKcjRS1_\0"
 1916      74313163 
 1916      6861725F 
 1916      74726169 
 1916      74734963 
 1917 044a 40190000 		.long	0x1940
 1918 044e 62040000 		.long	0x462
 1919 0452 0A       		.uleb128 0xa
 1920 0453 40190000 		.long	0x1940
 1921 0457 0A       		.uleb128 0xa
 1922 0458 6C060000 		.long	0x66c
 1923 045c 0A       		.uleb128 0xa
 1924 045d 32190000 		.long	0x1932
 1925 0461 00       		.byte	0
 1926 0462 0D       		.uleb128 0xd
 1927 0463 6D6F7665 		.ascii "move\0"
 1927      00
 1928 0468 07       		.byte	0x7
 1929 0469 0E01     		.word	0x10e
 1930 046b 5F5A4E53 		.ascii "_ZNSt11char_traitsIcE4moveEPcPKcj\0"
 1930      74313163 
 1930      6861725F 
 1930      74726169 
 1930      74734963 
 1931 048d 46190000 		.long	0x1946
GAS LISTING C:\Users\USER\AppData\Local\Temp\ccxBfeO7.s 			page 50


 1932 0491 A5040000 		.long	0x4a5
 1933 0495 0A       		.uleb128 0xa
 1934 0496 46190000 		.long	0x1946
 1935 049a 0A       		.uleb128 0xa
 1936 049b 40190000 		.long	0x1940
 1937 049f 0A       		.uleb128 0xa
 1938 04a0 6C060000 		.long	0x66c
 1939 04a4 00       		.byte	0
 1940 04a5 0D       		.uleb128 0xd
 1941 04a6 636F7079 		.ascii "copy\0"
 1941      00
 1942 04ab 07       		.byte	0x7
 1943 04ac 1201     		.word	0x112
 1944 04ae 5F5A4E53 		.ascii "_ZNSt11char_traitsIcE4copyEPcPKcj\0"
 1944      74313163 
 1944      6861725F 
 1944      74726169 
 1944      74734963 
 1945 04d0 46190000 		.long	0x1946
 1946 04d4 E8040000 		.long	0x4e8
 1947 04d8 0A       		.uleb128 0xa
 1948 04d9 46190000 		.long	0x1946
 1949 04dd 0A       		.uleb128 0xa
 1950 04de 40190000 		.long	0x1940
 1951 04e2 0A       		.uleb128 0xa
 1952 04e3 6C060000 		.long	0x66c
 1953 04e7 00       		.byte	0
 1954 04e8 0D       		.uleb128 0xd
 1955 04e9 61737369 		.ascii "assign\0"
 1955      676E00
 1956 04f0 07       		.byte	0x7
 1957 04f1 1601     		.word	0x116
 1958 04f3 5F5A4E53 		.ascii "_ZNSt11char_traitsIcE6assignEPcjc\0"
 1958      74313163 
 1958      6861725F 
 1958      74726169 
 1958      74734963 
 1959 0515 46190000 		.long	0x1946
 1960 0519 2D050000 		.long	0x52d
 1961 051d 0A       		.uleb128 0xa
 1962 051e 46190000 		.long	0x1946
 1963 0522 0A       		.uleb128 0xa
 1964 0523 6C060000 		.long	0x66c
 1965 0527 0A       		.uleb128 0xa
 1966 0528 C5020000 		.long	0x2c5
 1967 052c 00       		.byte	0
 1968 052d 0D       		.uleb128 0xd
 1969 052e 746F5F63 		.ascii "to_char_type\0"
 1969      6861725F 
 1969      74797065 
 1969      00
 1970 053b 07       		.byte	0x7
 1971 053c 1A01     		.word	0x11a
 1972 053e 5F5A4E53 		.ascii "_ZNSt11char_traitsIcE12to_char_typeERKi\0"
 1972      74313163 
 1972      6861725F 
 1972      74726169 
GAS LISTING C:\Users\USER\AppData\Local\Temp\ccxBfeO7.s 			page 51


 1972      74734963 
 1973 0566 C5020000 		.long	0x2c5
 1974 056a 74050000 		.long	0x574
 1975 056e 0A       		.uleb128 0xa
 1976 056f 4C190000 		.long	0x194c
 1977 0573 00       		.byte	0
 1978 0574 0B       		.uleb128 0xb
 1979 0575 D6020000 		.long	0x2d6
 1980 0579 0D       		.uleb128 0xd
 1981 057a 746F5F69 		.ascii "to_int_type\0"
 1981      6E745F74 
 1981      79706500 
 1982 0586 07       		.byte	0x7
 1983 0587 2001     		.word	0x120
 1984 0589 5F5A4E53 		.ascii "_ZNSt11char_traitsIcE11to_int_typeERKc\0"
 1984      74313163 
 1984      6861725F 
 1984      74726169 
 1984      74734963 
 1985 05b0 D6020000 		.long	0x2d6
 1986 05b4 BE050000 		.long	0x5be
 1987 05b8 0A       		.uleb128 0xa
 1988 05b9 32190000 		.long	0x1932
 1989 05bd 00       		.byte	0
 1990 05be 0D       		.uleb128 0xd
 1991 05bf 65715F69 		.ascii "eq_int_type\0"
 1991      6E745F74 
 1991      79706500 
 1992 05cb 07       		.byte	0x7
 1993 05cc 2401     		.word	0x124
 1994 05ce 5F5A4E53 		.ascii "_ZNSt11char_traitsIcE11eq_int_typeERKiS2_\0"
 1994      74313163 
 1994      6861725F 
 1994      74726169 
 1994      74734963 
 1995 05f8 38190000 		.long	0x1938
 1996 05fc 0B060000 		.long	0x60b
 1997 0600 0A       		.uleb128 0xa
 1998 0601 4C190000 		.long	0x194c
 1999 0605 0A       		.uleb128 0xa
 2000 0606 4C190000 		.long	0x194c
 2001 060a 00       		.byte	0
 2002 060b 0E       		.uleb128 0xe
 2003 060c 656F6600 		.ascii "eof\0"
 2004 0610 07       		.byte	0x7
 2005 0611 2801     		.word	0x128
 2006 0613 5F5A4E53 		.ascii "_ZNSt11char_traitsIcE3eofEv\0"
 2006      74313163 
 2006      6861725F 
 2006      74726169 
 2006      74734963 
 2007 062f D6020000 		.long	0x2d6
 2008 0633 0F       		.uleb128 0xf
 2009 0634 6E6F745F 		.ascii "not_eof\0"
 2009      656F6600 
 2010 063c 07       		.byte	0x7
 2011 063d 2C01     		.word	0x12c
GAS LISTING C:\Users\USER\AppData\Local\Temp\ccxBfeO7.s 			page 52


 2012 063f 5F5A4E53 		.ascii "_ZNSt11char_traitsIcE7not_eofERKi\0"
 2012      74313163 
 2012      6861725F 
 2012      74726169 
 2012      74734963 
 2013 0661 D6020000 		.long	0x2d6
 2014 0665 0A       		.uleb128 0xa
 2015 0666 4C190000 		.long	0x194c
 2016 066a 00       		.byte	0
 2017 066b 00       		.byte	0
 2018 066c 08       		.uleb128 0x8
 2019 066d 73697A65 		.ascii "size_t\0"
 2019      5F7400
 2020 0674 05       		.byte	0x5
 2021 0675 C4       		.byte	0xc4
 2022 0676 4B0F0000 		.long	0xf4b
 2023 067a 05       		.uleb128 0x5
 2024 067b 08       		.byte	0x8
 2025 067c 35       		.byte	0x35
 2026 067d 52190000 		.long	0x1952
 2027 0681 05       		.uleb128 0x5
 2028 0682 08       		.byte	0x8
 2029 0683 36       		.byte	0x36
 2030 0684 F11A0000 		.long	0x1af1
 2031 0688 05       		.uleb128 0x5
 2032 0689 08       		.byte	0x8
 2033 068a 37       		.byte	0x37
 2034 068b 111B0000 		.long	0x1b11
 2035 068f 08       		.uleb128 0x8
 2036 0690 70747264 		.ascii "ptrdiff_t\0"
 2036      6966665F 
 2036      7400
 2037 069a 05       		.byte	0x5
 2038 069b C5       		.byte	0xc5
 2039 069c CC0F0000 		.long	0xfcc
 2040 06a0 10       		.uleb128 0x10
 2041 06a1 5F496F73 		.ascii "_Ios_Fmtflags\0"
 2041      5F466D74 
 2041      666C6167 
 2041      7300
 2042 06af 04       		.byte	0x4
 2043 06b0 4B0F0000 		.long	0xf4b
 2044 06b4 09       		.byte	0x9
 2045 06b5 39       		.byte	0x39
 2046 06b6 C6070000 		.long	0x7c6
 2047 06ba 11       		.uleb128 0x11
 2048 06bb 5F535F62 		.ascii "_S_boolalpha\0"
 2048      6F6F6C61 
 2048      6C706861 
 2048      00
 2049 06c8 01       		.byte	0x1
 2050 06c9 11       		.uleb128 0x11
 2051 06ca 5F535F64 		.ascii "_S_dec\0"
 2051      656300
 2052 06d1 02       		.byte	0x2
 2053 06d2 11       		.uleb128 0x11
 2054 06d3 5F535F66 		.ascii "_S_fixed\0"
GAS LISTING C:\Users\USER\AppData\Local\Temp\ccxBfeO7.s 			page 53


 2054      69786564 
 2054      00
 2055 06dc 04       		.byte	0x4
 2056 06dd 11       		.uleb128 0x11
 2057 06de 5F535F68 		.ascii "_S_hex\0"
 2057      657800
 2058 06e5 08       		.byte	0x8
 2059 06e6 11       		.uleb128 0x11
 2060 06e7 5F535F69 		.ascii "_S_internal\0"
 2060      6E746572 
 2060      6E616C00 
 2061 06f3 10       		.byte	0x10
 2062 06f4 11       		.uleb128 0x11
 2063 06f5 5F535F6C 		.ascii "_S_left\0"
 2063      65667400 
 2064 06fd 20       		.byte	0x20
 2065 06fe 11       		.uleb128 0x11
 2066 06ff 5F535F6F 		.ascii "_S_oct\0"
 2066      637400
 2067 0706 40       		.byte	0x40
 2068 0707 11       		.uleb128 0x11
 2069 0708 5F535F72 		.ascii "_S_right\0"
 2069      69676874 
 2069      00
 2070 0711 80       		.byte	0x80
 2071 0712 12       		.uleb128 0x12
 2072 0713 5F535F73 		.ascii "_S_scientific\0"
 2072      6369656E 
 2072      74696669 
 2072      6300
 2073 0721 0001     		.word	0x100
 2074 0723 12       		.uleb128 0x12
 2075 0724 5F535F73 		.ascii "_S_showbase\0"
 2075      686F7762 
 2075      61736500 
 2076 0730 0002     		.word	0x200
 2077 0732 12       		.uleb128 0x12
 2078 0733 5F535F73 		.ascii "_S_showpoint\0"
 2078      686F7770 
 2078      6F696E74 
 2078      00
 2079 0740 0004     		.word	0x400
 2080 0742 12       		.uleb128 0x12
 2081 0743 5F535F73 		.ascii "_S_showpos\0"
 2081      686F7770 
 2081      6F7300
 2082 074e 0008     		.word	0x800
 2083 0750 12       		.uleb128 0x12
 2084 0751 5F535F73 		.ascii "_S_skipws\0"
 2084      6B697077 
 2084      7300
 2085 075b 0010     		.word	0x1000
 2086 075d 12       		.uleb128 0x12
 2087 075e 5F535F75 		.ascii "_S_unitbuf\0"
 2087      6E697462 
 2087      756600
 2088 0769 0020     		.word	0x2000
GAS LISTING C:\Users\USER\AppData\Local\Temp\ccxBfeO7.s 			page 54


 2089 076b 12       		.uleb128 0x12
 2090 076c 5F535F75 		.ascii "_S_uppercase\0"
 2090      70706572 
 2090      63617365 
 2090      00
 2091 0779 0040     		.word	0x4000
 2092 077b 11       		.uleb128 0x11
 2093 077c 5F535F61 		.ascii "_S_adjustfield\0"
 2093      646A7573 
 2093      74666965 
 2093      6C6400
 2094 078b B0       		.byte	0xb0
 2095 078c 11       		.uleb128 0x11
 2096 078d 5F535F62 		.ascii "_S_basefield\0"
 2096      61736566 
 2096      69656C64 
 2096      00
 2097 079a 4A       		.byte	0x4a
 2098 079b 12       		.uleb128 0x12
 2099 079c 5F535F66 		.ascii "_S_floatfield\0"
 2099      6C6F6174 
 2099      6669656C 
 2099      6400
 2100 07aa 0401     		.word	0x104
 2101 07ac 13       		.uleb128 0x13
 2102 07ad 5F535F69 		.ascii "_S_ios_fmtflags_end\0"
 2102      6F735F66 
 2102      6D74666C 
 2102      6167735F 
 2102      656E6400 
 2103 07c1 00000100 		.long	0x10000
 2104 07c5 00       		.byte	0
 2105 07c6 10       		.uleb128 0x10
 2106 07c7 5F496F73 		.ascii "_Ios_Openmode\0"
 2106      5F4F7065 
 2106      6E6D6F64 
 2106      6500
 2107 07d5 04       		.byte	0x4
 2108 07d6 4B0F0000 		.long	0xf4b
 2109 07da 09       		.byte	0x9
 2110 07db 6D       		.byte	0x6d
 2111 07dc 31080000 		.long	0x831
 2112 07e0 11       		.uleb128 0x11
 2113 07e1 5F535F61 		.ascii "_S_app\0"
 2113      707000
 2114 07e8 01       		.byte	0x1
 2115 07e9 11       		.uleb128 0x11
 2116 07ea 5F535F61 		.ascii "_S_ate\0"
 2116      746500
 2117 07f1 02       		.byte	0x2
 2118 07f2 11       		.uleb128 0x11
 2119 07f3 5F535F62 		.ascii "_S_bin\0"
 2119      696E00
 2120 07fa 04       		.byte	0x4
 2121 07fb 11       		.uleb128 0x11
 2122 07fc 5F535F69 		.ascii "_S_in\0"
 2122      6E00
GAS LISTING C:\Users\USER\AppData\Local\Temp\ccxBfeO7.s 			page 55


 2123 0802 08       		.byte	0x8
 2124 0803 11       		.uleb128 0x11
 2125 0804 5F535F6F 		.ascii "_S_out\0"
 2125      757400
 2126 080b 10       		.byte	0x10
 2127 080c 11       		.uleb128 0x11
 2128 080d 5F535F74 		.ascii "_S_trunc\0"
 2128      72756E63 
 2128      00
 2129 0816 20       		.byte	0x20
 2130 0817 13       		.uleb128 0x13
 2131 0818 5F535F69 		.ascii "_S_ios_openmode_end\0"
 2131      6F735F6F 
 2131      70656E6D 
 2131      6F64655F 
 2131      656E6400 
 2132 082c 00000100 		.long	0x10000
 2133 0830 00       		.byte	0
 2134 0831 10       		.uleb128 0x10
 2135 0832 5F496F73 		.ascii "_Ios_Iostate\0"
 2135      5F496F73 
 2135      74617465 
 2135      00
 2136 083f 04       		.byte	0x4
 2137 0840 4B0F0000 		.long	0xf4b
 2138 0844 09       		.byte	0x9
 2139 0845 95       		.byte	0x95
 2140 0846 95080000 		.long	0x895
 2141 084a 11       		.uleb128 0x11
 2142 084b 5F535F67 		.ascii "_S_goodbit\0"
 2142      6F6F6462 
 2142      697400
 2143 0856 00       		.byte	0
 2144 0857 11       		.uleb128 0x11
 2145 0858 5F535F62 		.ascii "_S_badbit\0"
 2145      61646269 
 2145      7400
 2146 0862 01       		.byte	0x1
 2147 0863 11       		.uleb128 0x11
 2148 0864 5F535F65 		.ascii "_S_eofbit\0"
 2148      6F666269 
 2148      7400
 2149 086e 02       		.byte	0x2
 2150 086f 11       		.uleb128 0x11
 2151 0870 5F535F66 		.ascii "_S_failbit\0"
 2151      61696C62 
 2151      697400
 2152 087b 04       		.byte	0x4
 2153 087c 13       		.uleb128 0x13
 2154 087d 5F535F69 		.ascii "_S_ios_iostate_end\0"
 2154      6F735F69 
 2154      6F737461 
 2154      74655F65 
 2154      6E6400
 2155 0890 00000100 		.long	0x10000
 2156 0894 00       		.byte	0
 2157 0895 10       		.uleb128 0x10
GAS LISTING C:\Users\USER\AppData\Local\Temp\ccxBfeO7.s 			page 56


 2158 0896 5F496F73 		.ascii "_Ios_Seekdir\0"
 2158      5F536565 
 2158      6B646972 
 2158      00
 2159 08a3 04       		.byte	0x4
 2160 08a4 4B0F0000 		.long	0xf4b
 2161 08a8 09       		.byte	0x9
 2162 08a9 BB       		.byte	0xbb
 2163 08aa E2080000 		.long	0x8e2
 2164 08ae 11       		.uleb128 0x11
 2165 08af 5F535F62 		.ascii "_S_beg\0"
 2165      656700
 2166 08b6 00       		.byte	0
 2167 08b7 11       		.uleb128 0x11
 2168 08b8 5F535F63 		.ascii "_S_cur\0"
 2168      757200
 2169 08bf 01       		.byte	0x1
 2170 08c0 11       		.uleb128 0x11
 2171 08c1 5F535F65 		.ascii "_S_end\0"
 2171      6E6400
 2172 08c8 02       		.byte	0x2
 2173 08c9 13       		.uleb128 0x13
 2174 08ca 5F535F69 		.ascii "_S_ios_seekdir_end\0"
 2174      6F735F73 
 2174      65656B64 
 2174      69725F65 
 2174      6E6400
 2175 08dd 00000100 		.long	0x10000
 2176 08e1 00       		.byte	0
 2177 08e2 14       		.uleb128 0x14
 2178 08e3 696F735F 		.ascii "ios_base\0"
 2178      62617365 
 2178      00
 2179 08ec 020C0000 		.long	0xc02
 2180 08f0 15       		.uleb128 0x15
 2181 08f1 496E6974 		.ascii "Init\0"
 2181      00
 2182 08f6 01       		.byte	0x1
 2183 08f7 09       		.byte	0x9
 2184 08f8 5302     		.word	0x253
 2185 08fa 01       		.byte	0x1
 2186 08fb 93090000 		.long	0x993
 2187 08ff 16       		.uleb128 0x16
 2188 0900 5F535F72 		.ascii "_S_refcount\0"
 2188      6566636F 
 2188      756E7400 
 2189 090c 09       		.byte	0x9
 2190 090d 5B02     		.word	0x25b
 2191 090f 291B0000 		.long	0x1b29
 2192 0913 16       		.uleb128 0x16
 2193 0914 5F535F73 		.ascii "_S_synced_with_stdio\0"
 2193      796E6365 
 2193      645F7769 
 2193      74685F73 
 2193      7464696F 
 2194 0929 09       		.byte	0x9
 2195 092a 5C02     		.word	0x25c
GAS LISTING C:\Users\USER\AppData\Local\Temp\ccxBfeO7.s 			page 57


 2196 092c 38190000 		.long	0x1938
 2197 0930 17       		.uleb128 0x17
 2198 0931 496E6974 		.ascii "Init\0"
 2198      00
 2199 0936 09       		.byte	0x9
 2200 0937 5702     		.word	0x257
 2201 0939 5F5A4E53 		.ascii "_ZNSt8ios_base4InitC4Ev\0"
 2201      7438696F 
 2201      735F6261 
 2201      73653449 
 2201      6E697443 
 2202 0951 01       		.byte	0x1
 2203 0952 5A090000 		.long	0x95a
 2204 0956 60090000 		.long	0x960
 2205 095a 18       		.uleb128 0x18
 2206 095b 4C1B0000 		.long	0x1b4c
 2207 095f 00       		.byte	0
 2208 0960 19       		.uleb128 0x19
 2209 0961 7E496E69 		.ascii "~Init\0"
 2209      7400
 2210 0967 09       		.byte	0x9
 2211 0968 5802     		.word	0x258
 2212 096a 5F5A4E53 		.ascii "_ZNSt8ios_base4InitD4Ev\0"
 2212      7438696F 
 2212      735F6261 
 2212      73653449 
 2212      6E697444 
 2213 0982 01       		.byte	0x1
 2214 0983 87090000 		.long	0x987
 2215 0987 18       		.uleb128 0x18
 2216 0988 4C1B0000 		.long	0x1b4c
 2217 098c 18       		.uleb128 0x18
 2218 098d CC0F0000 		.long	0xfcc
 2219 0991 00       		.byte	0
 2220 0992 00       		.byte	0
 2221 0993 1A       		.uleb128 0x1a
 2222 0994 666D7466 		.ascii "fmtflags\0"
 2222      6C616773 
 2222      00
 2223 099d 09       		.byte	0x9
 2224 099e 3D01     		.word	0x13d
 2225 09a0 A0060000 		.long	0x6a0
 2226 09a4 01       		.byte	0x1
 2227 09a5 1B       		.uleb128 0x1b
 2228 09a6 626F6F6C 		.ascii "boolalpha\0"
 2228      616C7068 
 2228      6100
 2229 09b0 09       		.byte	0x9
 2230 09b1 4001     		.word	0x140
 2231 09b3 B9090000 		.long	0x9b9
 2232 09b7 01       		.byte	0x1
 2233 09b8 01       		.byte	0x1
 2234 09b9 0B       		.uleb128 0xb
 2235 09ba 93090000 		.long	0x993
 2236 09be 1B       		.uleb128 0x1b
 2237 09bf 64656300 		.ascii "dec\0"
 2238 09c3 09       		.byte	0x9
GAS LISTING C:\Users\USER\AppData\Local\Temp\ccxBfeO7.s 			page 58


 2239 09c4 4301     		.word	0x143
 2240 09c6 B9090000 		.long	0x9b9
 2241 09ca 01       		.byte	0x1
 2242 09cb 02       		.byte	0x2
 2243 09cc 1B       		.uleb128 0x1b
 2244 09cd 66697865 		.ascii "fixed\0"
 2244      6400
 2245 09d3 09       		.byte	0x9
 2246 09d4 4601     		.word	0x146
 2247 09d6 B9090000 		.long	0x9b9
 2248 09da 01       		.byte	0x1
 2249 09db 04       		.byte	0x4
 2250 09dc 1B       		.uleb128 0x1b
 2251 09dd 68657800 		.ascii "hex\0"
 2252 09e1 09       		.byte	0x9
 2253 09e2 4901     		.word	0x149
 2254 09e4 B9090000 		.long	0x9b9
 2255 09e8 01       		.byte	0x1
 2256 09e9 08       		.byte	0x8
 2257 09ea 1B       		.uleb128 0x1b
 2258 09eb 696E7465 		.ascii "internal\0"
 2258      726E616C 
 2258      00
 2259 09f4 09       		.byte	0x9
 2260 09f5 4E01     		.word	0x14e
 2261 09f7 B9090000 		.long	0x9b9
 2262 09fb 01       		.byte	0x1
 2263 09fc 10       		.byte	0x10
 2264 09fd 1B       		.uleb128 0x1b
 2265 09fe 6C656674 		.ascii "left\0"
 2265      00
 2266 0a03 09       		.byte	0x9
 2267 0a04 5201     		.word	0x152
 2268 0a06 B9090000 		.long	0x9b9
 2269 0a0a 01       		.byte	0x1
 2270 0a0b 20       		.byte	0x20
 2271 0a0c 1B       		.uleb128 0x1b
 2272 0a0d 6F637400 		.ascii "oct\0"
 2273 0a11 09       		.byte	0x9
 2274 0a12 5501     		.word	0x155
 2275 0a14 B9090000 		.long	0x9b9
 2276 0a18 01       		.byte	0x1
 2277 0a19 40       		.byte	0x40
 2278 0a1a 1B       		.uleb128 0x1b
 2279 0a1b 72696768 		.ascii "right\0"
 2279      7400
 2280 0a21 09       		.byte	0x9
 2281 0a22 5901     		.word	0x159
 2282 0a24 B9090000 		.long	0x9b9
 2283 0a28 01       		.byte	0x1
 2284 0a29 80       		.byte	0x80
 2285 0a2a 1C       		.uleb128 0x1c
 2286 0a2b 73636965 		.ascii "scientific\0"
 2286      6E746966 
 2286      696300
 2287 0a36 09       		.byte	0x9
 2288 0a37 5C01     		.word	0x15c
GAS LISTING C:\Users\USER\AppData\Local\Temp\ccxBfeO7.s 			page 59


 2289 0a39 B9090000 		.long	0x9b9
 2290 0a3d 01       		.byte	0x1
 2291 0a3e 0001     		.word	0x100
 2292 0a40 1C       		.uleb128 0x1c
 2293 0a41 73686F77 		.ascii "showbase\0"
 2293      62617365 
 2293      00
 2294 0a4a 09       		.byte	0x9
 2295 0a4b 6001     		.word	0x160
 2296 0a4d B9090000 		.long	0x9b9
 2297 0a51 01       		.byte	0x1
 2298 0a52 0002     		.word	0x200
 2299 0a54 1C       		.uleb128 0x1c
 2300 0a55 73686F77 		.ascii "showpoint\0"
 2300      706F696E 
 2300      7400
 2301 0a5f 09       		.byte	0x9
 2302 0a60 6401     		.word	0x164
 2303 0a62 B9090000 		.long	0x9b9
 2304 0a66 01       		.byte	0x1
 2305 0a67 0004     		.word	0x400
 2306 0a69 1C       		.uleb128 0x1c
 2307 0a6a 73686F77 		.ascii "showpos\0"
 2307      706F7300 
 2308 0a72 09       		.byte	0x9
 2309 0a73 6701     		.word	0x167
 2310 0a75 B9090000 		.long	0x9b9
 2311 0a79 01       		.byte	0x1
 2312 0a7a 0008     		.word	0x800
 2313 0a7c 1C       		.uleb128 0x1c
 2314 0a7d 736B6970 		.ascii "skipws\0"
 2314      777300
 2315 0a84 09       		.byte	0x9
 2316 0a85 6A01     		.word	0x16a
 2317 0a87 B9090000 		.long	0x9b9
 2318 0a8b 01       		.byte	0x1
 2319 0a8c 0010     		.word	0x1000
 2320 0a8e 1C       		.uleb128 0x1c
 2321 0a8f 756E6974 		.ascii "unitbuf\0"
 2321      62756600 
 2322 0a97 09       		.byte	0x9
 2323 0a98 6D01     		.word	0x16d
 2324 0a9a B9090000 		.long	0x9b9
 2325 0a9e 01       		.byte	0x1
 2326 0a9f 0020     		.word	0x2000
 2327 0aa1 1C       		.uleb128 0x1c
 2328 0aa2 75707065 		.ascii "uppercase\0"
 2328      72636173 
 2328      6500
 2329 0aac 09       		.byte	0x9
 2330 0aad 7101     		.word	0x171
 2331 0aaf B9090000 		.long	0x9b9
 2332 0ab3 01       		.byte	0x1
 2333 0ab4 0040     		.word	0x4000
 2334 0ab6 1B       		.uleb128 0x1b
 2335 0ab7 61646A75 		.ascii "adjustfield\0"
 2335      73746669 
GAS LISTING C:\Users\USER\AppData\Local\Temp\ccxBfeO7.s 			page 60


 2335      656C6400 
 2336 0ac3 09       		.byte	0x9
 2337 0ac4 7401     		.word	0x174
 2338 0ac6 B9090000 		.long	0x9b9
 2339 0aca 01       		.byte	0x1
 2340 0acb B0       		.byte	0xb0
 2341 0acc 1B       		.uleb128 0x1b
 2342 0acd 62617365 		.ascii "basefield\0"
 2342      6669656C 
 2342      6400
 2343 0ad7 09       		.byte	0x9
 2344 0ad8 7701     		.word	0x177
 2345 0ada B9090000 		.long	0x9b9
 2346 0ade 01       		.byte	0x1
 2347 0adf 4A       		.byte	0x4a
 2348 0ae0 1C       		.uleb128 0x1c
 2349 0ae1 666C6F61 		.ascii "floatfield\0"
 2349      74666965 
 2349      6C6400
 2350 0aec 09       		.byte	0x9
 2351 0aed 7A01     		.word	0x17a
 2352 0aef B9090000 		.long	0x9b9
 2353 0af3 01       		.byte	0x1
 2354 0af4 0401     		.word	0x104
 2355 0af6 1A       		.uleb128 0x1a
 2356 0af7 696F7374 		.ascii "iostate\0"
 2356      61746500 
 2357 0aff 09       		.byte	0x9
 2358 0b00 8801     		.word	0x188
 2359 0b02 31080000 		.long	0x831
 2360 0b06 01       		.byte	0x1
 2361 0b07 1B       		.uleb128 0x1b
 2362 0b08 62616462 		.ascii "badbit\0"
 2362      697400
 2363 0b0f 09       		.byte	0x9
 2364 0b10 8C01     		.word	0x18c
 2365 0b12 180B0000 		.long	0xb18
 2366 0b16 01       		.byte	0x1
 2367 0b17 01       		.byte	0x1
 2368 0b18 0B       		.uleb128 0xb
 2369 0b19 F60A0000 		.long	0xaf6
 2370 0b1d 1B       		.uleb128 0x1b
 2371 0b1e 656F6662 		.ascii "eofbit\0"
 2371      697400
 2372 0b25 09       		.byte	0x9
 2373 0b26 8F01     		.word	0x18f
 2374 0b28 180B0000 		.long	0xb18
 2375 0b2c 01       		.byte	0x1
 2376 0b2d 02       		.byte	0x2
 2377 0b2e 1B       		.uleb128 0x1b
 2378 0b2f 6661696C 		.ascii "failbit\0"
 2378      62697400 
 2379 0b37 09       		.byte	0x9
 2380 0b38 9401     		.word	0x194
 2381 0b3a 180B0000 		.long	0xb18
 2382 0b3e 01       		.byte	0x1
 2383 0b3f 04       		.byte	0x4
GAS LISTING C:\Users\USER\AppData\Local\Temp\ccxBfeO7.s 			page 61


 2384 0b40 1B       		.uleb128 0x1b
 2385 0b41 676F6F64 		.ascii "goodbit\0"
 2385      62697400 
 2386 0b49 09       		.byte	0x9
 2387 0b4a 9701     		.word	0x197
 2388 0b4c 180B0000 		.long	0xb18
 2389 0b50 01       		.byte	0x1
 2390 0b51 00       		.byte	0
 2391 0b52 1A       		.uleb128 0x1a
 2392 0b53 6F70656E 		.ascii "openmode\0"
 2392      6D6F6465 
 2392      00
 2393 0b5c 09       		.byte	0x9
 2394 0b5d A701     		.word	0x1a7
 2395 0b5f C6070000 		.long	0x7c6
 2396 0b63 01       		.byte	0x1
 2397 0b64 1B       		.uleb128 0x1b
 2398 0b65 61707000 		.ascii "app\0"
 2399 0b69 09       		.byte	0x9
 2400 0b6a AA01     		.word	0x1aa
 2401 0b6c 720B0000 		.long	0xb72
 2402 0b70 01       		.byte	0x1
 2403 0b71 01       		.byte	0x1
 2404 0b72 0B       		.uleb128 0xb
 2405 0b73 520B0000 		.long	0xb52
 2406 0b77 1B       		.uleb128 0x1b
 2407 0b78 61746500 		.ascii "ate\0"
 2408 0b7c 09       		.byte	0x9
 2409 0b7d AD01     		.word	0x1ad
 2410 0b7f 720B0000 		.long	0xb72
 2411 0b83 01       		.byte	0x1
 2412 0b84 02       		.byte	0x2
 2413 0b85 1B       		.uleb128 0x1b
 2414 0b86 62696E61 		.ascii "binary\0"
 2414      727900
 2415 0b8d 09       		.byte	0x9
 2416 0b8e B201     		.word	0x1b2
 2417 0b90 720B0000 		.long	0xb72
 2418 0b94 01       		.byte	0x1
 2419 0b95 04       		.byte	0x4
 2420 0b96 1B       		.uleb128 0x1b
 2421 0b97 696E00   		.ascii "in\0"
 2422 0b9a 09       		.byte	0x9
 2423 0b9b B501     		.word	0x1b5
 2424 0b9d 720B0000 		.long	0xb72
 2425 0ba1 01       		.byte	0x1
 2426 0ba2 08       		.byte	0x8
 2427 0ba3 1B       		.uleb128 0x1b
 2428 0ba4 6F757400 		.ascii "out\0"
 2429 0ba8 09       		.byte	0x9
 2430 0ba9 B801     		.word	0x1b8
 2431 0bab 720B0000 		.long	0xb72
 2432 0baf 01       		.byte	0x1
 2433 0bb0 10       		.byte	0x10
 2434 0bb1 1B       		.uleb128 0x1b
 2435 0bb2 7472756E 		.ascii "trunc\0"
 2435      6300
GAS LISTING C:\Users\USER\AppData\Local\Temp\ccxBfeO7.s 			page 62


 2436 0bb8 09       		.byte	0x9
 2437 0bb9 BB01     		.word	0x1bb
 2438 0bbb 720B0000 		.long	0xb72
 2439 0bbf 01       		.byte	0x1
 2440 0bc0 20       		.byte	0x20
 2441 0bc1 1A       		.uleb128 0x1a
 2442 0bc2 7365656B 		.ascii "seekdir\0"
 2442      64697200 
 2443 0bca 09       		.byte	0x9
 2444 0bcb C701     		.word	0x1c7
 2445 0bcd 95080000 		.long	0x895
 2446 0bd1 01       		.byte	0x1
 2447 0bd2 1B       		.uleb128 0x1b
 2448 0bd3 62656700 		.ascii "beg\0"
 2449 0bd7 09       		.byte	0x9
 2450 0bd8 CA01     		.word	0x1ca
 2451 0bda E00B0000 		.long	0xbe0
 2452 0bde 01       		.byte	0x1
 2453 0bdf 00       		.byte	0
 2454 0be0 0B       		.uleb128 0xb
 2455 0be1 C10B0000 		.long	0xbc1
 2456 0be5 1B       		.uleb128 0x1b
 2457 0be6 63757200 		.ascii "cur\0"
 2458 0bea 09       		.byte	0x9
 2459 0beb CD01     		.word	0x1cd
 2460 0bed E00B0000 		.long	0xbe0
 2461 0bf1 01       		.byte	0x1
 2462 0bf2 01       		.byte	0x1
 2463 0bf3 1B       		.uleb128 0x1b
 2464 0bf4 656E6400 		.ascii "end\0"
 2465 0bf8 09       		.byte	0x9
 2466 0bf9 D001     		.word	0x1d0
 2467 0bfb E00B0000 		.long	0xbe0
 2468 0bff 01       		.byte	0x1
 2469 0c00 02       		.byte	0x2
 2470 0c01 00       		.byte	0
 2471 0c02 05       		.uleb128 0x5
 2472 0c03 0A       		.byte	0xa
 2473 0c04 52       		.byte	0x52
 2474 0c05 BB0F0000 		.long	0xfbb
 2475 0c09 05       		.uleb128 0x5
 2476 0c0a 0A       		.byte	0xa
 2477 0c0b 53       		.byte	0x53
 2478 0c0c A00F0000 		.long	0xfa0
 2479 0c10 05       		.uleb128 0x5
 2480 0c11 0A       		.byte	0xa
 2481 0c12 54       		.byte	0x54
 2482 0c13 5B0F0000 		.long	0xf5b
 2483 0c17 05       		.uleb128 0x5
 2484 0c18 0A       		.byte	0xa
 2485 0c19 5C       		.byte	0x5c
 2486 0c1a 521B0000 		.long	0x1b52
 2487 0c1e 05       		.uleb128 0x5
 2488 0c1f 0A       		.byte	0xa
 2489 0c20 65       		.byte	0x65
 2490 0c21 711B0000 		.long	0x1b71
 2491 0c25 05       		.uleb128 0x5
GAS LISTING C:\Users\USER\AppData\Local\Temp\ccxBfeO7.s 			page 63


 2492 0c26 0A       		.byte	0xa
 2493 0c27 68       		.byte	0x68
 2494 0c28 911B0000 		.long	0x1b91
 2495 0c2c 05       		.uleb128 0x5
 2496 0c2d 0A       		.byte	0xa
 2497 0c2e 69       		.byte	0x69
 2498 0c2f AA1B0000 		.long	0x1baa
 2499 0c33 14       		.uleb128 0x14
 2500 0c34 62617369 		.ascii "basic_ostream<char, std::char_traits<char> >\0"
 2500      635F6F73 
 2500      74726561 
 2500      6D3C6368 
 2500      61722C20 
 2501 0c61 7F0C0000 		.long	0xc7f
 2502 0c65 1D       		.uleb128 0x1d
 2503 0c66 5F436861 		.ascii "_CharT\0"
 2503      725400
 2504 0c6d 980F0000 		.long	0xf98
 2505 0c71 1E       		.uleb128 0x1e
 2506 0c72 5F547261 		.ascii "_Traits\0"
 2506      69747300 
 2507 0c7a AB020000 		.long	0x2ab
 2508 0c7e 00       		.byte	0
 2509 0c7f 14       		.uleb128 0x14
 2510 0c80 62617369 		.ascii "basic_istream<char, std::char_traits<char> >\0"
 2510      635F6973 
 2510      74726561 
 2510      6D3C6368 
 2510      61722C20 
 2511 0cad CB0C0000 		.long	0xccb
 2512 0cb1 1D       		.uleb128 0x1d
 2513 0cb2 5F436861 		.ascii "_CharT\0"
 2513      725400
 2514 0cb9 980F0000 		.long	0xf98
 2515 0cbd 1E       		.uleb128 0x1e
 2516 0cbe 5F547261 		.ascii "_Traits\0"
 2516      69747300 
 2517 0cc6 AB020000 		.long	0x2ab
 2518 0cca 00       		.byte	0
 2519 0ccb 1F       		.uleb128 0x1f
 2520 0ccc 11000000 		.secrel32	LASF0
 2521 0cd0 FB0C0000 		.long	0xcfb
 2522 0cd4 20       		.uleb128 0x20
 2523 0cd5 11000000 		.secrel32	LASF0
 2524 0cd9 01       		.byte	0x1
 2525 0cda 3F       		.byte	0x3f
 2526 0cdb 5F5A4E53 		.ascii "_ZNSt9exceptionC4Ev\0"
 2526      74396578 
 2526      63657074 
 2526      696F6E43 
 2526      34457600 
 2527 0cef 01       		.byte	0x1
 2528 0cf0 F40C0000 		.long	0xcf4
 2529 0cf4 18       		.uleb128 0x18
 2530 0cf5 13200000 		.long	0x2013
 2531 0cf9 00       		.byte	0
 2532 0cfa 00       		.byte	0
GAS LISTING C:\Users\USER\AppData\Local\Temp\ccxBfeO7.s 			page 64


 2533 0cfb 08       		.uleb128 0x8
 2534 0cfc 69737472 		.ascii "istream\0"
 2534      65616D00 
 2535 0d04 0B       		.byte	0xb
 2536 0d05 8A       		.byte	0x8a
 2537 0d06 7F0C0000 		.long	0xc7f
 2538 0d0a 21       		.uleb128 0x21
 2539 0d0b 63696E00 		.ascii "cin\0"
 2540 0d0f 03       		.byte	0x3
 2541 0d10 3C       		.byte	0x3c
 2542 0d11 5F5A5374 		.ascii "_ZSt3cin\0"
 2542      3363696E 
 2542      00
 2543 0d1a FB0C0000 		.long	0xcfb
 2544 0d1e 08       		.uleb128 0x8
 2545 0d1f 6F737472 		.ascii "ostream\0"
 2545      65616D00 
 2546 0d27 0B       		.byte	0xb
 2547 0d28 8D       		.byte	0x8d
 2548 0d29 330C0000 		.long	0xc33
 2549 0d2d 21       		.uleb128 0x21
 2550 0d2e 636F7574 		.ascii "cout\0"
 2550      00
 2551 0d33 03       		.byte	0x3
 2552 0d34 3D       		.byte	0x3d
 2553 0d35 5F5A5374 		.ascii "_ZSt4cout\0"
 2553      34636F75 
 2553      7400
 2554 0d3f 1E0D0000 		.long	0xd1e
 2555 0d43 21       		.uleb128 0x21
 2556 0d44 63657272 		.ascii "cerr\0"
 2556      00
 2557 0d49 03       		.byte	0x3
 2558 0d4a 3E       		.byte	0x3e
 2559 0d4b 5F5A5374 		.ascii "_ZSt4cerr\0"
 2559      34636572 
 2559      7200
 2560 0d55 1E0D0000 		.long	0xd1e
 2561 0d59 22       		.uleb128 0x22
 2562 0d5a 5F5F696F 		.ascii "__ioinit\0"
 2562      696E6974 
 2562      00
 2563 0d63 03       		.byte	0x3
 2564 0d64 4A       		.byte	0x4a
 2565 0d65 F0080000 		.long	0x8f0
 2566 0d69 00       		.byte	0
 2567 0d6a 02       		.uleb128 0x2
 2568 0d6b 5F5F676E 		.ascii "__gnu_cxx\0"
 2568      755F6378 
 2568      7800
 2569 0d75 05       		.byte	0x5
 2570 0d76 DD       		.byte	0xdd
 2571 0d77 3D0F0000 		.long	0xf3d
 2572 0d7b 03       		.uleb128 0x3
 2573 0d7c 5F5F6378 		.ascii "__cxx11\0"
 2573      78313100 
 2574 0d84 05       		.byte	0x5
GAS LISTING C:\Users\USER\AppData\Local\Temp\ccxBfeO7.s 			page 65


 2575 0d85 DE       		.byte	0xde
 2576 0d86 04       		.uleb128 0x4
 2577 0d87 05       		.byte	0x5
 2578 0d88 DE       		.byte	0xde
 2579 0d89 7B0D0000 		.long	0xd7b
 2580 0d8d 05       		.uleb128 0x5
 2581 0d8e 04       		.byte	0x4
 2582 0d8f F8       		.byte	0xf8
 2583 0d90 9B180000 		.long	0x189b
 2584 0d94 06       		.uleb128 0x6
 2585 0d95 04       		.byte	0x4
 2586 0d96 0101     		.word	0x101
 2587 0d98 C8180000 		.long	0x18c8
 2588 0d9c 06       		.uleb128 0x6
 2589 0d9d 04       		.byte	0x4
 2590 0d9e 0201     		.word	0x102
 2591 0da0 EC180000 		.long	0x18ec
 2592 0da4 03       		.uleb128 0x3
 2593 0da5 5F5F6F70 		.ascii "__ops\0"
 2593      7300
 2594 0dab 0D       		.byte	0xd
 2595 0dac 24       		.byte	0x24
 2596 0dad 05       		.uleb128 0x5
 2597 0dae 0E       		.byte	0xe
 2598 0daf 2C       		.byte	0x2c
 2599 0db0 6C060000 		.long	0x66c
 2600 0db4 05       		.uleb128 0x5
 2601 0db5 0E       		.byte	0xe
 2602 0db6 2D       		.byte	0x2d
 2603 0db7 8F060000 		.long	0x68f
 2604 0dbb 07       		.uleb128 0x7
 2605 0dbc 5F5F6E75 		.ascii "__numeric_traits_integer<int>\0"
 2605      6D657269 
 2605      635F7472 
 2605      61697473 
 2605      5F696E74 
 2606 0dda 01       		.byte	0x1
 2607 0ddb 0F       		.byte	0xf
 2608 0ddc 37       		.byte	0x37
 2609 0ddd 170E0000 		.long	0xe17
 2610 0de1 23       		.uleb128 0x23
 2611 0de2 2A000000 		.secrel32	LASF1
 2612 0de6 0F       		.byte	0xf
 2613 0de7 3A       		.byte	0x3a
 2614 0de8 3D1B0000 		.long	0x1b3d
 2615 0dec 23       		.uleb128 0x23
 2616 0ded 45000000 		.secrel32	LASF2
 2617 0df1 0F       		.byte	0xf
 2618 0df2 3B       		.byte	0x3b
 2619 0df3 3D1B0000 		.long	0x1b3d
 2620 0df7 23       		.uleb128 0x23
 2621 0df8 30000000 		.secrel32	LASF3
 2622 0dfc 0F       		.byte	0xf
 2623 0dfd 3F       		.byte	0x3f
 2624 0dfe 421B0000 		.long	0x1b42
 2625 0e02 23       		.uleb128 0x23
 2626 0e03 3C000000 		.secrel32	LASF4
GAS LISTING C:\Users\USER\AppData\Local\Temp\ccxBfeO7.s 			page 66


 2627 0e07 0F       		.byte	0xf
 2628 0e08 40       		.byte	0x40
 2629 0e09 3D1B0000 		.long	0x1b3d
 2630 0e0d 24       		.uleb128 0x24
 2631 0e0e 00000000 		.secrel32	LASF5
 2632 0e12 CC0F0000 		.long	0xfcc
 2633 0e16 00       		.byte	0
 2634 0e17 07       		.uleb128 0x7
 2635 0e18 5F5F6E75 		.ascii "__numeric_traits_integer<long unsigned int>\0"
 2635      6D657269 
 2635      635F7472 
 2635      61697473 
 2635      5F696E74 
 2636 0e44 01       		.byte	0x1
 2637 0e45 0F       		.byte	0xf
 2638 0e46 37       		.byte	0x37
 2639 0e47 810E0000 		.long	0xe81
 2640 0e4b 23       		.uleb128 0x23
 2641 0e4c 2A000000 		.secrel32	LASF1
 2642 0e50 0F       		.byte	0xf
 2643 0e51 3A       		.byte	0x3a
 2644 0e52 471B0000 		.long	0x1b47
 2645 0e56 23       		.uleb128 0x23
 2646 0e57 45000000 		.secrel32	LASF2
 2647 0e5b 0F       		.byte	0xf
 2648 0e5c 3B       		.byte	0x3b
 2649 0e5d 471B0000 		.long	0x1b47
 2650 0e61 23       		.uleb128 0x23
 2651 0e62 30000000 		.secrel32	LASF3
 2652 0e66 0F       		.byte	0xf
 2653 0e67 3F       		.byte	0x3f
 2654 0e68 421B0000 		.long	0x1b42
 2655 0e6c 23       		.uleb128 0x23
 2656 0e6d 3C000000 		.secrel32	LASF4
 2657 0e71 0F       		.byte	0xf
 2658 0e72 40       		.byte	0x40
 2659 0e73 3D1B0000 		.long	0x1b3d
 2660 0e77 24       		.uleb128 0x24
 2661 0e78 00000000 		.secrel32	LASF5
 2662 0e7c 42110000 		.long	0x1142
 2663 0e80 00       		.byte	0
 2664 0e81 07       		.uleb128 0x7
 2665 0e82 5F5F6E75 		.ascii "__numeric_traits_integer<char>\0"
 2665      6D657269 
 2665      635F7472 
 2665      61697473 
 2665      5F696E74 
 2666 0ea1 01       		.byte	0x1
 2667 0ea2 0F       		.byte	0xf
 2668 0ea3 37       		.byte	0x37
 2669 0ea4 DE0E0000 		.long	0xede
 2670 0ea8 23       		.uleb128 0x23
 2671 0ea9 2A000000 		.secrel32	LASF1
 2672 0ead 0F       		.byte	0xf
 2673 0eae 3A       		.byte	0x3a
 2674 0eaf EC120000 		.long	0x12ec
 2675 0eb3 23       		.uleb128 0x23
GAS LISTING C:\Users\USER\AppData\Local\Temp\ccxBfeO7.s 			page 67


 2676 0eb4 45000000 		.secrel32	LASF2
 2677 0eb8 0F       		.byte	0xf
 2678 0eb9 3B       		.byte	0x3b
 2679 0eba EC120000 		.long	0x12ec
 2680 0ebe 23       		.uleb128 0x23
 2681 0ebf 30000000 		.secrel32	LASF3
 2682 0ec3 0F       		.byte	0xf
 2683 0ec4 3F       		.byte	0x3f
 2684 0ec5 421B0000 		.long	0x1b42
 2685 0ec9 23       		.uleb128 0x23
 2686 0eca 3C000000 		.secrel32	LASF4
 2687 0ece 0F       		.byte	0xf
 2688 0ecf 40       		.byte	0x40
 2689 0ed0 3D1B0000 		.long	0x1b3d
 2690 0ed4 24       		.uleb128 0x24
 2691 0ed5 00000000 		.secrel32	LASF5
 2692 0ed9 980F0000 		.long	0xf98
 2693 0edd 00       		.byte	0
 2694 0ede 25       		.uleb128 0x25
 2695 0edf 5F5F6E75 		.ascii "__numeric_traits_integer<short int>\0"
 2695      6D657269 
 2695      635F7472 
 2695      61697473 
 2695      5F696E74 
 2696 0f03 01       		.byte	0x1
 2697 0f04 0F       		.byte	0xf
 2698 0f05 37       		.byte	0x37
 2699 0f06 23       		.uleb128 0x23
 2700 0f07 2A000000 		.secrel32	LASF1
 2701 0f0b 0F       		.byte	0xf
 2702 0f0c 3A       		.byte	0x3a
 2703 0f0d C21B0000 		.long	0x1bc2
 2704 0f11 23       		.uleb128 0x23
 2705 0f12 45000000 		.secrel32	LASF2
 2706 0f16 0F       		.byte	0xf
 2707 0f17 3B       		.byte	0x3b
 2708 0f18 C21B0000 		.long	0x1bc2
 2709 0f1c 23       		.uleb128 0x23
 2710 0f1d 30000000 		.secrel32	LASF3
 2711 0f21 0F       		.byte	0xf
 2712 0f22 3F       		.byte	0x3f
 2713 0f23 421B0000 		.long	0x1b42
 2714 0f27 23       		.uleb128 0x23
 2715 0f28 3C000000 		.secrel32	LASF4
 2716 0f2c 0F       		.byte	0xf
 2717 0f2d 40       		.byte	0x40
 2718 0f2e 3D1B0000 		.long	0x1b3d
 2719 0f32 24       		.uleb128 0x24
 2720 0f33 00000000 		.secrel32	LASF5
 2721 0f37 F00F0000 		.long	0xff0
 2722 0f3b 00       		.byte	0
 2723 0f3c 00       		.byte	0
 2724 0f3d 08       		.uleb128 0x8
 2725 0f3e 73697A65 		.ascii "size_t\0"
 2725      5F7400
 2726 0f45 10       		.byte	0x10
 2727 0f46 D8       		.byte	0xd8
GAS LISTING C:\Users\USER\AppData\Local\Temp\ccxBfeO7.s 			page 68


 2728 0f47 4B0F0000 		.long	0xf4b
 2729 0f4b 26       		.uleb128 0x26
 2730 0f4c 04       		.byte	0x4
 2731 0f4d 07       		.byte	0x7
 2732 0f4e 756E7369 		.ascii "unsigned int\0"
 2732      676E6564 
 2732      20696E74 
 2732      00
 2733 0f5b 27       		.uleb128 0x27
 2734 0f5c 77696E74 		.ascii "wint_t\0"
 2734      5F7400
 2735 0f63 10       		.byte	0x10
 2736 0f64 6501     		.word	0x165
 2737 0f66 6A0F0000 		.long	0xf6a
 2738 0f6a 26       		.uleb128 0x26
 2739 0f6b 02       		.byte	0x2
 2740 0f6c 07       		.byte	0x7
 2741 0f6d 73686F72 		.ascii "short unsigned int\0"
 2741      7420756E 
 2741      7369676E 
 2741      65642069 
 2741      6E7400
 2742 0f80 28       		.uleb128 0x28
 2743 0f81 04       		.byte	0x4
 2744 0f82 5F5F6275 		.ascii "__builtin_va_list\0"
 2744      696C7469 
 2744      6E5F7661 
 2744      5F6C6973 
 2744      7400
 2745 0f94 980F0000 		.long	0xf98
 2746 0f98 26       		.uleb128 0x26
 2747 0f99 01       		.byte	0x1
 2748 0f9a 06       		.byte	0x6
 2749 0f9b 63686172 		.ascii "char\0"
 2749      00
 2750 0fa0 08       		.uleb128 0x8
 2751 0fa1 77637479 		.ascii "wctype_t\0"
 2751      70655F74 
 2751      00
 2752 0faa 11       		.byte	0x11
 2753 0fab 3E       		.byte	0x3e
 2754 0fac B00F0000 		.long	0xfb0
 2755 0fb0 26       		.uleb128 0x26
 2756 0fb1 02       		.byte	0x2
 2757 0fb2 07       		.byte	0x7
 2758 0fb3 77636861 		.ascii "wchar_t\0"
 2758      725F7400 
 2759 0fbb 08       		.uleb128 0x8
 2760 0fbc 77637472 		.ascii "wctrans_t\0"
 2760      616E735F 
 2760      7400
 2761 0fc6 11       		.byte	0x11
 2762 0fc7 94       		.byte	0x94
 2763 0fc8 B00F0000 		.long	0xfb0
 2764 0fcc 26       		.uleb128 0x26
 2765 0fcd 04       		.byte	0x4
 2766 0fce 05       		.byte	0x5
GAS LISTING C:\Users\USER\AppData\Local\Temp\ccxBfeO7.s 			page 69


 2767 0fcf 696E7400 		.ascii "int\0"
 2768 0fd3 26       		.uleb128 0x26
 2769 0fd4 04       		.byte	0x4
 2770 0fd5 05       		.byte	0x5
 2771 0fd6 6C6F6E67 		.ascii "long int\0"
 2771      20696E74 
 2771      00
 2772 0fdf 26       		.uleb128 0x26
 2773 0fe0 08       		.byte	0x8
 2774 0fe1 05       		.byte	0x5
 2775 0fe2 6C6F6E67 		.ascii "long long int\0"
 2775      206C6F6E 
 2775      6720696E 
 2775      7400
 2776 0ff0 26       		.uleb128 0x26
 2777 0ff1 02       		.byte	0x2
 2778 0ff2 05       		.byte	0x5
 2779 0ff3 73686F72 		.ascii "short int\0"
 2779      7420696E 
 2779      7400
 2780 0ffd 07       		.uleb128 0x7
 2781 0ffe 5F696F62 		.ascii "_iobuf\0"
 2781      756600
 2782 1005 20       		.byte	0x20
 2783 1006 12       		.byte	0x12
 2784 1007 44       		.byte	0x44
 2785 1008 84100000 		.long	0x1084
 2786 100c 29       		.uleb128 0x29
 2787 100d 5F707472 		.ascii "_ptr\0"
 2787      00
 2788 1012 12       		.byte	0x12
 2789 1013 46       		.byte	0x46
 2790 1014 84100000 		.long	0x1084
 2791 1018 00       		.byte	0
 2792 1019 29       		.uleb128 0x29
 2793 101a 5F636E74 		.ascii "_cnt\0"
 2793      00
 2794 101f 12       		.byte	0x12
 2795 1020 47       		.byte	0x47
 2796 1021 CC0F0000 		.long	0xfcc
 2797 1025 04       		.byte	0x4
 2798 1026 29       		.uleb128 0x29
 2799 1027 5F626173 		.ascii "_base\0"
 2799      6500
 2800 102d 12       		.byte	0x12
 2801 102e 48       		.byte	0x48
 2802 102f 84100000 		.long	0x1084
 2803 1033 08       		.byte	0x8
 2804 1034 29       		.uleb128 0x29
 2805 1035 5F666C61 		.ascii "_flag\0"
 2805      6700
 2806 103b 12       		.byte	0x12
 2807 103c 49       		.byte	0x49
 2808 103d CC0F0000 		.long	0xfcc
 2809 1041 0C       		.byte	0xc
 2810 1042 29       		.uleb128 0x29
 2811 1043 5F66696C 		.ascii "_file\0"
GAS LISTING C:\Users\USER\AppData\Local\Temp\ccxBfeO7.s 			page 70


 2811      6500
 2812 1049 12       		.byte	0x12
 2813 104a 4A       		.byte	0x4a
 2814 104b CC0F0000 		.long	0xfcc
 2815 104f 10       		.byte	0x10
 2816 1050 29       		.uleb128 0x29
 2817 1051 5F636861 		.ascii "_charbuf\0"
 2817      72627566 
 2817      00
 2818 105a 12       		.byte	0x12
 2819 105b 4B       		.byte	0x4b
 2820 105c CC0F0000 		.long	0xfcc
 2821 1060 14       		.byte	0x14
 2822 1061 29       		.uleb128 0x29
 2823 1062 5F627566 		.ascii "_bufsiz\0"
 2823      73697A00 
 2824 106a 12       		.byte	0x12
 2825 106b 4C       		.byte	0x4c
 2826 106c CC0F0000 		.long	0xfcc
 2827 1070 18       		.byte	0x18
 2828 1071 29       		.uleb128 0x29
 2829 1072 5F746D70 		.ascii "_tmpfname\0"
 2829      666E616D 
 2829      6500
 2830 107c 12       		.byte	0x12
 2831 107d 4D       		.byte	0x4d
 2832 107e 84100000 		.long	0x1084
 2833 1082 1C       		.byte	0x1c
 2834 1083 00       		.byte	0
 2835 1084 2A       		.uleb128 0x2a
 2836 1085 04       		.byte	0x4
 2837 1086 980F0000 		.long	0xf98
 2838 108a 08       		.uleb128 0x8
 2839 108b 46494C45 		.ascii "FILE\0"
 2839      00
 2840 1090 12       		.byte	0x12
 2841 1091 4E       		.byte	0x4e
 2842 1092 FD0F0000 		.long	0xffd
 2843 1096 07       		.uleb128 0x7
 2844 1097 746D00   		.ascii "tm\0"
 2845 109a 24       		.byte	0x24
 2846 109b 12       		.byte	0x12
 2847 109c 57       		.byte	0x57
 2848 109d 30110000 		.long	0x1130
 2849 10a1 29       		.uleb128 0x29
 2850 10a2 746D5F73 		.ascii "tm_sec\0"
 2850      656300
 2851 10a9 12       		.byte	0x12
 2852 10aa 58       		.byte	0x58
 2853 10ab CC0F0000 		.long	0xfcc
 2854 10af 00       		.byte	0
 2855 10b0 29       		.uleb128 0x29
 2856 10b1 746D5F6D 		.ascii "tm_min\0"
 2856      696E00
 2857 10b8 12       		.byte	0x12
 2858 10b9 59       		.byte	0x59
 2859 10ba CC0F0000 		.long	0xfcc
GAS LISTING C:\Users\USER\AppData\Local\Temp\ccxBfeO7.s 			page 71


 2860 10be 04       		.byte	0x4
 2861 10bf 29       		.uleb128 0x29
 2862 10c0 746D5F68 		.ascii "tm_hour\0"
 2862      6F757200 
 2863 10c8 12       		.byte	0x12
 2864 10c9 5A       		.byte	0x5a
 2865 10ca CC0F0000 		.long	0xfcc
 2866 10ce 08       		.byte	0x8
 2867 10cf 29       		.uleb128 0x29
 2868 10d0 746D5F6D 		.ascii "tm_mday\0"
 2868      64617900 
 2869 10d8 12       		.byte	0x12
 2870 10d9 5B       		.byte	0x5b
 2871 10da CC0F0000 		.long	0xfcc
 2872 10de 0C       		.byte	0xc
 2873 10df 29       		.uleb128 0x29
 2874 10e0 746D5F6D 		.ascii "tm_mon\0"
 2874      6F6E00
 2875 10e7 12       		.byte	0x12
 2876 10e8 5C       		.byte	0x5c
 2877 10e9 CC0F0000 		.long	0xfcc
 2878 10ed 10       		.byte	0x10
 2879 10ee 29       		.uleb128 0x29
 2880 10ef 746D5F79 		.ascii "tm_year\0"
 2880      65617200 
 2881 10f7 12       		.byte	0x12
 2882 10f8 5D       		.byte	0x5d
 2883 10f9 CC0F0000 		.long	0xfcc
 2884 10fd 14       		.byte	0x14
 2885 10fe 29       		.uleb128 0x29
 2886 10ff 746D5F77 		.ascii "tm_wday\0"
 2886      64617900 
 2887 1107 12       		.byte	0x12
 2888 1108 5E       		.byte	0x5e
 2889 1109 CC0F0000 		.long	0xfcc
 2890 110d 18       		.byte	0x18
 2891 110e 29       		.uleb128 0x29
 2892 110f 746D5F79 		.ascii "tm_yday\0"
 2892      64617900 
 2893 1117 12       		.byte	0x12
 2894 1118 5F       		.byte	0x5f
 2895 1119 CC0F0000 		.long	0xfcc
 2896 111d 1C       		.byte	0x1c
 2897 111e 29       		.uleb128 0x29
 2898 111f 746D5F69 		.ascii "tm_isdst\0"
 2898      73647374 
 2898      00
 2899 1128 12       		.byte	0x12
 2900 1129 60       		.byte	0x60
 2901 112a CC0F0000 		.long	0xfcc
 2902 112e 20       		.byte	0x20
 2903 112f 00       		.byte	0
 2904 1130 27       		.uleb128 0x27
 2905 1131 6D627374 		.ascii "mbstate_t\0"
 2905      6174655F 
 2905      7400
 2906 113b 12       		.byte	0x12
GAS LISTING C:\Users\USER\AppData\Local\Temp\ccxBfeO7.s 			page 72


 2907 113c 2701     		.word	0x127
 2908 113e CC0F0000 		.long	0xfcc
 2909 1142 26       		.uleb128 0x26
 2910 1143 04       		.byte	0x4
 2911 1144 07       		.byte	0x7
 2912 1145 6C6F6E67 		.ascii "long unsigned int\0"
 2912      20756E73 
 2912      69676E65 
 2912      6420696E 
 2912      7400
 2913 1157 26       		.uleb128 0x26
 2914 1158 04       		.byte	0x4
 2915 1159 07       		.byte	0x7
 2916 115a 73697A65 		.ascii "sizetype\0"
 2916      74797065 
 2916      00
 2917 1163 26       		.uleb128 0x26
 2918 1164 01       		.byte	0x1
 2919 1165 06       		.byte	0x6
 2920 1166 7369676E 		.ascii "signed char\0"
 2920      65642063 
 2920      68617200 
 2921 1172 26       		.uleb128 0x26
 2922 1173 01       		.byte	0x1
 2923 1174 08       		.byte	0x8
 2924 1175 756E7369 		.ascii "unsigned char\0"
 2924      676E6564 
 2924      20636861 
 2924      7200
 2925 1183 26       		.uleb128 0x26
 2926 1184 08       		.byte	0x8
 2927 1185 07       		.byte	0x7
 2928 1186 6C6F6E67 		.ascii "long long unsigned int\0"
 2928      206C6F6E 
 2928      6720756E 
 2928      7369676E 
 2928      65642069 
 2929 119d 2B       		.uleb128 0x2b
 2930 119e 62746F77 		.ascii "btowc\0"
 2930      6300
 2931 11a4 12       		.byte	0x12
 2932 11a5 2901     		.word	0x129
 2933 11a7 5B0F0000 		.long	0xf5b
 2934 11ab B5110000 		.long	0x11b5
 2935 11af 0A       		.uleb128 0xa
 2936 11b0 CC0F0000 		.long	0xfcc
 2937 11b4 00       		.byte	0
 2938 11b5 2C       		.uleb128 0x2c
 2939 11b6 66676574 		.ascii "fgetwc\0"
 2939      776300
 2940 11bd 12       		.byte	0x12
 2941 11be 70       		.byte	0x70
 2942 11bf 5B0F0000 		.long	0xf5b
 2943 11c3 CD110000 		.long	0x11cd
 2944 11c7 0A       		.uleb128 0xa
 2945 11c8 CD110000 		.long	0x11cd
 2946 11cc 00       		.byte	0
GAS LISTING C:\Users\USER\AppData\Local\Temp\ccxBfeO7.s 			page 73


 2947 11cd 2A       		.uleb128 0x2a
 2948 11ce 04       		.byte	0x4
 2949 11cf 8A100000 		.long	0x108a
 2950 11d3 2C       		.uleb128 0x2c
 2951 11d4 66676574 		.ascii "fgetws\0"
 2951      777300
 2952 11db 12       		.byte	0x12
 2953 11dc 7B       		.byte	0x7b
 2954 11dd F5110000 		.long	0x11f5
 2955 11e1 F5110000 		.long	0x11f5
 2956 11e5 0A       		.uleb128 0xa
 2957 11e6 F5110000 		.long	0x11f5
 2958 11ea 0A       		.uleb128 0xa
 2959 11eb CC0F0000 		.long	0xfcc
 2960 11ef 0A       		.uleb128 0xa
 2961 11f0 CD110000 		.long	0x11cd
 2962 11f4 00       		.byte	0
 2963 11f5 2A       		.uleb128 0x2a
 2964 11f6 04       		.byte	0x4
 2965 11f7 B00F0000 		.long	0xfb0
 2966 11fb 2C       		.uleb128 0x2c
 2967 11fc 66707574 		.ascii "fputwc\0"
 2967      776300
 2968 1203 12       		.byte	0x12
 2969 1204 71       		.byte	0x71
 2970 1205 5B0F0000 		.long	0xf5b
 2971 1209 18120000 		.long	0x1218
 2972 120d 0A       		.uleb128 0xa
 2973 120e B00F0000 		.long	0xfb0
 2974 1212 0A       		.uleb128 0xa
 2975 1213 CD110000 		.long	0x11cd
 2976 1217 00       		.byte	0
 2977 1218 2C       		.uleb128 0x2c
 2978 1219 66707574 		.ascii "fputws\0"
 2978      777300
 2979 1220 12       		.byte	0x12
 2980 1221 7C       		.byte	0x7c
 2981 1222 CC0F0000 		.long	0xfcc
 2982 1226 35120000 		.long	0x1235
 2983 122a 0A       		.uleb128 0xa
 2984 122b 35120000 		.long	0x1235
 2985 122f 0A       		.uleb128 0xa
 2986 1230 CD110000 		.long	0x11cd
 2987 1234 00       		.byte	0
 2988 1235 2A       		.uleb128 0x2a
 2989 1236 04       		.byte	0x4
 2990 1237 3B120000 		.long	0x123b
 2991 123b 0B       		.uleb128 0xb
 2992 123c B00F0000 		.long	0xfb0
 2993 1240 2B       		.uleb128 0x2b
 2994 1241 66776964 		.ascii "fwide\0"
 2994      6500
 2995 1247 12       		.byte	0x12
 2996 1248 3701     		.word	0x137
 2997 124a CC0F0000 		.long	0xfcc
 2998 124e 5D120000 		.long	0x125d
 2999 1252 0A       		.uleb128 0xa
GAS LISTING C:\Users\USER\AppData\Local\Temp\ccxBfeO7.s 			page 74


 3000 1253 CD110000 		.long	0x11cd
 3001 1257 0A       		.uleb128 0xa
 3002 1258 CC0F0000 		.long	0xfcc
 3003 125c 00       		.byte	0
 3004 125d 2C       		.uleb128 0x2c
 3005 125e 66777072 		.ascii "fwprintf\0"
 3005      696E7466 
 3005      00
 3006 1267 12       		.byte	0x12
 3007 1268 67       		.byte	0x67
 3008 1269 CC0F0000 		.long	0xfcc
 3009 126d 7D120000 		.long	0x127d
 3010 1271 0A       		.uleb128 0xa
 3011 1272 CD110000 		.long	0x11cd
 3012 1276 0A       		.uleb128 0xa
 3013 1277 35120000 		.long	0x1235
 3014 127b 2D       		.uleb128 0x2d
 3015 127c 00       		.byte	0
 3016 127d 2C       		.uleb128 0x2c
 3017 127e 66777363 		.ascii "fwscanf\0"
 3017      616E6600 
 3018 1286 12       		.byte	0x12
 3019 1287 6D       		.byte	0x6d
 3020 1288 CC0F0000 		.long	0xfcc
 3021 128c 9C120000 		.long	0x129c
 3022 1290 0A       		.uleb128 0xa
 3023 1291 CD110000 		.long	0x11cd
 3024 1295 0A       		.uleb128 0xa
 3025 1296 35120000 		.long	0x1235
 3026 129a 2D       		.uleb128 0x2d
 3027 129b 00       		.byte	0
 3028 129c 2C       		.uleb128 0x2c
 3029 129d 67657477 		.ascii "getwc\0"
 3029      6300
 3030 12a3 12       		.byte	0x12
 3031 12a4 7D       		.byte	0x7d
 3032 12a5 5B0F0000 		.long	0xf5b
 3033 12a9 B3120000 		.long	0x12b3
 3034 12ad 0A       		.uleb128 0xa
 3035 12ae CD110000 		.long	0x11cd
 3036 12b2 00       		.byte	0
 3037 12b3 2E       		.uleb128 0x2e
 3038 12b4 67657477 		.ascii "getwchar\0"
 3038      63686172 
 3038      00
 3039 12bd 12       		.byte	0x12
 3040 12be 7E       		.byte	0x7e
 3041 12bf 5B0F0000 		.long	0xf5b
 3042 12c3 2B       		.uleb128 0x2b
 3043 12c4 6D62726C 		.ascii "mbrlen\0"
 3043      656E00
 3044 12cb 12       		.byte	0x12
 3045 12cc 2A01     		.word	0x12a
 3046 12ce 3D0F0000 		.long	0xf3d
 3047 12d2 E6120000 		.long	0x12e6
 3048 12d6 0A       		.uleb128 0xa
 3049 12d7 E6120000 		.long	0x12e6
GAS LISTING C:\Users\USER\AppData\Local\Temp\ccxBfeO7.s 			page 75


 3050 12db 0A       		.uleb128 0xa
 3051 12dc 3D0F0000 		.long	0xf3d
 3052 12e0 0A       		.uleb128 0xa
 3053 12e1 F1120000 		.long	0x12f1
 3054 12e5 00       		.byte	0
 3055 12e6 2A       		.uleb128 0x2a
 3056 12e7 04       		.byte	0x4
 3057 12e8 EC120000 		.long	0x12ec
 3058 12ec 0B       		.uleb128 0xb
 3059 12ed 980F0000 		.long	0xf98
 3060 12f1 2A       		.uleb128 0x2a
 3061 12f2 04       		.byte	0x4
 3062 12f3 30110000 		.long	0x1130
 3063 12f7 2B       		.uleb128 0x2b
 3064 12f8 6D627274 		.ascii "mbrtowc\0"
 3064      6F776300 
 3065 1300 12       		.byte	0x12
 3066 1301 2C01     		.word	0x12c
 3067 1303 3D0F0000 		.long	0xf3d
 3068 1307 20130000 		.long	0x1320
 3069 130b 0A       		.uleb128 0xa
 3070 130c F5110000 		.long	0x11f5
 3071 1310 0A       		.uleb128 0xa
 3072 1311 E6120000 		.long	0x12e6
 3073 1315 0A       		.uleb128 0xa
 3074 1316 3D0F0000 		.long	0xf3d
 3075 131a 0A       		.uleb128 0xa
 3076 131b F1120000 		.long	0x12f1
 3077 131f 00       		.byte	0
 3078 1320 2B       		.uleb128 0x2b
 3079 1321 6D627369 		.ascii "mbsinit\0"
 3079      6E697400 
 3080 1329 12       		.byte	0x12
 3081 132a 3801     		.word	0x138
 3082 132c CC0F0000 		.long	0xfcc
 3083 1330 3A130000 		.long	0x133a
 3084 1334 0A       		.uleb128 0xa
 3085 1335 3A130000 		.long	0x133a
 3086 1339 00       		.byte	0
 3087 133a 2A       		.uleb128 0x2a
 3088 133b 04       		.byte	0x4
 3089 133c 40130000 		.long	0x1340
 3090 1340 0B       		.uleb128 0xb
 3091 1341 30110000 		.long	0x1130
 3092 1345 2B       		.uleb128 0x2b
 3093 1346 6D627372 		.ascii "mbsrtowcs\0"
 3093      746F7763 
 3093      7300
 3094 1350 12       		.byte	0x12
 3095 1351 2E01     		.word	0x12e
 3096 1353 3D0F0000 		.long	0xf3d
 3097 1357 70130000 		.long	0x1370
 3098 135b 0A       		.uleb128 0xa
 3099 135c F5110000 		.long	0x11f5
 3100 1360 0A       		.uleb128 0xa
 3101 1361 70130000 		.long	0x1370
 3102 1365 0A       		.uleb128 0xa
GAS LISTING C:\Users\USER\AppData\Local\Temp\ccxBfeO7.s 			page 76


 3103 1366 3D0F0000 		.long	0xf3d
 3104 136a 0A       		.uleb128 0xa
 3105 136b F1120000 		.long	0x12f1
 3106 136f 00       		.byte	0
 3107 1370 2A       		.uleb128 0x2a
 3108 1371 04       		.byte	0x4
 3109 1372 E6120000 		.long	0x12e6
 3110 1376 2C       		.uleb128 0x2c
 3111 1377 70757477 		.ascii "putwc\0"
 3111      6300
 3112 137d 12       		.byte	0x12
 3113 137e 7F       		.byte	0x7f
 3114 137f 5B0F0000 		.long	0xf5b
 3115 1383 92130000 		.long	0x1392
 3116 1387 0A       		.uleb128 0xa
 3117 1388 5B0F0000 		.long	0xf5b
 3118 138c 0A       		.uleb128 0xa
 3119 138d CD110000 		.long	0x11cd
 3120 1391 00       		.byte	0
 3121 1392 2C       		.uleb128 0x2c
 3122 1393 70757477 		.ascii "putwchar\0"
 3122      63686172 
 3122      00
 3123 139c 12       		.byte	0x12
 3124 139d 80       		.byte	0x80
 3125 139e 5B0F0000 		.long	0xf5b
 3126 13a2 AC130000 		.long	0x13ac
 3127 13a6 0A       		.uleb128 0xa
 3128 13a7 5B0F0000 		.long	0xf5b
 3129 13ab 00       		.byte	0
 3130 13ac 2C       		.uleb128 0x2c
 3131 13ad 73777363 		.ascii "swscanf\0"
 3131      616E6600 
 3132 13b5 12       		.byte	0x12
 3133 13b6 6F       		.byte	0x6f
 3134 13b7 CC0F0000 		.long	0xfcc
 3135 13bb CB130000 		.long	0x13cb
 3136 13bf 0A       		.uleb128 0xa
 3137 13c0 35120000 		.long	0x1235
 3138 13c4 0A       		.uleb128 0xa
 3139 13c5 35120000 		.long	0x1235
 3140 13c9 2D       		.uleb128 0x2d
 3141 13ca 00       		.byte	0
 3142 13cb 2C       		.uleb128 0x2c
 3143 13cc 756E6765 		.ascii "ungetwc\0"
 3143      74776300 
 3144 13d4 12       		.byte	0x12
 3145 13d5 72       		.byte	0x72
 3146 13d6 5B0F0000 		.long	0xf5b
 3147 13da E9130000 		.long	0x13e9
 3148 13de 0A       		.uleb128 0xa
 3149 13df B00F0000 		.long	0xfb0
 3150 13e3 0A       		.uleb128 0xa
 3151 13e4 CD110000 		.long	0x11cd
 3152 13e8 00       		.byte	0
 3153 13e9 2C       		.uleb128 0x2c
 3154 13ea 76667770 		.ascii "vfwprintf\0"
GAS LISTING C:\Users\USER\AppData\Local\Temp\ccxBfeO7.s 			page 77


 3154      72696E74 
 3154      6600
 3155 13f4 12       		.byte	0x12
 3156 13f5 6A       		.byte	0x6a
 3157 13f6 CC0F0000 		.long	0xfcc
 3158 13fa 0E140000 		.long	0x140e
 3159 13fe 0A       		.uleb128 0xa
 3160 13ff CD110000 		.long	0x11cd
 3161 1403 0A       		.uleb128 0xa
 3162 1404 35120000 		.long	0x1235
 3163 1408 0A       		.uleb128 0xa
 3164 1409 800F0000 		.long	0xf80
 3165 140d 00       		.byte	0
 3166 140e 2C       		.uleb128 0x2c
 3167 140f 76667773 		.ascii "vfwscanf\0"
 3167      63616E66 
 3167      00
 3168 1418 12       		.byte	0x12
 3169 1419 9A       		.byte	0x9a
 3170 141a CC0F0000 		.long	0xfcc
 3171 141e 32140000 		.long	0x1432
 3172 1422 0A       		.uleb128 0xa
 3173 1423 CD110000 		.long	0x11cd
 3174 1427 0A       		.uleb128 0xa
 3175 1428 35120000 		.long	0x1235
 3176 142c 0A       		.uleb128 0xa
 3177 142d 800F0000 		.long	0xf80
 3178 1431 00       		.byte	0
 3179 1432 2C       		.uleb128 0x2c
 3180 1433 76737773 		.ascii "vswscanf\0"
 3180      63616E66 
 3180      00
 3181 143c 12       		.byte	0x12
 3182 143d 9C       		.byte	0x9c
 3183 143e CC0F0000 		.long	0xfcc
 3184 1442 56140000 		.long	0x1456
 3185 1446 0A       		.uleb128 0xa
 3186 1447 35120000 		.long	0x1235
 3187 144b 0A       		.uleb128 0xa
 3188 144c 35120000 		.long	0x1235
 3189 1450 0A       		.uleb128 0xa
 3190 1451 800F0000 		.long	0xf80
 3191 1455 00       		.byte	0
 3192 1456 2C       		.uleb128 0x2c
 3193 1457 76777072 		.ascii "vwprintf\0"
 3193      696E7466 
 3193      00
 3194 1460 12       		.byte	0x12
 3195 1461 6B       		.byte	0x6b
 3196 1462 CC0F0000 		.long	0xfcc
 3197 1466 75140000 		.long	0x1475
 3198 146a 0A       		.uleb128 0xa
 3199 146b 35120000 		.long	0x1235
 3200 146f 0A       		.uleb128 0xa
 3201 1470 800F0000 		.long	0xf80
 3202 1474 00       		.byte	0
 3203 1475 2C       		.uleb128 0x2c
GAS LISTING C:\Users\USER\AppData\Local\Temp\ccxBfeO7.s 			page 78


 3204 1476 76777363 		.ascii "vwscanf\0"
 3204      616E6600 
 3205 147e 12       		.byte	0x12
 3206 147f 99       		.byte	0x99
 3207 1480 CC0F0000 		.long	0xfcc
 3208 1484 93140000 		.long	0x1493
 3209 1488 0A       		.uleb128 0xa
 3210 1489 35120000 		.long	0x1235
 3211 148d 0A       		.uleb128 0xa
 3212 148e 800F0000 		.long	0xf80
 3213 1492 00       		.byte	0
 3214 1493 2B       		.uleb128 0x2b
 3215 1494 77637274 		.ascii "wcrtomb\0"
 3215      6F6D6200 
 3216 149c 12       		.byte	0x12
 3217 149d 3001     		.word	0x130
 3218 149f 3D0F0000 		.long	0xf3d
 3219 14a3 B7140000 		.long	0x14b7
 3220 14a7 0A       		.uleb128 0xa
 3221 14a8 84100000 		.long	0x1084
 3222 14ac 0A       		.uleb128 0xa
 3223 14ad B00F0000 		.long	0xfb0
 3224 14b1 0A       		.uleb128 0xa
 3225 14b2 F1120000 		.long	0x12f1
 3226 14b6 00       		.byte	0
 3227 14b7 2C       		.uleb128 0x2c
 3228 14b8 77637363 		.ascii "wcscat\0"
 3228      617400
 3229 14bf 12       		.byte	0x12
 3230 14c0 D9       		.byte	0xd9
 3231 14c1 F5110000 		.long	0x11f5
 3232 14c5 D4140000 		.long	0x14d4
 3233 14c9 0A       		.uleb128 0xa
 3234 14ca F5110000 		.long	0x11f5
 3235 14ce 0A       		.uleb128 0xa
 3236 14cf 35120000 		.long	0x1235
 3237 14d3 00       		.byte	0
 3238 14d4 2C       		.uleb128 0x2c
 3239 14d5 77637363 		.ascii "wcscmp\0"
 3239      6D7000
 3240 14dc 12       		.byte	0x12
 3241 14dd DB       		.byte	0xdb
 3242 14de CC0F0000 		.long	0xfcc
 3243 14e2 F1140000 		.long	0x14f1
 3244 14e6 0A       		.uleb128 0xa
 3245 14e7 35120000 		.long	0x1235
 3246 14eb 0A       		.uleb128 0xa
 3247 14ec 35120000 		.long	0x1235
 3248 14f0 00       		.byte	0
 3249 14f1 2C       		.uleb128 0x2c
 3250 14f2 77637363 		.ascii "wcscoll\0"
 3250      6F6C6C00 
 3251 14fa 12       		.byte	0x12
 3252 14fb DC       		.byte	0xdc
 3253 14fc CC0F0000 		.long	0xfcc
 3254 1500 0F150000 		.long	0x150f
 3255 1504 0A       		.uleb128 0xa
GAS LISTING C:\Users\USER\AppData\Local\Temp\ccxBfeO7.s 			page 79


 3256 1505 35120000 		.long	0x1235
 3257 1509 0A       		.uleb128 0xa
 3258 150a 35120000 		.long	0x1235
 3259 150e 00       		.byte	0
 3260 150f 2C       		.uleb128 0x2c
 3261 1510 77637363 		.ascii "wcscpy\0"
 3261      707900
 3262 1517 12       		.byte	0x12
 3263 1518 DD       		.byte	0xdd
 3264 1519 F5110000 		.long	0x11f5
 3265 151d 2C150000 		.long	0x152c
 3266 1521 0A       		.uleb128 0xa
 3267 1522 F5110000 		.long	0x11f5
 3268 1526 0A       		.uleb128 0xa
 3269 1527 35120000 		.long	0x1235
 3270 152b 00       		.byte	0
 3271 152c 2C       		.uleb128 0x2c
 3272 152d 77637363 		.ascii "wcscspn\0"
 3272      73706E00 
 3273 1535 12       		.byte	0x12
 3274 1536 DE       		.byte	0xde
 3275 1537 3D0F0000 		.long	0xf3d
 3276 153b 4A150000 		.long	0x154a
 3277 153f 0A       		.uleb128 0xa
 3278 1540 35120000 		.long	0x1235
 3279 1544 0A       		.uleb128 0xa
 3280 1545 35120000 		.long	0x1235
 3281 1549 00       		.byte	0
 3282 154a 2C       		.uleb128 0x2c
 3283 154b 77637366 		.ascii "wcsftime\0"
 3283      74696D65 
 3283      00
 3284 1554 12       		.byte	0x12
 3285 1555 CF       		.byte	0xcf
 3286 1556 3D0F0000 		.long	0xf3d
 3287 155a 73150000 		.long	0x1573
 3288 155e 0A       		.uleb128 0xa
 3289 155f F5110000 		.long	0x11f5
 3290 1563 0A       		.uleb128 0xa
 3291 1564 3D0F0000 		.long	0xf3d
 3292 1568 0A       		.uleb128 0xa
 3293 1569 35120000 		.long	0x1235
 3294 156d 0A       		.uleb128 0xa
 3295 156e 73150000 		.long	0x1573
 3296 1572 00       		.byte	0
 3297 1573 2A       		.uleb128 0x2a
 3298 1574 04       		.byte	0x4
 3299 1575 79150000 		.long	0x1579
 3300 1579 0B       		.uleb128 0xb
 3301 157a 96100000 		.long	0x1096
 3302 157e 2C       		.uleb128 0x2c
 3303 157f 7763736C 		.ascii "wcslen\0"
 3303      656E00
 3304 1586 12       		.byte	0x12
 3305 1587 E0       		.byte	0xe0
 3306 1588 3D0F0000 		.long	0xf3d
 3307 158c 96150000 		.long	0x1596
GAS LISTING C:\Users\USER\AppData\Local\Temp\ccxBfeO7.s 			page 80


 3308 1590 0A       		.uleb128 0xa
 3309 1591 35120000 		.long	0x1235
 3310 1595 00       		.byte	0
 3311 1596 2C       		.uleb128 0x2c
 3312 1597 7763736E 		.ascii "wcsncat\0"
 3312      63617400 
 3313 159f 12       		.byte	0x12
 3314 15a0 E1       		.byte	0xe1
 3315 15a1 F5110000 		.long	0x11f5
 3316 15a5 B9150000 		.long	0x15b9
 3317 15a9 0A       		.uleb128 0xa
 3318 15aa F5110000 		.long	0x11f5
 3319 15ae 0A       		.uleb128 0xa
 3320 15af 35120000 		.long	0x1235
 3321 15b3 0A       		.uleb128 0xa
 3322 15b4 3D0F0000 		.long	0xf3d
 3323 15b8 00       		.byte	0
 3324 15b9 2C       		.uleb128 0x2c
 3325 15ba 7763736E 		.ascii "wcsncmp\0"
 3325      636D7000 
 3326 15c2 12       		.byte	0x12
 3327 15c3 E2       		.byte	0xe2
 3328 15c4 CC0F0000 		.long	0xfcc
 3329 15c8 DC150000 		.long	0x15dc
 3330 15cc 0A       		.uleb128 0xa
 3331 15cd 35120000 		.long	0x1235
 3332 15d1 0A       		.uleb128 0xa
 3333 15d2 35120000 		.long	0x1235
 3334 15d6 0A       		.uleb128 0xa
 3335 15d7 3D0F0000 		.long	0xf3d
 3336 15db 00       		.byte	0
 3337 15dc 2C       		.uleb128 0x2c
 3338 15dd 7763736E 		.ascii "wcsncpy\0"
 3338      63707900 
 3339 15e5 12       		.byte	0x12
 3340 15e6 E3       		.byte	0xe3
 3341 15e7 F5110000 		.long	0x11f5
 3342 15eb FF150000 		.long	0x15ff
 3343 15ef 0A       		.uleb128 0xa
 3344 15f0 F5110000 		.long	0x11f5
 3345 15f4 0A       		.uleb128 0xa
 3346 15f5 35120000 		.long	0x1235
 3347 15f9 0A       		.uleb128 0xa
 3348 15fa 3D0F0000 		.long	0xf3d
 3349 15fe 00       		.byte	0
 3350 15ff 2B       		.uleb128 0x2b
 3351 1600 77637372 		.ascii "wcsrtombs\0"
 3351      746F6D62 
 3351      7300
 3352 160a 12       		.byte	0x12
 3353 160b 3201     		.word	0x132
 3354 160d 3D0F0000 		.long	0xf3d
 3355 1611 2A160000 		.long	0x162a
 3356 1615 0A       		.uleb128 0xa
 3357 1616 84100000 		.long	0x1084
 3358 161a 0A       		.uleb128 0xa
 3359 161b 2A160000 		.long	0x162a
GAS LISTING C:\Users\USER\AppData\Local\Temp\ccxBfeO7.s 			page 81


 3360 161f 0A       		.uleb128 0xa
 3361 1620 3D0F0000 		.long	0xf3d
 3362 1624 0A       		.uleb128 0xa
 3363 1625 F1120000 		.long	0x12f1
 3364 1629 00       		.byte	0
 3365 162a 2A       		.uleb128 0x2a
 3366 162b 04       		.byte	0x4
 3367 162c 35120000 		.long	0x1235
 3368 1630 2C       		.uleb128 0x2c
 3369 1631 77637373 		.ascii "wcsspn\0"
 3369      706E00
 3370 1638 12       		.byte	0x12
 3371 1639 E6       		.byte	0xe6
 3372 163a 3D0F0000 		.long	0xf3d
 3373 163e 4D160000 		.long	0x164d
 3374 1642 0A       		.uleb128 0xa
 3375 1643 35120000 		.long	0x1235
 3376 1647 0A       		.uleb128 0xa
 3377 1648 35120000 		.long	0x1235
 3378 164c 00       		.byte	0
 3379 164d 2C       		.uleb128 0x2c
 3380 164e 77637374 		.ascii "wcstod\0"
 3380      6F6400
 3381 1655 12       		.byte	0x12
 3382 1656 A6       		.byte	0xa6
 3383 1657 6A160000 		.long	0x166a
 3384 165b 6A160000 		.long	0x166a
 3385 165f 0A       		.uleb128 0xa
 3386 1660 35120000 		.long	0x1235
 3387 1664 0A       		.uleb128 0xa
 3388 1665 74160000 		.long	0x1674
 3389 1669 00       		.byte	0
 3390 166a 26       		.uleb128 0x26
 3391 166b 08       		.byte	0x8
 3392 166c 04       		.byte	0x4
 3393 166d 646F7562 		.ascii "double\0"
 3393      6C6500
 3394 1674 2A       		.uleb128 0x2a
 3395 1675 04       		.byte	0x4
 3396 1676 F5110000 		.long	0x11f5
 3397 167a 2C       		.uleb128 0x2c
 3398 167b 77637374 		.ascii "wcstof\0"
 3398      6F6600
 3399 1682 12       		.byte	0x12
 3400 1683 A8       		.byte	0xa8
 3401 1684 97160000 		.long	0x1697
 3402 1688 97160000 		.long	0x1697
 3403 168c 0A       		.uleb128 0xa
 3404 168d 35120000 		.long	0x1235
 3405 1691 0A       		.uleb128 0xa
 3406 1692 74160000 		.long	0x1674
 3407 1696 00       		.byte	0
 3408 1697 26       		.uleb128 0x26
 3409 1698 04       		.byte	0x4
 3410 1699 04       		.byte	0x4
 3411 169a 666C6F61 		.ascii "float\0"
 3411      7400
GAS LISTING C:\Users\USER\AppData\Local\Temp\ccxBfeO7.s 			page 82


 3412 16a0 2C       		.uleb128 0x2c
 3413 16a1 77637374 		.ascii "wcstok\0"
 3413      6F6B00
 3414 16a8 12       		.byte	0x12
 3415 16a9 E8       		.byte	0xe8
 3416 16aa F5110000 		.long	0x11f5
 3417 16ae BD160000 		.long	0x16bd
 3418 16b2 0A       		.uleb128 0xa
 3419 16b3 F5110000 		.long	0x11f5
 3420 16b7 0A       		.uleb128 0xa
 3421 16b8 35120000 		.long	0x1235
 3422 16bc 00       		.byte	0
 3423 16bd 2C       		.uleb128 0x2c
 3424 16be 77637374 		.ascii "wcstol\0"
 3424      6F6C00
 3425 16c5 12       		.byte	0x12
 3426 16c6 A4       		.byte	0xa4
 3427 16c7 D30F0000 		.long	0xfd3
 3428 16cb DF160000 		.long	0x16df
 3429 16cf 0A       		.uleb128 0xa
 3430 16d0 35120000 		.long	0x1235
 3431 16d4 0A       		.uleb128 0xa
 3432 16d5 74160000 		.long	0x1674
 3433 16d9 0A       		.uleb128 0xa
 3434 16da CC0F0000 		.long	0xfcc
 3435 16de 00       		.byte	0
 3436 16df 2C       		.uleb128 0x2c
 3437 16e0 77637374 		.ascii "wcstoul\0"
 3437      6F756C00 
 3438 16e8 12       		.byte	0x12
 3439 16e9 A5       		.byte	0xa5
 3440 16ea 42110000 		.long	0x1142
 3441 16ee 02170000 		.long	0x1702
 3442 16f2 0A       		.uleb128 0xa
 3443 16f3 35120000 		.long	0x1235
 3444 16f7 0A       		.uleb128 0xa
 3445 16f8 74160000 		.long	0x1674
 3446 16fc 0A       		.uleb128 0xa
 3447 16fd CC0F0000 		.long	0xfcc
 3448 1701 00       		.byte	0
 3449 1702 2C       		.uleb128 0x2c
 3450 1703 77637378 		.ascii "wcsxfrm\0"
 3450      66726D00 
 3451 170b 12       		.byte	0x12
 3452 170c E9       		.byte	0xe9
 3453 170d 3D0F0000 		.long	0xf3d
 3454 1711 25170000 		.long	0x1725
 3455 1715 0A       		.uleb128 0xa
 3456 1716 F5110000 		.long	0x11f5
 3457 171a 0A       		.uleb128 0xa
 3458 171b 35120000 		.long	0x1235
 3459 171f 0A       		.uleb128 0xa
 3460 1720 3D0F0000 		.long	0xf3d
 3461 1724 00       		.byte	0
 3462 1725 2B       		.uleb128 0x2b
 3463 1726 7763746F 		.ascii "wctob\0"
 3463      6200
GAS LISTING C:\Users\USER\AppData\Local\Temp\ccxBfeO7.s 			page 83


 3464 172c 12       		.byte	0x12
 3465 172d 3401     		.word	0x134
 3466 172f CC0F0000 		.long	0xfcc
 3467 1733 3D170000 		.long	0x173d
 3468 1737 0A       		.uleb128 0xa
 3469 1738 5B0F0000 		.long	0xf5b
 3470 173c 00       		.byte	0
 3471 173d 2B       		.uleb128 0x2b
 3472 173e 776D656D 		.ascii "wmemcmp\0"
 3472      636D7000 
 3473 1746 12       		.byte	0x12
 3474 1747 4201     		.word	0x142
 3475 1749 CC0F0000 		.long	0xfcc
 3476 174d 61170000 		.long	0x1761
 3477 1751 0A       		.uleb128 0xa
 3478 1752 35120000 		.long	0x1235
 3479 1756 0A       		.uleb128 0xa
 3480 1757 35120000 		.long	0x1235
 3481 175b 0A       		.uleb128 0xa
 3482 175c 3D0F0000 		.long	0xf3d
 3483 1760 00       		.byte	0
 3484 1761 2B       		.uleb128 0x2b
 3485 1762 776D656D 		.ascii "wmemcpy\0"
 3485      63707900 
 3486 176a 12       		.byte	0x12
 3487 176b 4301     		.word	0x143
 3488 176d F5110000 		.long	0x11f5
 3489 1771 85170000 		.long	0x1785
 3490 1775 0A       		.uleb128 0xa
 3491 1776 F5110000 		.long	0x11f5
 3492 177a 0A       		.uleb128 0xa
 3493 177b 35120000 		.long	0x1235
 3494 177f 0A       		.uleb128 0xa
 3495 1780 3D0F0000 		.long	0xf3d
 3496 1784 00       		.byte	0
 3497 1785 2B       		.uleb128 0x2b
 3498 1786 776D656D 		.ascii "wmemmove\0"
 3498      6D6F7665 
 3498      00
 3499 178f 12       		.byte	0x12
 3500 1790 4601     		.word	0x146
 3501 1792 F5110000 		.long	0x11f5
 3502 1796 AA170000 		.long	0x17aa
 3503 179a 0A       		.uleb128 0xa
 3504 179b F5110000 		.long	0x11f5
 3505 179f 0A       		.uleb128 0xa
 3506 17a0 35120000 		.long	0x1235
 3507 17a4 0A       		.uleb128 0xa
 3508 17a5 3D0F0000 		.long	0xf3d
 3509 17a9 00       		.byte	0
 3510 17aa 2B       		.uleb128 0x2b
 3511 17ab 776D656D 		.ascii "wmemset\0"
 3511      73657400 
 3512 17b3 12       		.byte	0x12
 3513 17b4 4001     		.word	0x140
 3514 17b6 F5110000 		.long	0x11f5
 3515 17ba CE170000 		.long	0x17ce
GAS LISTING C:\Users\USER\AppData\Local\Temp\ccxBfeO7.s 			page 84


 3516 17be 0A       		.uleb128 0xa
 3517 17bf F5110000 		.long	0x11f5
 3518 17c3 0A       		.uleb128 0xa
 3519 17c4 B00F0000 		.long	0xfb0
 3520 17c8 0A       		.uleb128 0xa
 3521 17c9 3D0F0000 		.long	0xf3d
 3522 17cd 00       		.byte	0
 3523 17ce 2C       		.uleb128 0x2c
 3524 17cf 77707269 		.ascii "wprintf\0"
 3524      6E746600 
 3525 17d7 12       		.byte	0x12
 3526 17d8 68       		.byte	0x68
 3527 17d9 CC0F0000 		.long	0xfcc
 3528 17dd E8170000 		.long	0x17e8
 3529 17e1 0A       		.uleb128 0xa
 3530 17e2 35120000 		.long	0x1235
 3531 17e6 2D       		.uleb128 0x2d
 3532 17e7 00       		.byte	0
 3533 17e8 2C       		.uleb128 0x2c
 3534 17e9 77736361 		.ascii "wscanf\0"
 3534      6E6600
 3535 17f0 12       		.byte	0x12
 3536 17f1 6E       		.byte	0x6e
 3537 17f2 CC0F0000 		.long	0xfcc
 3538 17f6 01180000 		.long	0x1801
 3539 17fa 0A       		.uleb128 0xa
 3540 17fb 35120000 		.long	0x1235
 3541 17ff 2D       		.uleb128 0x2d
 3542 1800 00       		.byte	0
 3543 1801 2C       		.uleb128 0x2c
 3544 1802 77637363 		.ascii "wcschr\0"
 3544      687200
 3545 1809 12       		.byte	0x12
 3546 180a DA       		.byte	0xda
 3547 180b F5110000 		.long	0x11f5
 3548 180f 1E180000 		.long	0x181e
 3549 1813 0A       		.uleb128 0xa
 3550 1814 35120000 		.long	0x1235
 3551 1818 0A       		.uleb128 0xa
 3552 1819 B00F0000 		.long	0xfb0
 3553 181d 00       		.byte	0
 3554 181e 2C       		.uleb128 0x2c
 3555 181f 77637370 		.ascii "wcspbrk\0"
 3555      62726B00 
 3556 1827 12       		.byte	0x12
 3557 1828 E4       		.byte	0xe4
 3558 1829 F5110000 		.long	0x11f5
 3559 182d 3C180000 		.long	0x183c
 3560 1831 0A       		.uleb128 0xa
 3561 1832 35120000 		.long	0x1235
 3562 1836 0A       		.uleb128 0xa
 3563 1837 35120000 		.long	0x1235
 3564 183b 00       		.byte	0
 3565 183c 2C       		.uleb128 0x2c
 3566 183d 77637372 		.ascii "wcsrchr\0"
 3566      63687200 
 3567 1845 12       		.byte	0x12
GAS LISTING C:\Users\USER\AppData\Local\Temp\ccxBfeO7.s 			page 85


 3568 1846 E5       		.byte	0xe5
 3569 1847 F5110000 		.long	0x11f5
 3570 184b 5A180000 		.long	0x185a
 3571 184f 0A       		.uleb128 0xa
 3572 1850 35120000 		.long	0x1235
 3573 1854 0A       		.uleb128 0xa
 3574 1855 B00F0000 		.long	0xfb0
 3575 1859 00       		.byte	0
 3576 185a 2C       		.uleb128 0x2c
 3577 185b 77637373 		.ascii "wcsstr\0"
 3577      747200
 3578 1862 12       		.byte	0x12
 3579 1863 E7       		.byte	0xe7
 3580 1864 F5110000 		.long	0x11f5
 3581 1868 77180000 		.long	0x1877
 3582 186c 0A       		.uleb128 0xa
 3583 186d 35120000 		.long	0x1235
 3584 1871 0A       		.uleb128 0xa
 3585 1872 35120000 		.long	0x1235
 3586 1876 00       		.byte	0
 3587 1877 2B       		.uleb128 0x2b
 3588 1878 776D656D 		.ascii "wmemchr\0"
 3588      63687200 
 3589 1880 12       		.byte	0x12
 3590 1881 4101     		.word	0x141
 3591 1883 F5110000 		.long	0x11f5
 3592 1887 9B180000 		.long	0x189b
 3593 188b 0A       		.uleb128 0xa
 3594 188c 35120000 		.long	0x1235
 3595 1890 0A       		.uleb128 0xa
 3596 1891 B00F0000 		.long	0xfb0
 3597 1895 0A       		.uleb128 0xa
 3598 1896 3D0F0000 		.long	0xf3d
 3599 189a 00       		.byte	0
 3600 189b 2C       		.uleb128 0x2c
 3601 189c 77637374 		.ascii "wcstold\0"
 3601      6F6C6400 
 3602 18a4 12       		.byte	0x12
 3603 18a5 A9       		.byte	0xa9
 3604 18a6 B9180000 		.long	0x18b9
 3605 18aa B9180000 		.long	0x18b9
 3606 18ae 0A       		.uleb128 0xa
 3607 18af 35120000 		.long	0x1235
 3608 18b3 0A       		.uleb128 0xa
 3609 18b4 74160000 		.long	0x1674
 3610 18b8 00       		.byte	0
 3611 18b9 26       		.uleb128 0x26
 3612 18ba 0C       		.byte	0xc
 3613 18bb 04       		.byte	0x4
 3614 18bc 6C6F6E67 		.ascii "long double\0"
 3614      20646F75 
 3614      626C6500 
 3615 18c8 2B       		.uleb128 0x2b
 3616 18c9 77637374 		.ascii "wcstoll\0"
 3616      6F6C6C00 
 3617 18d1 12       		.byte	0x12
 3618 18d2 4701     		.word	0x147
GAS LISTING C:\Users\USER\AppData\Local\Temp\ccxBfeO7.s 			page 86


 3619 18d4 DF0F0000 		.long	0xfdf
 3620 18d8 EC180000 		.long	0x18ec
 3621 18dc 0A       		.uleb128 0xa
 3622 18dd 35120000 		.long	0x1235
 3623 18e1 0A       		.uleb128 0xa
 3624 18e2 74160000 		.long	0x1674
 3625 18e6 0A       		.uleb128 0xa
 3626 18e7 CC0F0000 		.long	0xfcc
 3627 18eb 00       		.byte	0
 3628 18ec 2B       		.uleb128 0x2b
 3629 18ed 77637374 		.ascii "wcstoull\0"
 3629      6F756C6C 
 3629      00
 3630 18f6 12       		.byte	0x12
 3631 18f7 4901     		.word	0x149
 3632 18f9 83110000 		.long	0x1183
 3633 18fd 11190000 		.long	0x1911
 3634 1901 0A       		.uleb128 0xa
 3635 1902 35120000 		.long	0x1235
 3636 1906 0A       		.uleb128 0xa
 3637 1907 74160000 		.long	0x1674
 3638 190b 0A       		.uleb128 0xa
 3639 190c CC0F0000 		.long	0xfcc
 3640 1910 00       		.byte	0
 3641 1911 02       		.uleb128 0x2
 3642 1912 5F5F676E 		.ascii "__gnu_debug\0"
 3642      755F6465 
 3642      62756700 
 3643 191e 06       		.byte	0x6
 3644 191f 37       		.byte	0x37
 3645 1920 2C190000 		.long	0x192c
 3646 1924 04       		.uleb128 0x4
 3647 1925 06       		.byte	0x6
 3648 1926 38       		.byte	0x38
 3649 1927 A0020000 		.long	0x2a0
 3650 192b 00       		.byte	0
 3651 192c 2F       		.uleb128 0x2f
 3652 192d 04       		.byte	0x4
 3653 192e C5020000 		.long	0x2c5
 3654 1932 2F       		.uleb128 0x2f
 3655 1933 04       		.byte	0x4
 3656 1934 22030000 		.long	0x322
 3657 1938 26       		.uleb128 0x26
 3658 1939 01       		.byte	0x1
 3659 193a 02       		.byte	0x2
 3660 193b 626F6F6C 		.ascii "bool\0"
 3660      00
 3661 1940 2A       		.uleb128 0x2a
 3662 1941 04       		.byte	0x4
 3663 1942 22030000 		.long	0x322
 3664 1946 2A       		.uleb128 0x2a
 3665 1947 04       		.byte	0x4
 3666 1948 C5020000 		.long	0x2c5
 3667 194c 2F       		.uleb128 0x2f
 3668 194d 04       		.byte	0x4
 3669 194e 74050000 		.long	0x574
 3670 1952 07       		.uleb128 0x7
GAS LISTING C:\Users\USER\AppData\Local\Temp\ccxBfeO7.s 			page 87


 3671 1953 6C636F6E 		.ascii "lconv\0"
 3671      7600
 3672 1959 30       		.byte	0x30
 3673 195a 13       		.byte	0x13
 3674 195b 2D       		.byte	0x2d
 3675 195c F11A0000 		.long	0x1af1
 3676 1960 29       		.uleb128 0x29
 3677 1961 64656369 		.ascii "decimal_point\0"
 3677      6D616C5F 
 3677      706F696E 
 3677      7400
 3678 196f 13       		.byte	0x13
 3679 1970 2F       		.byte	0x2f
 3680 1971 84100000 		.long	0x1084
 3681 1975 00       		.byte	0
 3682 1976 29       		.uleb128 0x29
 3683 1977 74686F75 		.ascii "thousands_sep\0"
 3683      73616E64 
 3683      735F7365 
 3683      7000
 3684 1985 13       		.byte	0x13
 3685 1986 30       		.byte	0x30
 3686 1987 84100000 		.long	0x1084
 3687 198b 04       		.byte	0x4
 3688 198c 29       		.uleb128 0x29
 3689 198d 67726F75 		.ascii "grouping\0"
 3689      70696E67 
 3689      00
 3690 1996 13       		.byte	0x13
 3691 1997 31       		.byte	0x31
 3692 1998 84100000 		.long	0x1084
 3693 199c 08       		.byte	0x8
 3694 199d 29       		.uleb128 0x29
 3695 199e 696E745F 		.ascii "int_curr_symbol\0"
 3695      63757272 
 3695      5F73796D 
 3695      626F6C00 
 3696 19ae 13       		.byte	0x13
 3697 19af 32       		.byte	0x32
 3698 19b0 84100000 		.long	0x1084
 3699 19b4 0C       		.byte	0xc
 3700 19b5 29       		.uleb128 0x29
 3701 19b6 63757272 		.ascii "currency_symbol\0"
 3701      656E6379 
 3701      5F73796D 
 3701      626F6C00 
 3702 19c6 13       		.byte	0x13
 3703 19c7 33       		.byte	0x33
 3704 19c8 84100000 		.long	0x1084
 3705 19cc 10       		.byte	0x10
 3706 19cd 29       		.uleb128 0x29
 3707 19ce 6D6F6E5F 		.ascii "mon_decimal_point\0"
 3707      64656369 
 3707      6D616C5F 
 3707      706F696E 
 3707      7400
 3708 19e0 13       		.byte	0x13
GAS LISTING C:\Users\USER\AppData\Local\Temp\ccxBfeO7.s 			page 88


 3709 19e1 34       		.byte	0x34
 3710 19e2 84100000 		.long	0x1084
 3711 19e6 14       		.byte	0x14
 3712 19e7 29       		.uleb128 0x29
 3713 19e8 6D6F6E5F 		.ascii "mon_thousands_sep\0"
 3713      74686F75 
 3713      73616E64 
 3713      735F7365 
 3713      7000
 3714 19fa 13       		.byte	0x13
 3715 19fb 35       		.byte	0x35
 3716 19fc 84100000 		.long	0x1084
 3717 1a00 18       		.byte	0x18
 3718 1a01 29       		.uleb128 0x29
 3719 1a02 6D6F6E5F 		.ascii "mon_grouping\0"
 3719      67726F75 
 3719      70696E67 
 3719      00
 3720 1a0f 13       		.byte	0x13
 3721 1a10 36       		.byte	0x36
 3722 1a11 84100000 		.long	0x1084
 3723 1a15 1C       		.byte	0x1c
 3724 1a16 29       		.uleb128 0x29
 3725 1a17 706F7369 		.ascii "positive_sign\0"
 3725      74697665 
 3725      5F736967 
 3725      6E00
 3726 1a25 13       		.byte	0x13
 3727 1a26 37       		.byte	0x37
 3728 1a27 84100000 		.long	0x1084
 3729 1a2b 20       		.byte	0x20
 3730 1a2c 29       		.uleb128 0x29
 3731 1a2d 6E656761 		.ascii "negative_sign\0"
 3731      74697665 
 3731      5F736967 
 3731      6E00
 3732 1a3b 13       		.byte	0x13
 3733 1a3c 38       		.byte	0x38
 3734 1a3d 84100000 		.long	0x1084
 3735 1a41 24       		.byte	0x24
 3736 1a42 29       		.uleb128 0x29
 3737 1a43 696E745F 		.ascii "int_frac_digits\0"
 3737      66726163 
 3737      5F646967 
 3737      69747300 
 3738 1a53 13       		.byte	0x13
 3739 1a54 39       		.byte	0x39
 3740 1a55 980F0000 		.long	0xf98
 3741 1a59 28       		.byte	0x28
 3742 1a5a 29       		.uleb128 0x29
 3743 1a5b 66726163 		.ascii "frac_digits\0"
 3743      5F646967 
 3743      69747300 
 3744 1a67 13       		.byte	0x13
 3745 1a68 3A       		.byte	0x3a
 3746 1a69 980F0000 		.long	0xf98
 3747 1a6d 29       		.byte	0x29
GAS LISTING C:\Users\USER\AppData\Local\Temp\ccxBfeO7.s 			page 89


 3748 1a6e 29       		.uleb128 0x29
 3749 1a6f 705F6373 		.ascii "p_cs_precedes\0"
 3749      5F707265 
 3749      63656465 
 3749      7300
 3750 1a7d 13       		.byte	0x13
 3751 1a7e 3B       		.byte	0x3b
 3752 1a7f 980F0000 		.long	0xf98
 3753 1a83 2A       		.byte	0x2a
 3754 1a84 29       		.uleb128 0x29
 3755 1a85 705F7365 		.ascii "p_sep_by_space\0"
 3755      705F6279 
 3755      5F737061 
 3755      636500
 3756 1a94 13       		.byte	0x13
 3757 1a95 3C       		.byte	0x3c
 3758 1a96 980F0000 		.long	0xf98
 3759 1a9a 2B       		.byte	0x2b
 3760 1a9b 29       		.uleb128 0x29
 3761 1a9c 6E5F6373 		.ascii "n_cs_precedes\0"
 3761      5F707265 
 3761      63656465 
 3761      7300
 3762 1aaa 13       		.byte	0x13
 3763 1aab 3D       		.byte	0x3d
 3764 1aac 980F0000 		.long	0xf98
 3765 1ab0 2C       		.byte	0x2c
 3766 1ab1 29       		.uleb128 0x29
 3767 1ab2 6E5F7365 		.ascii "n_sep_by_space\0"
 3767      705F6279 
 3767      5F737061 
 3767      636500
 3768 1ac1 13       		.byte	0x13
 3769 1ac2 3E       		.byte	0x3e
 3770 1ac3 980F0000 		.long	0xf98
 3771 1ac7 2D       		.byte	0x2d
 3772 1ac8 29       		.uleb128 0x29
 3773 1ac9 705F7369 		.ascii "p_sign_posn\0"
 3773      676E5F70 
 3773      6F736E00 
 3774 1ad5 13       		.byte	0x13
 3775 1ad6 3F       		.byte	0x3f
 3776 1ad7 980F0000 		.long	0xf98
 3777 1adb 2E       		.byte	0x2e
 3778 1adc 29       		.uleb128 0x29
 3779 1add 6E5F7369 		.ascii "n_sign_posn\0"
 3779      676E5F70 
 3779      6F736E00 
 3780 1ae9 13       		.byte	0x13
 3781 1aea 40       		.byte	0x40
 3782 1aeb 980F0000 		.long	0xf98
 3783 1aef 2F       		.byte	0x2f
 3784 1af0 00       		.byte	0
 3785 1af1 2C       		.uleb128 0x2c
 3786 1af2 7365746C 		.ascii "setlocale\0"
 3786      6F63616C 
 3786      6500
GAS LISTING C:\Users\USER\AppData\Local\Temp\ccxBfeO7.s 			page 90


 3787 1afc 13       		.byte	0x13
 3788 1afd 47       		.byte	0x47
 3789 1afe 84100000 		.long	0x1084
 3790 1b02 111B0000 		.long	0x1b11
 3791 1b06 0A       		.uleb128 0xa
 3792 1b07 CC0F0000 		.long	0xfcc
 3793 1b0b 0A       		.uleb128 0xa
 3794 1b0c E6120000 		.long	0x12e6
 3795 1b10 00       		.byte	0
 3796 1b11 2E       		.uleb128 0x2e
 3797 1b12 6C6F6361 		.ascii "localeconv\0"
 3797      6C65636F 
 3797      6E7600
 3798 1b1d 13       		.byte	0x13
 3799 1b1e 48       		.byte	0x48
 3800 1b1f 231B0000 		.long	0x1b23
 3801 1b23 2A       		.uleb128 0x2a
 3802 1b24 04       		.byte	0x4
 3803 1b25 52190000 		.long	0x1952
 3804 1b29 08       		.uleb128 0x8
 3805 1b2a 5F41746F 		.ascii "_Atomic_word\0"
 3805      6D69635F 
 3805      776F7264 
 3805      00
 3806 1b37 14       		.byte	0x14
 3807 1b38 20       		.byte	0x20
 3808 1b39 CC0F0000 		.long	0xfcc
 3809 1b3d 0B       		.uleb128 0xb
 3810 1b3e CC0F0000 		.long	0xfcc
 3811 1b42 0B       		.uleb128 0xb
 3812 1b43 38190000 		.long	0x1938
 3813 1b47 0B       		.uleb128 0xb
 3814 1b48 42110000 		.long	0x1142
 3815 1b4c 2A       		.uleb128 0x2a
 3816 1b4d 04       		.byte	0x4
 3817 1b4e F0080000 		.long	0x8f0
 3818 1b52 2C       		.uleb128 0x2c
 3819 1b53 69737763 		.ascii "iswctype\0"
 3819      74797065 
 3819      00
 3820 1b5c 15       		.byte	0x15
 3821 1b5d C4       		.byte	0xc4
 3822 1b5e CC0F0000 		.long	0xfcc
 3823 1b62 711B0000 		.long	0x1b71
 3824 1b66 0A       		.uleb128 0xa
 3825 1b67 5B0F0000 		.long	0xf5b
 3826 1b6b 0A       		.uleb128 0xa
 3827 1b6c A00F0000 		.long	0xfa0
 3828 1b70 00       		.byte	0
 3829 1b71 2C       		.uleb128 0x2c
 3830 1b72 746F7763 		.ascii "towctrans\0"
 3830      7472616E 
 3830      7300
 3831 1b7c 11       		.byte	0x11
 3832 1b7d 9D       		.byte	0x9d
 3833 1b7e 5B0F0000 		.long	0xf5b
 3834 1b82 911B0000 		.long	0x1b91
GAS LISTING C:\Users\USER\AppData\Local\Temp\ccxBfeO7.s 			page 91


 3835 1b86 0A       		.uleb128 0xa
 3836 1b87 5B0F0000 		.long	0xf5b
 3837 1b8b 0A       		.uleb128 0xa
 3838 1b8c BB0F0000 		.long	0xfbb
 3839 1b90 00       		.byte	0
 3840 1b91 2C       		.uleb128 0x2c
 3841 1b92 77637472 		.ascii "wctrans\0"
 3841      616E7300 
 3842 1b9a 11       		.byte	0x11
 3843 1b9b 9E       		.byte	0x9e
 3844 1b9c BB0F0000 		.long	0xfbb
 3845 1ba0 AA1B0000 		.long	0x1baa
 3846 1ba4 0A       		.uleb128 0xa
 3847 1ba5 E6120000 		.long	0x12e6
 3848 1ba9 00       		.byte	0
 3849 1baa 2C       		.uleb128 0x2c
 3850 1bab 77637479 		.ascii "wctype\0"
 3850      706500
 3851 1bb2 11       		.byte	0x11
 3852 1bb3 9F       		.byte	0x9f
 3853 1bb4 A00F0000 		.long	0xfa0
 3854 1bb8 C21B0000 		.long	0x1bc2
 3855 1bbc 0A       		.uleb128 0xa
 3856 1bbd E6120000 		.long	0x12e6
 3857 1bc1 00       		.byte	0
 3858 1bc2 0B       		.uleb128 0xb
 3859 1bc3 F00F0000 		.long	0xff0
 3860 1bc7 04       		.uleb128 0x4
 3861 1bc8 02       		.byte	0x2
 3862 1bc9 A7       		.byte	0xa7
 3863 1bca E3000000 		.long	0xe3
 3864 1bce 30       		.uleb128 0x30
 3865 1bcf 4E6F646F 		.ascii "Nodo<char>\0"
 3865      3C636861 
 3865      723E00
 3866 1bda 0C       		.byte	0xc
 3867 1bdb 02       		.byte	0x2
 3868 1bdc B6       		.byte	0xb6
 3869 1bdd CE1B0000 		.long	0x1bce
 3870 1be1 AA1C0000 		.long	0x1caa
 3871 1be5 31       		.uleb128 0x31
 3872 1be6 5F767074 		.ascii "_vptr.Nodo\0"
 3872      722E4E6F 
 3872      646F00
 3873 1bf1 B51C0000 		.long	0x1cb5
 3874 1bf5 00       		.byte	0
 3875 1bf6 01       		.byte	0x1
 3876 1bf7 29       		.uleb128 0x29
 3877 1bf8 6461746F 		.ascii "dato\0"
 3877      00
 3878 1bfd 02       		.byte	0x2
 3879 1bfe B9       		.byte	0xb9
 3880 1bff 980F0000 		.long	0xf98
 3881 1c03 04       		.byte	0x4
 3882 1c04 29       		.uleb128 0x29
 3883 1c05 73696775 		.ascii "siguiente\0"
 3883      69656E74 
GAS LISTING C:\Users\USER\AppData\Local\Temp\ccxBfeO7.s 			page 92


 3883      6500
 3884 1c0f 02       		.byte	0x2
 3885 1c10 BA       		.byte	0xba
 3886 1c11 D11C0000 		.long	0x1cd1
 3887 1c15 08       		.byte	0x8
 3888 1c16 32       		.uleb128 0x32
 3889 1c17 4E6F646F 		.ascii "Nodo\0"
 3889      00
 3890 1c1c 5F5A4E34 		.ascii "_ZN4NodoIcEC4ERKS0_\0"
 3890      4E6F646F 
 3890      49634543 
 3890      3445524B 
 3890      53305F00 
 3891 1c30 01       		.byte	0x1
 3892 1c31 391C0000 		.long	0x1c39
 3893 1c35 441C0000 		.long	0x1c44
 3894 1c39 18       		.uleb128 0x18
 3895 1c3a D11C0000 		.long	0x1cd1
 3896 1c3e 0A       		.uleb128 0xa
 3897 1c3f D71C0000 		.long	0x1cd7
 3898 1c43 00       		.byte	0
 3899 1c44 33       		.uleb128 0x33
 3900 1c45 4E6F646F 		.ascii "Nodo\0"
 3900      00
 3901 1c4a 02       		.byte	0x2
 3902 1c4b BD       		.byte	0xbd
 3903 1c4c 5F5A4E34 		.ascii "_ZN4NodoIcEC4Ec\0"
 3903      4E6F646F 
 3903      49634543 
 3903      34456300 
 3904 1c5c 01       		.byte	0x1
 3905 1c5d 651C0000 		.long	0x1c65
 3906 1c61 701C0000 		.long	0x1c70
 3907 1c65 18       		.uleb128 0x18
 3908 1c66 D11C0000 		.long	0x1cd1
 3909 1c6a 0A       		.uleb128 0xa
 3910 1c6b 980F0000 		.long	0xf98
 3911 1c6f 00       		.byte	0
 3912 1c70 34       		.uleb128 0x34
 3913 1c71 7E4E6F64 		.ascii "~Nodo\0"
 3913      6F00
 3914 1c77 02       		.byte	0x2
 3915 1c78 C2       		.byte	0xc2
 3916 1c79 5F5A4E34 		.ascii "_ZN4NodoIcED4Ev\0"
 3916      4E6F646F 
 3916      49634544 
 3916      34457600 
 3917 1c89 01       		.byte	0x1
 3918 1c8a CE1B0000 		.long	0x1bce
 3919 1c8e 01       		.byte	0x1
 3920 1c8f 971C0000 		.long	0x1c97
 3921 1c93 A21C0000 		.long	0x1ca2
 3922 1c97 18       		.uleb128 0x18
 3923 1c98 D11C0000 		.long	0x1cd1
 3924 1c9c 18       		.uleb128 0x18
 3925 1c9d CC0F0000 		.long	0xfcc
 3926 1ca1 00       		.byte	0
GAS LISTING C:\Users\USER\AppData\Local\Temp\ccxBfeO7.s 			page 93


 3927 1ca2 1D       		.uleb128 0x1d
 3928 1ca3 5400     		.ascii "T\0"
 3929 1ca5 980F0000 		.long	0xf98
 3930 1ca9 00       		.byte	0
 3931 1caa 35       		.uleb128 0x35
 3932 1cab CC0F0000 		.long	0xfcc
 3933 1caf B51C0000 		.long	0x1cb5
 3934 1cb3 2D       		.uleb128 0x2d
 3935 1cb4 00       		.byte	0
 3936 1cb5 2A       		.uleb128 0x2a
 3937 1cb6 04       		.byte	0x4
 3938 1cb7 BB1C0000 		.long	0x1cbb
 3939 1cbb 28       		.uleb128 0x28
 3940 1cbc 04       		.byte	0x4
 3941 1cbd 5F5F7674 		.ascii "__vtbl_ptr_type\0"
 3941      626C5F70 
 3941      74725F74 
 3941      79706500 
 3942 1ccd AA1C0000 		.long	0x1caa
 3943 1cd1 2A       		.uleb128 0x2a
 3944 1cd2 04       		.byte	0x4
 3945 1cd3 CE1B0000 		.long	0x1bce
 3946 1cd7 2F       		.uleb128 0x2f
 3947 1cd8 04       		.byte	0x4
 3948 1cd9 DD1C0000 		.long	0x1cdd
 3949 1cdd 0B       		.uleb128 0xb
 3950 1cde CE1B0000 		.long	0x1bce
 3951 1ce2 30       		.uleb128 0x30
 3952 1ce3 436F6C61 		.ascii "Cola<char>\0"
 3952      3C636861 
 3952      723E00
 3953 1cee 10       		.byte	0x10
 3954 1cef 02       		.byte	0x2
 3955 1cf0 C7       		.byte	0xc7
 3956 1cf1 E21C0000 		.long	0x1ce2
 3957 1cf5 0D1F0000 		.long	0x1f0d
 3958 1cf9 31       		.uleb128 0x31
 3959 1cfa 5F767074 		.ascii "_vptr.Cola\0"
 3959      722E436F 
 3959      6C6100
 3960 1d05 B51C0000 		.long	0x1cb5
 3961 1d09 00       		.byte	0
 3962 1d0a 01       		.byte	0x1
 3963 1d0b 29       		.uleb128 0x29
 3964 1d0c 6672656E 		.ascii "frente\0"
 3964      746500
 3965 1d13 02       		.byte	0x2
 3966 1d14 CA       		.byte	0xca
 3967 1d15 D11C0000 		.long	0x1cd1
 3968 1d19 04       		.byte	0x4
 3969 1d1a 29       		.uleb128 0x29
 3970 1d1b 756C7469 		.ascii "ultimo\0"
 3970      6D6F00
 3971 1d22 02       		.byte	0x2
 3972 1d23 CA       		.byte	0xca
 3973 1d24 D11C0000 		.long	0x1cd1
 3974 1d28 08       		.byte	0x8
GAS LISTING C:\Users\USER\AppData\Local\Temp\ccxBfeO7.s 			page 94


 3975 1d29 29       		.uleb128 0x29
 3976 1d2a 74616D61 		.ascii "tamanho\0"
 3976      6E686F00 
 3977 1d32 02       		.byte	0x2
 3978 1d33 CB       		.byte	0xcb
 3979 1d34 CC0F0000 		.long	0xfcc
 3980 1d38 0C       		.byte	0xc
 3981 1d39 32       		.uleb128 0x32
 3982 1d3a 436F6C61 		.ascii "Cola\0"
 3982      00
 3983 1d3f 5F5A4E34 		.ascii "_ZN4ColaIcEC4ERKS0_\0"
 3983      436F6C61 
 3983      49634543 
 3983      3445524B 
 3983      53305F00 
 3984 1d53 01       		.byte	0x1
 3985 1d54 5C1D0000 		.long	0x1d5c
 3986 1d58 671D0000 		.long	0x1d67
 3987 1d5c 18       		.uleb128 0x18
 3988 1d5d 0D1F0000 		.long	0x1f0d
 3989 1d61 0A       		.uleb128 0xa
 3990 1d62 131F0000 		.long	0x1f13
 3991 1d66 00       		.byte	0
 3992 1d67 33       		.uleb128 0x33
 3993 1d68 436F6C61 		.ascii "Cola\0"
 3993      00
 3994 1d6d 02       		.byte	0x2
 3995 1d6e CE       		.byte	0xce
 3996 1d6f 5F5A4E34 		.ascii "_ZN4ColaIcEC4Ev\0"
 3996      436F6C61 
 3996      49634543 
 3996      34457600 
 3997 1d7f 01       		.byte	0x1
 3998 1d80 881D0000 		.long	0x1d88
 3999 1d84 8E1D0000 		.long	0x1d8e
 4000 1d88 18       		.uleb128 0x18
 4001 1d89 0D1F0000 		.long	0x1f0d
 4002 1d8d 00       		.byte	0
 4003 1d8e 34       		.uleb128 0x34
 4004 1d8f 7E436F6C 		.ascii "~Cola\0"
 4004      6100
 4005 1d95 02       		.byte	0x2
 4006 1d96 D4       		.byte	0xd4
 4007 1d97 5F5A4E34 		.ascii "_ZN4ColaIcED4Ev\0"
 4007      436F6C61 
 4007      49634544 
 4007      34457600 
 4008 1da7 01       		.byte	0x1
 4009 1da8 E21C0000 		.long	0x1ce2
 4010 1dac 01       		.byte	0x1
 4011 1dad B51D0000 		.long	0x1db5
 4012 1db1 C01D0000 		.long	0x1dc0
 4013 1db5 18       		.uleb128 0x18
 4014 1db6 0D1F0000 		.long	0x1f0d
 4015 1dba 18       		.uleb128 0x18
 4016 1dbb CC0F0000 		.long	0xfcc
 4017 1dbf 00       		.byte	0
GAS LISTING C:\Users\USER\AppData\Local\Temp\ccxBfeO7.s 			page 95


 4018 1dc0 33       		.uleb128 0x33
 4019 1dc1 61677265 		.ascii "agregar\0"
 4019      67617200 
 4020 1dc9 02       		.byte	0x2
 4021 1dca D5       		.byte	0xd5
 4022 1dcb 5F5A4E34 		.ascii "_ZN4ColaIcE7agregarEc\0"
 4022      436F6C61 
 4022      49634537 
 4022      61677265 
 4022      67617245 
 4023 1de1 01       		.byte	0x1
 4024 1de2 EA1D0000 		.long	0x1dea
 4025 1de6 F51D0000 		.long	0x1df5
 4026 1dea 18       		.uleb128 0x18
 4027 1deb 0D1F0000 		.long	0x1f0d
 4028 1def 0A       		.uleb128 0xa
 4029 1df0 980F0000 		.long	0xf98
 4030 1df4 00       		.byte	0
 4031 1df5 36       		.uleb128 0x36
 4032 1df6 656C696D 		.ascii "eliminar\0"
 4032      696E6172 
 4032      00
 4033 1dff 02       		.byte	0x2
 4034 1e00 E3       		.byte	0xe3
 4035 1e01 5F5A4E34 		.ascii "_ZN4ColaIcE8eliminarEv\0"
 4035      436F6C61 
 4035      49634538 
 4035      656C696D 
 4035      696E6172 
 4036 1e18 980F0000 		.long	0xf98
 4037 1e1c 01       		.byte	0x1
 4038 1e1d 251E0000 		.long	0x1e25
 4039 1e21 2B1E0000 		.long	0x1e2b
 4040 1e25 18       		.uleb128 0x18
 4041 1e26 0D1F0000 		.long	0x1f0d
 4042 1e2a 00       		.byte	0
 4043 1e2b 36       		.uleb128 0x36
 4044 1e2c 76657200 		.ascii "ver\0"
 4045 1e30 02       		.byte	0x2
 4046 1e31 F0       		.byte	0xf0
 4047 1e32 5F5A4E4B 		.ascii "_ZNK4ColaIcE3verEv\0"
 4047      34436F6C 
 4047      61496345 
 4047      33766572 
 4047      457600
 4048 1e45 980F0000 		.long	0xf98
 4049 1e49 01       		.byte	0x1
 4050 1e4a 521E0000 		.long	0x1e52
 4051 1e4e 581E0000 		.long	0x1e58
 4052 1e52 18       		.uleb128 0x18
 4053 1e53 1E1F0000 		.long	0x1f1e
 4054 1e57 00       		.byte	0
 4055 1e58 36       		.uleb128 0x36
 4056 1e59 62757363 		.ascii "buscar\0"
 4056      617200
 4057 1e60 02       		.byte	0x2
 4058 1e61 FA       		.byte	0xfa
GAS LISTING C:\Users\USER\AppData\Local\Temp\ccxBfeO7.s 			page 96


 4059 1e62 5F5A4E34 		.ascii "_ZN4ColaIcE6buscarEc\0"
 4059      436F6C61 
 4059      49634536 
 4059      62757363 
 4059      61724563 
 4060 1e77 CC0F0000 		.long	0xfcc
 4061 1e7b 01       		.byte	0x1
 4062 1e7c 841E0000 		.long	0x1e84
 4063 1e80 8F1E0000 		.long	0x1e8f
 4064 1e84 18       		.uleb128 0x18
 4065 1e85 0D1F0000 		.long	0x1f0d
 4066 1e89 0A       		.uleb128 0xa
 4067 1e8a 980F0000 		.long	0xf98
 4068 1e8e 00       		.byte	0
 4069 1e8f 37       		.uleb128 0x37
 4070 1e90 6765744C 		.ascii "getLongitud\0"
 4070      6F6E6769 
 4070      74756400 
 4071 1e9c 02       		.byte	0x2
 4072 1e9d 0A01     		.word	0x10a
 4073 1e9f 5F5A4E4B 		.ascii "_ZNK4ColaIcE11getLongitudEv\0"
 4073      34436F6C 
 4073      61496345 
 4073      31316765 
 4073      744C6F6E 
 4074 1ebb CC0F0000 		.long	0xfcc
 4075 1ebf 01       		.byte	0x1
 4076 1ec0 C81E0000 		.long	0x1ec8
 4077 1ec4 CE1E0000 		.long	0x1ece
 4078 1ec8 18       		.uleb128 0x18
 4079 1ec9 1E1F0000 		.long	0x1f1e
 4080 1ecd 00       		.byte	0
 4081 1ece 37       		.uleb128 0x37
 4082 1ecf 65735661 		.ascii "esVacia\0"
 4082      63696100 
 4083 1ed7 02       		.byte	0x2
 4084 1ed8 0E01     		.word	0x10e
 4085 1eda 5F5A4E4B 		.ascii "_ZNK4ColaIcE7esVaciaEv\0"
 4085      34436F6C 
 4085      61496345 
 4085      37657356 
 4085      61636961 
 4086 1ef1 38190000 		.long	0x1938
 4087 1ef5 01       		.byte	0x1
 4088 1ef6 FE1E0000 		.long	0x1efe
 4089 1efa 041F0000 		.long	0x1f04
 4090 1efe 18       		.uleb128 0x18
 4091 1eff 1E1F0000 		.long	0x1f1e
 4092 1f03 00       		.byte	0
 4093 1f04 1D       		.uleb128 0x1d
 4094 1f05 543200   		.ascii "T2\0"
 4095 1f08 980F0000 		.long	0xf98
 4096 1f0c 00       		.byte	0
 4097 1f0d 2A       		.uleb128 0x2a
 4098 1f0e 04       		.byte	0x4
 4099 1f0f E21C0000 		.long	0x1ce2
 4100 1f13 2F       		.uleb128 0x2f
GAS LISTING C:\Users\USER\AppData\Local\Temp\ccxBfeO7.s 			page 97


 4101 1f14 04       		.byte	0x4
 4102 1f15 191F0000 		.long	0x1f19
 4103 1f19 0B       		.uleb128 0xb
 4104 1f1a E21C0000 		.long	0x1ce2
 4105 1f1e 2A       		.uleb128 0x2a
 4106 1f1f 04       		.byte	0x4
 4107 1f20 191F0000 		.long	0x1f19
 4108 1f24 38       		.uleb128 0x38
 4109 1f25 1B000000 		.secrel32	LASF6
 4110 1f29 04       		.byte	0x4
 4111 1f2a 02       		.byte	0x2
 4112 1f2b AC       		.byte	0xac
 4113 1f2c CB0C0000 		.long	0xccb
 4114 1f30 FC1F0000 		.long	0x1ffc
 4115 1f34 39       		.uleb128 0x39
 4116 1f35 CB0C0000 		.long	0xccb
 4117 1f39 00       		.byte	0
 4118 1f3a 01       		.byte	0x1
 4119 1f3b 3A       		.uleb128 0x3a
 4120 1f3c 1B000000 		.secrel32	LASF6
 4121 1f40 5F5A4E39 		.ascii "_ZN9ColaVaciaC4ERKS_\0"
 4121      436F6C61 
 4121      56616369 
 4121      61433445 
 4121      524B535F 
 4122 1f55 01       		.byte	0x1
 4123 1f56 5E1F0000 		.long	0x1f5e
 4124 1f5a 691F0000 		.long	0x1f69
 4125 1f5e 18       		.uleb128 0x18
 4126 1f5f FC1F0000 		.long	0x1ffc
 4127 1f63 0A       		.uleb128 0xa
 4128 1f64 02200000 		.long	0x2002
 4129 1f68 00       		.byte	0
 4130 1f69 3A       		.uleb128 0x3a
 4131 1f6a 1B000000 		.secrel32	LASF6
 4132 1f6e 5F5A4E39 		.ascii "_ZN9ColaVaciaC4Ev\0"
 4132      436F6C61 
 4132      56616369 
 4132      61433445 
 4132      7600
 4133 1f80 01       		.byte	0x1
 4134 1f81 891F0000 		.long	0x1f89
 4135 1f85 8F1F0000 		.long	0x1f8f
 4136 1f89 18       		.uleb128 0x18
 4137 1f8a FC1F0000 		.long	0x1ffc
 4138 1f8e 00       		.byte	0
 4139 1f8f 3B       		.uleb128 0x3b
 4140 1f90 77686174 		.ascii "what\0"
 4140      00
 4141 1f95 02       		.byte	0x2
 4142 1f96 AF       		.byte	0xaf
 4143 1f97 5F5A4E4B 		.ascii "_ZNK9ColaVacia4whatEv\0"
 4143      39436F6C 
 4143      61566163 
 4143      69613477 
 4143      68617445 
 4144 1fad E6120000 		.long	0x12e6
GAS LISTING C:\Users\USER\AppData\Local\Temp\ccxBfeO7.s 			page 98


 4145 1fb1 01       		.byte	0x1
 4146 1fb2 02       		.uleb128 0x2
 4147 1fb3 10       		.byte	0x10
 4148 1fb4 02       		.uleb128 0x2
 4149 1fb5 241F0000 		.long	0x1f24
 4150 1fb9 01       		.byte	0x1
 4151 1fba C21F0000 		.long	0x1fc2
 4152 1fbe C81F0000 		.long	0x1fc8
 4153 1fc2 18       		.uleb128 0x18
 4154 1fc3 0D200000 		.long	0x200d
 4155 1fc7 00       		.byte	0
 4156 1fc8 3C       		.uleb128 0x3c
 4157 1fc9 7E436F6C 		.ascii "~ColaVacia\0"
 4157      61566163 
 4157      696100
 4158 1fd4 5F5A4E39 		.ascii "_ZN9ColaVaciaD4Ev\0"
 4158      436F6C61 
 4158      56616369 
 4158      61443445 
 4158      7600
 4159 1fe6 01       		.byte	0x1
 4160 1fe7 241F0000 		.long	0x1f24
 4161 1feb 01       		.byte	0x1
 4162 1fec F01F0000 		.long	0x1ff0
 4163 1ff0 18       		.uleb128 0x18
 4164 1ff1 FC1F0000 		.long	0x1ffc
 4165 1ff5 18       		.uleb128 0x18
 4166 1ff6 CC0F0000 		.long	0xfcc
 4167 1ffa 00       		.byte	0
 4168 1ffb 00       		.byte	0
 4169 1ffc 2A       		.uleb128 0x2a
 4170 1ffd 04       		.byte	0x4
 4171 1ffe 241F0000 		.long	0x1f24
 4172 2002 2F       		.uleb128 0x2f
 4173 2003 04       		.byte	0x4
 4174 2004 08200000 		.long	0x2008
 4175 2008 0B       		.uleb128 0xb
 4176 2009 241F0000 		.long	0x1f24
 4177 200d 2A       		.uleb128 0x2a
 4178 200e 04       		.byte	0x4
 4179 200f 08200000 		.long	0x2008
 4180 2013 2A       		.uleb128 0x2a
 4181 2014 04       		.byte	0x4
 4182 2015 CB0C0000 		.long	0xccb
 4183 2019 3D       		.uleb128 0x3d
 4184 201a D40C0000 		.long	0xcd4
 4185 201e 02       		.byte	0x2
 4186 201f 27200000 		.long	0x2027
 4187 2023 31200000 		.long	0x2031
 4188 2027 3E       		.uleb128 0x3e
 4189 2028 25000000 		.secrel32	LASF7
 4190 202c 31200000 		.long	0x2031
 4191 2030 00       		.byte	0
 4192 2031 0B       		.uleb128 0xb
 4193 2032 13200000 		.long	0x2013
 4194 2036 3F       		.uleb128 0x3f
 4195 2037 19200000 		.long	0x2019
GAS LISTING C:\Users\USER\AppData\Local\Temp\ccxBfeO7.s 			page 99


 4196 203b 5F5A4E53 		.ascii "_ZNSt9exceptionC2Ev\0"
 4196      74396578 
 4196      63657074 
 4196      696F6E43 
 4196      32457600 
 4197 204f 00000000 		.long	LFB18
 4198 2053 16000000 		.long	LFE18-LFB18
 4199 2057 01       		.uleb128 0x1
 4200 2058 9C       		.byte	0x9c
 4201 2059 61200000 		.long	0x2061
 4202 205d 6A200000 		.long	0x206a
 4203 2061 40       		.uleb128 0x40
 4204 2062 27200000 		.long	0x2027
 4205 2066 02       		.uleb128 0x2
 4206 2067 91       		.byte	0x91
 4207 2068 74       		.sleb128 -12
 4208 2069 00       		.byte	0
 4209 206a 41       		.uleb128 0x41
 4210 206b 8F1F0000 		.long	0x1f8f
 4211 206f 00000000 		.long	LFB1014
 4212 2073 10000000 		.long	LFE1014-LFB1014
 4213 2077 01       		.uleb128 0x1
 4214 2078 9C       		.byte	0x9c
 4215 2079 81200000 		.long	0x2081
 4216 207d 8E200000 		.long	0x208e
 4217 2081 42       		.uleb128 0x42
 4218 2082 25000000 		.secrel32	LASF7
 4219 2086 8E200000 		.long	0x208e
 4220 208a 02       		.uleb128 0x2
 4221 208b 91       		.byte	0x91
 4222 208c 74       		.sleb128 -12
 4223 208d 00       		.byte	0
 4224 208e 0B       		.uleb128 0xb
 4225 208f 0D200000 		.long	0x200d
 4226 2093 43       		.uleb128 0x43
 4227 2094 6C656572 		.ascii "leerLetra\0"
 4227      4C657472 
 4227      6100
 4228 209e 02       		.byte	0x2
 4229 209f 1701     		.word	0x117
 4230 20a1 5F5A396C 		.ascii "_Z9leerLetrav\0"
 4230      6565724C 
 4230      65747261 
 4230      7600
 4231 20af 980F0000 		.long	0xf98
 4232 20b3 00000000 		.long	LFB1025
 4233 20b7 1F000000 		.long	LFE1025-LFB1025
 4234 20bb 01       		.uleb128 0x1
 4235 20bc 9C       		.byte	0x9c
 4236 20bd CF200000 		.long	0x20cf
 4237 20c1 44       		.uleb128 0x44
 4238 20c2 7800     		.ascii "x\0"
 4239 20c4 02       		.byte	0x2
 4240 20c5 1801     		.word	0x118
 4241 20c7 980F0000 		.long	0xf98
 4242 20cb 02       		.uleb128 0x2
 4243 20cc 91       		.byte	0x91
GAS LISTING C:\Users\USER\AppData\Local\Temp\ccxBfeO7.s 			page 100


 4244 20cd 6F       		.sleb128 -17
 4245 20ce 00       		.byte	0
 4246 20cf 45       		.uleb128 0x45
 4247 20d0 6D61696E 		.ascii "main\0"
 4247      00
 4248 20d5 02       		.byte	0x2
 4249 20d6 1D01     		.word	0x11d
 4250 20d8 CC0F0000 		.long	0xfcc
 4251 20dc 1F000000 		.long	LFB1026
 4252 20e0 05060000 		.long	LFE1026-LFB1026
 4253 20e4 01       		.uleb128 0x1
 4254 20e5 9C       		.byte	0x9c
 4255 20e6 67210000 		.long	0x2167
 4256 20ea 44       		.uleb128 0x44
 4257 20eb 6C657472 		.ascii "letras\0"
 4257      617300
 4258 20f2 02       		.byte	0x2
 4259 20f3 1F01     		.word	0x11f
 4260 20f5 E21C0000 		.long	0x1ce2
 4261 20f9 02       		.uleb128 0x2
 4262 20fa 75       		.byte	0x75
 4263 20fb 48       		.sleb128 -56
 4264 20fc 46       		.uleb128 0x46
 4265 20fd 6F010000 		.long	LBB3
 4266 2101 32000000 		.long	LBE3-LBB3
 4267 2105 17210000 		.long	0x2117
 4268 2109 44       		.uleb128 0x44
 4269 210a 6900     		.ascii "i\0"
 4270 210c 02       		.byte	0x2
 4271 210d 2C01     		.word	0x12c
 4272 210f CC0F0000 		.long	0xfcc
 4273 2113 02       		.uleb128 0x2
 4274 2114 75       		.byte	0x75
 4275 2115 64       		.sleb128 -28
 4276 2116 00       		.byte	0
 4277 2117 46       		.uleb128 0x46
 4278 2118 AE020000 		.long	LBB5
 4279 211c 4D000000 		.long	LBE5-LBB5
 4280 2120 32210000 		.long	0x2132
 4281 2124 44       		.uleb128 0x44
 4282 2125 6900     		.ascii "i\0"
 4283 2127 02       		.byte	0x2
 4284 2128 3901     		.word	0x139
 4285 212a CC0F0000 		.long	0xfcc
 4286 212e 02       		.uleb128 0x2
 4287 212f 75       		.byte	0x75
 4288 2130 60       		.sleb128 -32
 4289 2131 00       		.byte	0
 4290 2132 46       		.uleb128 0x46
 4291 2133 E4040000 		.long	LBB6
 4292 2137 6F000000 		.long	LBE6-LBB6
 4293 213b 4E210000 		.long	0x214e
 4294 213f 44       		.uleb128 0x44
 4295 2140 657800   		.ascii "ex\0"
 4296 2143 02       		.byte	0x2
 4297 2144 2701     		.word	0x127
 4298 2146 6D210000 		.long	0x216d
GAS LISTING C:\Users\USER\AppData\Local\Temp\ccxBfeO7.s 			page 101


 4299 214a 02       		.uleb128 0x2
 4300 214b 75       		.byte	0x75
 4301 214c 5C       		.sleb128 -36
 4302 214d 00       		.byte	0
 4303 214e 47       		.uleb128 0x47
 4304 214f 53050000 		.long	LBB7
 4305 2153 9B000000 		.long	LBE7-LBB7
 4306 2157 44       		.uleb128 0x44
 4307 2158 657800   		.ascii "ex\0"
 4308 215b 02       		.byte	0x2
 4309 215c 4601     		.word	0x146
 4310 215e 72210000 		.long	0x2172
 4311 2162 02       		.uleb128 0x2
 4312 2163 75       		.byte	0x75
 4313 2164 58       		.sleb128 -40
 4314 2165 00       		.byte	0
 4315 2166 00       		.byte	0
 4316 2167 2F       		.uleb128 0x2f
 4317 2168 04       		.byte	0x4
 4318 2169 241F0000 		.long	0x1f24
 4319 216d 0B       		.uleb128 0xb
 4320 216e 67210000 		.long	0x2167
 4321 2172 0B       		.uleb128 0xb
 4322 2173 67210000 		.long	0x2167
 4323 2177 3D       		.uleb128 0x3d
 4324 2178 671D0000 		.long	0x1d67
 4325 217c 02       		.byte	0x2
 4326 217d 85210000 		.long	0x2185
 4327 2181 8F210000 		.long	0x218f
 4328 2185 3E       		.uleb128 0x3e
 4329 2186 25000000 		.secrel32	LASF7
 4330 218a 8F210000 		.long	0x218f
 4331 218e 00       		.byte	0
 4332 218f 0B       		.uleb128 0xb
 4333 2190 0D1F0000 		.long	0x1f0d
 4334 2194 3F       		.uleb128 0x3f
 4335 2195 77210000 		.long	0x2177
 4336 2199 5F5A4E34 		.ascii "_ZN4ColaIcEC1Ev\0"
 4336      436F6C61 
 4336      49634543 
 4336      31457600 
 4337 21a9 00000000 		.long	LFB1029
 4338 21ad 34000000 		.long	LFE1029-LFB1029
 4339 21b1 01       		.uleb128 0x1
 4340 21b2 9C       		.byte	0x9c
 4341 21b3 BB210000 		.long	0x21bb
 4342 21b7 C4210000 		.long	0x21c4
 4343 21bb 40       		.uleb128 0x40
 4344 21bc 85210000 		.long	0x2185
 4345 21c0 02       		.uleb128 0x2
 4346 21c1 91       		.byte	0x91
 4347 21c2 74       		.sleb128 -12
 4348 21c3 00       		.byte	0
 4349 21c4 3D       		.uleb128 0x3d
 4350 21c5 8E1D0000 		.long	0x1d8e
 4351 21c9 02       		.byte	0x2
 4352 21ca D2210000 		.long	0x21d2
GAS LISTING C:\Users\USER\AppData\Local\Temp\ccxBfeO7.s 			page 102


 4353 21ce E5210000 		.long	0x21e5
 4354 21d2 3E       		.uleb128 0x3e
 4355 21d3 25000000 		.secrel32	LASF7
 4356 21d7 8F210000 		.long	0x218f
 4357 21db 3E       		.uleb128 0x3e
 4358 21dc 07000000 		.secrel32	LASF8
 4359 21e0 3D1B0000 		.long	0x1b3d
 4360 21e4 00       		.byte	0
 4361 21e5 48       		.uleb128 0x48
 4362 21e6 C4210000 		.long	0x21c4
 4363 21ea 5F5A4E34 		.ascii "_ZN4ColaIcED1Ev\0"
 4363      436F6C61 
 4363      49634544 
 4363      31457600 
 4364 21fa 00000000 		.long	LFB1032
 4365 21fe 29000000 		.long	LFE1032-LFB1032
 4366 2202 01       		.uleb128 0x1
 4367 2203 9C       		.byte	0x9c
 4368 2204 0C220000 		.long	0x220c
 4369 2208 15220000 		.long	0x2215
 4370 220c 40       		.uleb128 0x40
 4371 220d D2210000 		.long	0x21d2
 4372 2211 02       		.uleb128 0x2
 4373 2212 91       		.byte	0x91
 4374 2213 6C       		.sleb128 -20
 4375 2214 00       		.byte	0
 4376 2215 48       		.uleb128 0x48
 4377 2216 C4210000 		.long	0x21c4
 4378 221a 5F5A4E34 		.ascii "_ZN4ColaIcED0Ev\0"
 4378      436F6C61 
 4378      49634544 
 4378      30457600 
 4379 222a 00000000 		.long	LFB1033
 4380 222e 20000000 		.long	LFE1033-LFB1033
 4381 2232 01       		.uleb128 0x1
 4382 2233 9C       		.byte	0x9c
 4383 2234 3C220000 		.long	0x223c
 4384 2238 45220000 		.long	0x2245
 4385 223c 40       		.uleb128 0x40
 4386 223d D2210000 		.long	0x21d2
 4387 2241 02       		.uleb128 0x2
 4388 2242 91       		.byte	0x91
 4389 2243 6C       		.sleb128 -20
 4390 2244 00       		.byte	0
 4391 2245 41       		.uleb128 0x41
 4392 2246 CE1E0000 		.long	0x1ece
 4393 224a 00000000 		.long	LFB1035
 4394 224e 21000000 		.long	LFE1035-LFB1035
 4395 2252 01       		.uleb128 0x1
 4396 2253 9C       		.byte	0x9c
 4397 2254 5C220000 		.long	0x225c
 4398 2258 69220000 		.long	0x2269
 4399 225c 42       		.uleb128 0x42
 4400 225d 25000000 		.secrel32	LASF7
 4401 2261 69220000 		.long	0x2269
 4402 2265 02       		.uleb128 0x2
 4403 2266 91       		.byte	0x91
GAS LISTING C:\Users\USER\AppData\Local\Temp\ccxBfeO7.s 			page 103


 4404 2267 74       		.sleb128 -12
 4405 2268 00       		.byte	0
 4406 2269 0B       		.uleb128 0xb
 4407 226a 1E1F0000 		.long	0x1f1e
 4408 226e 41       		.uleb128 0x41
 4409 226f 8F1E0000 		.long	0x1e8f
 4410 2273 00000000 		.long	LFB1038
 4411 2277 11000000 		.long	LFE1038-LFB1038
 4412 227b 01       		.uleb128 0x1
 4413 227c 9C       		.byte	0x9c
 4414 227d 85220000 		.long	0x2285
 4415 2281 92220000 		.long	0x2292
 4416 2285 42       		.uleb128 0x42
 4417 2286 25000000 		.secrel32	LASF7
 4418 228a 69220000 		.long	0x2269
 4419 228e 02       		.uleb128 0x2
 4420 228f 91       		.byte	0x91
 4421 2290 74       		.sleb128 -12
 4422 2291 00       		.byte	0
 4423 2292 49       		.uleb128 0x49
 4424 2293 691F0000 		.long	0x1f69
 4425 2297 02       		.byte	0x2
 4426 2298 AC       		.byte	0xac
 4427 2299 02       		.byte	0x2
 4428 229a A2220000 		.long	0x22a2
 4429 229e AC220000 		.long	0x22ac
 4430 22a2 3E       		.uleb128 0x3e
 4431 22a3 25000000 		.secrel32	LASF7
 4432 22a7 AC220000 		.long	0x22ac
 4433 22ab 00       		.byte	0
 4434 22ac 0B       		.uleb128 0xb
 4435 22ad FC1F0000 		.long	0x1ffc
 4436 22b1 48       		.uleb128 0x48
 4437 22b2 92220000 		.long	0x2292
 4438 22b6 5F5A4E39 		.ascii "_ZN9ColaVaciaC1Ev\0"
 4438      436F6C61 
 4438      56616369 
 4438      61433145 
 4438      7600
 4439 22c8 00000000 		.long	LFB1042
 4440 22cc 20000000 		.long	LFE1042-LFB1042
 4441 22d0 01       		.uleb128 0x1
 4442 22d1 9C       		.byte	0x9c
 4443 22d2 DA220000 		.long	0x22da
 4444 22d6 E3220000 		.long	0x22e3
 4445 22da 40       		.uleb128 0x40
 4446 22db A2220000 		.long	0x22a2
 4447 22df 02       		.uleb128 0x2
 4448 22e0 91       		.byte	0x91
 4449 22e1 74       		.sleb128 -12
 4450 22e2 00       		.byte	0
 4451 22e3 49       		.uleb128 0x49
 4452 22e4 C81F0000 		.long	0x1fc8
 4453 22e8 02       		.byte	0x2
 4454 22e9 AC       		.byte	0xac
 4455 22ea 02       		.byte	0x2
 4456 22eb F3220000 		.long	0x22f3
GAS LISTING C:\Users\USER\AppData\Local\Temp\ccxBfeO7.s 			page 104


 4457 22ef 06230000 		.long	0x2306
 4458 22f3 3E       		.uleb128 0x3e
 4459 22f4 25000000 		.secrel32	LASF7
 4460 22f8 AC220000 		.long	0x22ac
 4461 22fc 3E       		.uleb128 0x3e
 4462 22fd 07000000 		.secrel32	LASF8
 4463 2301 3D1B0000 		.long	0x1b3d
 4464 2305 00       		.byte	0
 4465 2306 48       		.uleb128 0x48
 4466 2307 E3220000 		.long	0x22e3
 4467 230b 5F5A4E39 		.ascii "_ZN9ColaVaciaD1Ev\0"
 4467      436F6C61 
 4467      56616369 
 4467      61443145 
 4467      7600
 4468 231d 00000000 		.long	LFB1045
 4469 2321 33000000 		.long	LFE1045-LFB1045
 4470 2325 01       		.uleb128 0x1
 4471 2326 9C       		.byte	0x9c
 4472 2327 2F230000 		.long	0x232f
 4473 232b 38230000 		.long	0x2338
 4474 232f 40       		.uleb128 0x40
 4475 2330 F3220000 		.long	0x22f3
 4476 2334 02       		.uleb128 0x2
 4477 2335 91       		.byte	0x91
 4478 2336 6C       		.sleb128 -20
 4479 2337 00       		.byte	0
 4480 2338 48       		.uleb128 0x48
 4481 2339 E3220000 		.long	0x22e3
 4482 233d 5F5A4E39 		.ascii "_ZN9ColaVaciaD0Ev\0"
 4482      436F6C61 
 4482      56616369 
 4482      61443045 
 4482      7600
 4483 234f 00000000 		.long	LFB1046
 4484 2353 20000000 		.long	LFE1046-LFB1046
 4485 2357 01       		.uleb128 0x1
 4486 2358 9C       		.byte	0x9c
 4487 2359 61230000 		.long	0x2361
 4488 235d 6A230000 		.long	0x236a
 4489 2361 40       		.uleb128 0x40
 4490 2362 F3220000 		.long	0x22f3
 4491 2366 02       		.uleb128 0x2
 4492 2367 91       		.byte	0x91
 4493 2368 6C       		.sleb128 -20
 4494 2369 00       		.byte	0
 4495 236a 4A       		.uleb128 0x4a
 4496 236b F51D0000 		.long	0x1df5
 4497 236f 00000000 		.long	LFB1039
 4498 2373 F7000000 		.long	LFE1039-LFB1039
 4499 2377 01       		.uleb128 0x1
 4500 2378 9C       		.byte	0x9c
 4501 2379 81230000 		.long	0x2381
 4502 237d A6230000 		.long	0x23a6
 4503 2381 42       		.uleb128 0x42
 4504 2382 25000000 		.secrel32	LASF7
 4505 2386 8F210000 		.long	0x218f
GAS LISTING C:\Users\USER\AppData\Local\Temp\ccxBfeO7.s 			page 105


 4506 238a 02       		.uleb128 0x2
 4507 238b 91       		.byte	0x91
 4508 238c 4C       		.sleb128 -52
 4509 238d 47       		.uleb128 0x47
 4510 238e 42000000 		.long	LBB13
 4511 2392 34000000 		.long	LBE13-LBB13
 4512 2396 4B       		.uleb128 0x4b
 4513 2397 61757800 		.ascii "aux\0"
 4514 239b 02       		.byte	0x2
 4515 239c E7       		.byte	0xe7
 4516 239d 980F0000 		.long	0xf98
 4517 23a1 02       		.uleb128 0x2
 4518 23a2 91       		.byte	0x91
 4519 23a3 5F       		.sleb128 -33
 4520 23a4 00       		.byte	0
 4521 23a5 00       		.byte	0
 4522 23a6 4A       		.uleb128 0x4a
 4523 23a7 C01D0000 		.long	0x1dc0
 4524 23ab 00000000 		.long	LFB1054
 4525 23af 7C000000 		.long	LFE1054-LFB1054
 4526 23b3 01       		.uleb128 0x1
 4527 23b4 9C       		.byte	0x9c
 4528 23b5 BD230000 		.long	0x23bd
 4529 23b9 E5230000 		.long	0x23e5
 4530 23bd 42       		.uleb128 0x42
 4531 23be 25000000 		.secrel32	LASF7
 4532 23c2 8F210000 		.long	0x218f
 4533 23c6 02       		.uleb128 0x2
 4534 23c7 91       		.byte	0x91
 4535 23c8 5C       		.sleb128 -36
 4536 23c9 4C       		.uleb128 0x4c
 4537 23ca 6461746F 		.ascii "dato\0"
 4537      00
 4538 23cf 02       		.byte	0x2
 4539 23d0 D5       		.byte	0xd5
 4540 23d1 980F0000 		.long	0xf98
 4541 23d5 02       		.uleb128 0x2
 4542 23d6 91       		.byte	0x91
 4543 23d7 58       		.sleb128 -40
 4544 23d8 4B       		.uleb128 0x4b
 4545 23d9 6E00     		.ascii "n\0"
 4546 23db 02       		.byte	0x2
 4547 23dc D7       		.byte	0xd7
 4548 23dd D11C0000 		.long	0x1cd1
 4549 23e1 02       		.uleb128 0x2
 4550 23e2 91       		.byte	0x91
 4551 23e3 6C       		.sleb128 -20
 4552 23e4 00       		.byte	0
 4553 23e5 41       		.uleb128 0x41
 4554 23e6 581E0000 		.long	0x1e58
 4555 23ea 00000000 		.long	LFB1055
 4556 23ee 56000000 		.long	LFE1055-LFB1055
 4557 23f2 01       		.uleb128 0x1
 4558 23f3 9C       		.byte	0x9c
 4559 23f4 FC230000 		.long	0x23fc
 4560 23f8 32240000 		.long	0x2432
 4561 23fc 42       		.uleb128 0x42
GAS LISTING C:\Users\USER\AppData\Local\Temp\ccxBfeO7.s 			page 106


 4562 23fd 25000000 		.secrel32	LASF7
 4563 2401 8F210000 		.long	0x218f
 4564 2405 02       		.uleb128 0x2
 4565 2406 91       		.byte	0x91
 4566 2407 64       		.sleb128 -28
 4567 2408 4C       		.uleb128 0x4c
 4568 2409 6461746F 		.ascii "dato\0"
 4568      00
 4569 240e 02       		.byte	0x2
 4570 240f FA       		.byte	0xfa
 4571 2410 980F0000 		.long	0xf98
 4572 2414 02       		.uleb128 0x2
 4573 2415 91       		.byte	0x91
 4574 2416 60       		.sleb128 -32
 4575 2417 4B       		.uleb128 0x4b
 4576 2418 6900     		.ascii "i\0"
 4577 241a 02       		.byte	0x2
 4578 241b FC       		.byte	0xfc
 4579 241c CC0F0000 		.long	0xfcc
 4580 2420 02       		.uleb128 0x2
 4581 2421 91       		.byte	0x91
 4582 2422 74       		.sleb128 -12
 4583 2423 4B       		.uleb128 0x4b
 4584 2424 61757800 		.ascii "aux\0"
 4585 2428 02       		.byte	0x2
 4586 2429 FD       		.byte	0xfd
 4587 242a D11C0000 		.long	0x1cd1
 4588 242e 02       		.uleb128 0x2
 4589 242f 91       		.byte	0x91
 4590 2430 70       		.sleb128 -16
 4591 2431 00       		.byte	0
 4592 2432 4A       		.uleb128 0x4a
 4593 2433 2B1E0000 		.long	0x1e2b
 4594 2437 00000000 		.long	LFB1056
 4595 243b D2000000 		.long	LFE1056-LFB1056
 4596 243f 01       		.uleb128 0x1
 4597 2440 9C       		.byte	0x9c
 4598 2441 49240000 		.long	0x2449
 4599 2445 56240000 		.long	0x2456
 4600 2449 42       		.uleb128 0x42
 4601 244a 25000000 		.secrel32	LASF7
 4602 244e 69220000 		.long	0x2269
 4603 2452 02       		.uleb128 0x2
 4604 2453 91       		.byte	0x91
 4605 2454 5C       		.sleb128 -36
 4606 2455 00       		.byte	0
 4607 2456 3D       		.uleb128 0x3d
 4608 2457 441C0000 		.long	0x1c44
 4609 245b 02       		.byte	0x2
 4610 245c 64240000 		.long	0x2464
 4611 2460 7B240000 		.long	0x247b
 4612 2464 3E       		.uleb128 0x3e
 4613 2465 25000000 		.secrel32	LASF7
 4614 2469 7B240000 		.long	0x247b
 4615 246d 4D       		.uleb128 0x4d
 4616 246e 5F646174 		.ascii "_dato\0"
 4616      6F00
GAS LISTING C:\Users\USER\AppData\Local\Temp\ccxBfeO7.s 			page 107


 4617 2474 02       		.byte	0x2
 4618 2475 BD       		.byte	0xbd
 4619 2476 980F0000 		.long	0xf98
 4620 247a 00       		.byte	0
 4621 247b 0B       		.uleb128 0xb
 4622 247c D11C0000 		.long	0x1cd1
 4623 2480 3F       		.uleb128 0x3f
 4624 2481 56240000 		.long	0x2456
 4625 2485 5F5A4E34 		.ascii "_ZN4NodoIcEC1Ec\0"
 4625      4E6F646F 
 4625      49634543 
 4625      31456300 
 4626 2495 00000000 		.long	LFB1062
 4627 2499 32000000 		.long	LFE1062-LFB1062
 4628 249d 01       		.uleb128 0x1
 4629 249e 9C       		.byte	0x9c
 4630 249f A7240000 		.long	0x24a7
 4631 24a3 B8240000 		.long	0x24b8
 4632 24a7 40       		.uleb128 0x40
 4633 24a8 64240000 		.long	0x2464
 4634 24ac 02       		.uleb128 0x2
 4635 24ad 91       		.byte	0x91
 4636 24ae 74       		.sleb128 -12
 4637 24af 40       		.uleb128 0x40
 4638 24b0 6D240000 		.long	0x246d
 4639 24b4 02       		.uleb128 0x2
 4640 24b5 91       		.byte	0x91
 4641 24b6 70       		.sleb128 -16
 4642 24b7 00       		.byte	0
 4643 24b8 4E       		.uleb128 0x4e
 4644 24b9 5F5F7463 		.ascii "__tcf_0\0"
 4644      665F3000 
 4645 24c1 24060000 		.long	LFB1066
 4646 24c5 12000000 		.long	LFE1066-LFB1066
 4647 24c9 01       		.uleb128 0x1
 4648 24ca 9C       		.byte	0x9c
 4649 24cb 4F       		.uleb128 0x4f
 4650 24cc 5F5F7374 		.ascii "__static_initialization_and_destruction_0\0"
 4650      61746963 
 4650      5F696E69 
 4650      7469616C 
 4650      697A6174 
 4651 24f6 36060000 		.long	LFB1065
 4652 24fa 2E000000 		.long	LFE1065-LFB1065
 4653 24fe 01       		.uleb128 0x1
 4654 24ff 9C       		.byte	0x9c
 4655 2500 35250000 		.long	0x2535
 4656 2504 50       		.uleb128 0x50
 4657 2505 5F5F696E 		.ascii "__initialize_p\0"
 4657      69746961 
 4657      6C697A65 
 4657      5F7000
 4658 2514 02       		.byte	0x2
 4659 2515 4B01     		.word	0x14b
 4660 2517 CC0F0000 		.long	0xfcc
 4661 251b 02       		.uleb128 0x2
 4662 251c 91       		.byte	0x91
GAS LISTING C:\Users\USER\AppData\Local\Temp\ccxBfeO7.s 			page 108


 4663 251d 00       		.sleb128 0
 4664 251e 50       		.uleb128 0x50
 4665 251f 5F5F7072 		.ascii "__priority\0"
 4665      696F7269 
 4665      747900
 4666 252a 02       		.byte	0x2
 4667 252b 4B01     		.word	0x14b
 4668 252d CC0F0000 		.long	0xfcc
 4669 2531 02       		.uleb128 0x2
 4670 2532 91       		.byte	0x91
 4671 2533 04       		.sleb128 4
 4672 2534 00       		.byte	0
 4673 2535 3D       		.uleb128 0x3d
 4674 2536 701C0000 		.long	0x1c70
 4675 253a 02       		.byte	0x2
 4676 253b 43250000 		.long	0x2543
 4677 253f 56250000 		.long	0x2556
 4678 2543 3E       		.uleb128 0x3e
 4679 2544 25000000 		.secrel32	LASF7
 4680 2548 7B240000 		.long	0x247b
 4681 254c 3E       		.uleb128 0x3e
 4682 254d 07000000 		.secrel32	LASF8
 4683 2551 3D1B0000 		.long	0x1b3d
 4684 2555 00       		.byte	0
 4685 2556 48       		.uleb128 0x48
 4686 2557 35250000 		.long	0x2535
 4687 255b 5F5A4E34 		.ascii "_ZN4NodoIcED1Ev\0"
 4687      4E6F646F 
 4687      49634544 
 4687      31457600 
 4688 256b 00000000 		.long	LFB1069
 4689 256f 29000000 		.long	LFE1069-LFB1069
 4690 2573 01       		.uleb128 0x1
 4691 2574 9C       		.byte	0x9c
 4692 2575 7D250000 		.long	0x257d
 4693 2579 86250000 		.long	0x2586
 4694 257d 40       		.uleb128 0x40
 4695 257e 43250000 		.long	0x2543
 4696 2582 02       		.uleb128 0x2
 4697 2583 91       		.byte	0x91
 4698 2584 6C       		.sleb128 -20
 4699 2585 00       		.byte	0
 4700 2586 48       		.uleb128 0x48
 4701 2587 35250000 		.long	0x2535
 4702 258b 5F5A4E34 		.ascii "_ZN4NodoIcED0Ev\0"
 4702      4E6F646F 
 4702      49634544 
 4702      30457600 
 4703 259b 00000000 		.long	LFB1070
 4704 259f 20000000 		.long	LFE1070-LFB1070
 4705 25a3 01       		.uleb128 0x1
 4706 25a4 9C       		.byte	0x9c
 4707 25a5 AD250000 		.long	0x25ad
 4708 25a9 B6250000 		.long	0x25b6
 4709 25ad 40       		.uleb128 0x40
 4710 25ae 43250000 		.long	0x2543
 4711 25b2 02       		.uleb128 0x2
GAS LISTING C:\Users\USER\AppData\Local\Temp\ccxBfeO7.s 			page 109


 4712 25b3 91       		.byte	0x91
 4713 25b4 6C       		.sleb128 -20
 4714 25b5 00       		.byte	0
 4715 25b6 4E       		.uleb128 0x4e
 4716 25b7 5F474C4F 		.ascii "_GLOBAL__sub_I__Z9leerLetrav\0"
 4716      42414C5F 
 4716      5F737562 
 4716      5F495F5F 
 4716      5A396C65 
 4717 25d4 64060000 		.long	LFB1071
 4718 25d8 1C000000 		.long	LFE1071-LFB1071
 4719 25dc 01       		.uleb128 0x1
 4720 25dd 9C       		.byte	0x9c
 4721 25de 51       		.uleb128 0x51
 4722 25df 590D0000 		.long	0xd59
 4723 25e3 05       		.uleb128 0x5
 4724 25e4 03       		.byte	0x3
 4725 25e5 00000000 		.long	__ZStL8__ioinit
 4726 25e9 52       		.uleb128 0x52
 4727 25ea E10D0000 		.long	0xde1
 4728 25ee 5F5A4E39 		.ascii "_ZN9__gnu_cxx24__numeric_traits_integerIiE5__minE\0"
 4728      5F5F676E 
 4728      755F6378 
 4728      7832345F 
 4728      5F6E756D 
 4729 2620 80808080 		.sleb128 -2147483648
 4729      78
 4730 2625 53       		.uleb128 0x53
 4731 2626 EC0D0000 		.long	0xdec
 4732 262a 5F5A4E39 		.ascii "_ZN9__gnu_cxx24__numeric_traits_integerIiE5__maxE\0"
 4732      5F5F676E 
 4732      755F6378 
 4732      7832345F 
 4732      5F6E756D 
 4733 265c FFFFFF7F 		.long	0x7fffffff
 4734 2660 54       		.uleb128 0x54
 4735 2661 6C0E0000 		.long	0xe6c
 4736 2665 5F5A4E39 		.ascii "_ZN9__gnu_cxx24__numeric_traits_integerImE8__digitsE\0"
 4736      5F5F676E 
 4736      755F6378 
 4736      7832345F 
 4736      5F6E756D 
 4737 269a 20       		.byte	0x20
 4738 269b 54       		.uleb128 0x54
 4739 269c B30E0000 		.long	0xeb3
 4740 26a0 5F5A4E39 		.ascii "_ZN9__gnu_cxx24__numeric_traits_integerIcE5__maxE\0"
 4740      5F5F676E 
 4740      755F6378 
 4740      7832345F 
 4740      5F6E756D 
 4741 26d2 7F       		.byte	0x7f
 4742 26d3 52       		.uleb128 0x52
 4743 26d4 060F0000 		.long	0xf06
 4744 26d8 5F5A4E39 		.ascii "_ZN9__gnu_cxx24__numeric_traits_integerIsE5__minE\0"
 4744      5F5F676E 
 4744      755F6378 
 4744      7832345F 
GAS LISTING C:\Users\USER\AppData\Local\Temp\ccxBfeO7.s 			page 110


 4744      5F6E756D 
 4745 270a 80807E   		.sleb128 -32768
 4746 270d 55       		.uleb128 0x55
 4747 270e 110F0000 		.long	0xf11
 4748 2712 5F5A4E39 		.ascii "_ZN9__gnu_cxx24__numeric_traits_integerIsE5__maxE\0"
 4748      5F5F676E 
 4748      755F6378 
 4748      7832345F 
 4748      5F6E756D 
 4749 2744 FF7F     		.word	0x7fff
 4750 2746 00       		.byte	0
 4751              		.section	.debug_abbrev,"dr"
 4752              	Ldebug_abbrev0:
 4753 0000 01       		.uleb128 0x1
 4754 0001 11       		.uleb128 0x11
 4755 0002 01       		.byte	0x1
 4756 0003 25       		.uleb128 0x25
 4757 0004 08       		.uleb128 0x8
 4758 0005 13       		.uleb128 0x13
 4759 0006 0B       		.uleb128 0xb
 4760 0007 03       		.uleb128 0x3
 4761 0008 08       		.uleb128 0x8
 4762 0009 1B       		.uleb128 0x1b
 4763 000a 08       		.uleb128 0x8
 4764 000b 55       		.uleb128 0x55
 4765 000c 17       		.uleb128 0x17
 4766 000d 11       		.uleb128 0x11
 4767 000e 01       		.uleb128 0x1
 4768 000f 10       		.uleb128 0x10
 4769 0010 17       		.uleb128 0x17
 4770 0011 00       		.byte	0
 4771 0012 00       		.byte	0
 4772 0013 02       		.uleb128 0x2
 4773 0014 39       		.uleb128 0x39
 4774 0015 01       		.byte	0x1
 4775 0016 03       		.uleb128 0x3
 4776 0017 08       		.uleb128 0x8
 4777 0018 3A       		.uleb128 0x3a
 4778 0019 0B       		.uleb128 0xb
 4779 001a 3B       		.uleb128 0x3b
 4780 001b 0B       		.uleb128 0xb
 4781 001c 01       		.uleb128 0x1
 4782 001d 13       		.uleb128 0x13
 4783 001e 00       		.byte	0
 4784 001f 00       		.byte	0
 4785 0020 03       		.uleb128 0x3
 4786 0021 39       		.uleb128 0x39
 4787 0022 00       		.byte	0
 4788 0023 03       		.uleb128 0x3
 4789 0024 08       		.uleb128 0x8
 4790 0025 3A       		.uleb128 0x3a
 4791 0026 0B       		.uleb128 0xb
 4792 0027 3B       		.uleb128 0x3b
 4793 0028 0B       		.uleb128 0xb
 4794 0029 00       		.byte	0
 4795 002a 00       		.byte	0
 4796 002b 04       		.uleb128 0x4
GAS LISTING C:\Users\USER\AppData\Local\Temp\ccxBfeO7.s 			page 111


 4797 002c 3A       		.uleb128 0x3a
 4798 002d 00       		.byte	0
 4799 002e 3A       		.uleb128 0x3a
 4800 002f 0B       		.uleb128 0xb
 4801 0030 3B       		.uleb128 0x3b
 4802 0031 0B       		.uleb128 0xb
 4803 0032 18       		.uleb128 0x18
 4804 0033 13       		.uleb128 0x13
 4805 0034 00       		.byte	0
 4806 0035 00       		.byte	0
 4807 0036 05       		.uleb128 0x5
 4808 0037 08       		.uleb128 0x8
 4809 0038 00       		.byte	0
 4810 0039 3A       		.uleb128 0x3a
 4811 003a 0B       		.uleb128 0xb
 4812 003b 3B       		.uleb128 0x3b
 4813 003c 0B       		.uleb128 0xb
 4814 003d 18       		.uleb128 0x18
 4815 003e 13       		.uleb128 0x13
 4816 003f 00       		.byte	0
 4817 0040 00       		.byte	0
 4818 0041 06       		.uleb128 0x6
 4819 0042 08       		.uleb128 0x8
 4820 0043 00       		.byte	0
 4821 0044 3A       		.uleb128 0x3a
 4822 0045 0B       		.uleb128 0xb
 4823 0046 3B       		.uleb128 0x3b
 4824 0047 05       		.uleb128 0x5
 4825 0048 18       		.uleb128 0x18
 4826 0049 13       		.uleb128 0x13
 4827 004a 00       		.byte	0
 4828 004b 00       		.byte	0
 4829 004c 07       		.uleb128 0x7
 4830 004d 13       		.uleb128 0x13
 4831 004e 01       		.byte	0x1
 4832 004f 03       		.uleb128 0x3
 4833 0050 08       		.uleb128 0x8
 4834 0051 0B       		.uleb128 0xb
 4835 0052 0B       		.uleb128 0xb
 4836 0053 3A       		.uleb128 0x3a
 4837 0054 0B       		.uleb128 0xb
 4838 0055 3B       		.uleb128 0x3b
 4839 0056 0B       		.uleb128 0xb
 4840 0057 01       		.uleb128 0x1
 4841 0058 13       		.uleb128 0x13
 4842 0059 00       		.byte	0
 4843 005a 00       		.byte	0
 4844 005b 08       		.uleb128 0x8
 4845 005c 16       		.uleb128 0x16
 4846 005d 00       		.byte	0
 4847 005e 03       		.uleb128 0x3
 4848 005f 08       		.uleb128 0x8
 4849 0060 3A       		.uleb128 0x3a
 4850 0061 0B       		.uleb128 0xb
 4851 0062 3B       		.uleb128 0x3b
 4852 0063 0B       		.uleb128 0xb
 4853 0064 49       		.uleb128 0x49
GAS LISTING C:\Users\USER\AppData\Local\Temp\ccxBfeO7.s 			page 112


 4854 0065 13       		.uleb128 0x13
 4855 0066 00       		.byte	0
 4856 0067 00       		.byte	0
 4857 0068 09       		.uleb128 0x9
 4858 0069 2E       		.uleb128 0x2e
 4859 006a 01       		.byte	0x1
 4860 006b 3F       		.uleb128 0x3f
 4861 006c 19       		.uleb128 0x19
 4862 006d 03       		.uleb128 0x3
 4863 006e 08       		.uleb128 0x8
 4864 006f 3A       		.uleb128 0x3a
 4865 0070 0B       		.uleb128 0xb
 4866 0071 3B       		.uleb128 0x3b
 4867 0072 0B       		.uleb128 0xb
 4868 0073 6E       		.uleb128 0x6e
 4869 0074 08       		.uleb128 0x8
 4870 0075 3C       		.uleb128 0x3c
 4871 0076 19       		.uleb128 0x19
 4872 0077 01       		.uleb128 0x1
 4873 0078 13       		.uleb128 0x13
 4874 0079 00       		.byte	0
 4875 007a 00       		.byte	0
 4876 007b 0A       		.uleb128 0xa
 4877 007c 05       		.uleb128 0x5
 4878 007d 00       		.byte	0
 4879 007e 49       		.uleb128 0x49
 4880 007f 13       		.uleb128 0x13
 4881 0080 00       		.byte	0
 4882 0081 00       		.byte	0
 4883 0082 0B       		.uleb128 0xb
 4884 0083 26       		.uleb128 0x26
 4885 0084 00       		.byte	0
 4886 0085 49       		.uleb128 0x49
 4887 0086 13       		.uleb128 0x13
 4888 0087 00       		.byte	0
 4889 0088 00       		.byte	0
 4890 0089 0C       		.uleb128 0xc
 4891 008a 2E       		.uleb128 0x2e
 4892 008b 01       		.byte	0x1
 4893 008c 3F       		.uleb128 0x3f
 4894 008d 19       		.uleb128 0x19
 4895 008e 03       		.uleb128 0x3
 4896 008f 08       		.uleb128 0x8
 4897 0090 3A       		.uleb128 0x3a
 4898 0091 0B       		.uleb128 0xb
 4899 0092 3B       		.uleb128 0x3b
 4900 0093 0B       		.uleb128 0xb
 4901 0094 6E       		.uleb128 0x6e
 4902 0095 08       		.uleb128 0x8
 4903 0096 49       		.uleb128 0x49
 4904 0097 13       		.uleb128 0x13
 4905 0098 3C       		.uleb128 0x3c
 4906 0099 19       		.uleb128 0x19
 4907 009a 01       		.uleb128 0x1
 4908 009b 13       		.uleb128 0x13
 4909 009c 00       		.byte	0
 4910 009d 00       		.byte	0
GAS LISTING C:\Users\USER\AppData\Local\Temp\ccxBfeO7.s 			page 113


 4911 009e 0D       		.uleb128 0xd
 4912 009f 2E       		.uleb128 0x2e
 4913 00a0 01       		.byte	0x1
 4914 00a1 3F       		.uleb128 0x3f
 4915 00a2 19       		.uleb128 0x19
 4916 00a3 03       		.uleb128 0x3
 4917 00a4 08       		.uleb128 0x8
 4918 00a5 3A       		.uleb128 0x3a
 4919 00a6 0B       		.uleb128 0xb
 4920 00a7 3B       		.uleb128 0x3b
 4921 00a8 05       		.uleb128 0x5
 4922 00a9 6E       		.uleb128 0x6e
 4923 00aa 08       		.uleb128 0x8
 4924 00ab 49       		.uleb128 0x49
 4925 00ac 13       		.uleb128 0x13
 4926 00ad 3C       		.uleb128 0x3c
 4927 00ae 19       		.uleb128 0x19
 4928 00af 01       		.uleb128 0x1
 4929 00b0 13       		.uleb128 0x13
 4930 00b1 00       		.byte	0
 4931 00b2 00       		.byte	0
 4932 00b3 0E       		.uleb128 0xe
 4933 00b4 2E       		.uleb128 0x2e
 4934 00b5 00       		.byte	0
 4935 00b6 3F       		.uleb128 0x3f
 4936 00b7 19       		.uleb128 0x19
 4937 00b8 03       		.uleb128 0x3
 4938 00b9 08       		.uleb128 0x8
 4939 00ba 3A       		.uleb128 0x3a
 4940 00bb 0B       		.uleb128 0xb
 4941 00bc 3B       		.uleb128 0x3b
 4942 00bd 05       		.uleb128 0x5
 4943 00be 6E       		.uleb128 0x6e
 4944 00bf 08       		.uleb128 0x8
 4945 00c0 49       		.uleb128 0x49
 4946 00c1 13       		.uleb128 0x13
 4947 00c2 3C       		.uleb128 0x3c
 4948 00c3 19       		.uleb128 0x19
 4949 00c4 00       		.byte	0
 4950 00c5 00       		.byte	0
 4951 00c6 0F       		.uleb128 0xf
 4952 00c7 2E       		.uleb128 0x2e
 4953 00c8 01       		.byte	0x1
 4954 00c9 3F       		.uleb128 0x3f
 4955 00ca 19       		.uleb128 0x19
 4956 00cb 03       		.uleb128 0x3
 4957 00cc 08       		.uleb128 0x8
 4958 00cd 3A       		.uleb128 0x3a
 4959 00ce 0B       		.uleb128 0xb
 4960 00cf 3B       		.uleb128 0x3b
 4961 00d0 05       		.uleb128 0x5
 4962 00d1 6E       		.uleb128 0x6e
 4963 00d2 08       		.uleb128 0x8
 4964 00d3 49       		.uleb128 0x49
 4965 00d4 13       		.uleb128 0x13
 4966 00d5 3C       		.uleb128 0x3c
 4967 00d6 19       		.uleb128 0x19
GAS LISTING C:\Users\USER\AppData\Local\Temp\ccxBfeO7.s 			page 114


 4968 00d7 00       		.byte	0
 4969 00d8 00       		.byte	0
 4970 00d9 10       		.uleb128 0x10
 4971 00da 04       		.uleb128 0x4
 4972 00db 01       		.byte	0x1
 4973 00dc 03       		.uleb128 0x3
 4974 00dd 08       		.uleb128 0x8
 4975 00de 0B       		.uleb128 0xb
 4976 00df 0B       		.uleb128 0xb
 4977 00e0 49       		.uleb128 0x49
 4978 00e1 13       		.uleb128 0x13
 4979 00e2 3A       		.uleb128 0x3a
 4980 00e3 0B       		.uleb128 0xb
 4981 00e4 3B       		.uleb128 0x3b
 4982 00e5 0B       		.uleb128 0xb
 4983 00e6 01       		.uleb128 0x1
 4984 00e7 13       		.uleb128 0x13
 4985 00e8 00       		.byte	0
 4986 00e9 00       		.byte	0
 4987 00ea 11       		.uleb128 0x11
 4988 00eb 28       		.uleb128 0x28
 4989 00ec 00       		.byte	0
 4990 00ed 03       		.uleb128 0x3
 4991 00ee 08       		.uleb128 0x8
 4992 00ef 1C       		.uleb128 0x1c
 4993 00f0 0B       		.uleb128 0xb
 4994 00f1 00       		.byte	0
 4995 00f2 00       		.byte	0
 4996 00f3 12       		.uleb128 0x12
 4997 00f4 28       		.uleb128 0x28
 4998 00f5 00       		.byte	0
 4999 00f6 03       		.uleb128 0x3
 5000 00f7 08       		.uleb128 0x8
 5001 00f8 1C       		.uleb128 0x1c
 5002 00f9 05       		.uleb128 0x5
 5003 00fa 00       		.byte	0
 5004 00fb 00       		.byte	0
 5005 00fc 13       		.uleb128 0x13
 5006 00fd 28       		.uleb128 0x28
 5007 00fe 00       		.byte	0
 5008 00ff 03       		.uleb128 0x3
 5009 0100 08       		.uleb128 0x8
 5010 0101 1C       		.uleb128 0x1c
 5011 0102 06       		.uleb128 0x6
 5012 0103 00       		.byte	0
 5013 0104 00       		.byte	0
 5014 0105 14       		.uleb128 0x14
 5015 0106 02       		.uleb128 0x2
 5016 0107 01       		.byte	0x1
 5017 0108 03       		.uleb128 0x3
 5018 0109 08       		.uleb128 0x8
 5019 010a 3C       		.uleb128 0x3c
 5020 010b 19       		.uleb128 0x19
 5021 010c 01       		.uleb128 0x1
 5022 010d 13       		.uleb128 0x13
 5023 010e 00       		.byte	0
 5024 010f 00       		.byte	0
GAS LISTING C:\Users\USER\AppData\Local\Temp\ccxBfeO7.s 			page 115


 5025 0110 15       		.uleb128 0x15
 5026 0111 02       		.uleb128 0x2
 5027 0112 01       		.byte	0x1
 5028 0113 03       		.uleb128 0x3
 5029 0114 08       		.uleb128 0x8
 5030 0115 0B       		.uleb128 0xb
 5031 0116 0B       		.uleb128 0xb
 5032 0117 3A       		.uleb128 0x3a
 5033 0118 0B       		.uleb128 0xb
 5034 0119 3B       		.uleb128 0x3b
 5035 011a 05       		.uleb128 0x5
 5036 011b 32       		.uleb128 0x32
 5037 011c 0B       		.uleb128 0xb
 5038 011d 01       		.uleb128 0x1
 5039 011e 13       		.uleb128 0x13
 5040 011f 00       		.byte	0
 5041 0120 00       		.byte	0
 5042 0121 16       		.uleb128 0x16
 5043 0122 0D       		.uleb128 0xd
 5044 0123 00       		.byte	0
 5045 0124 03       		.uleb128 0x3
 5046 0125 08       		.uleb128 0x8
 5047 0126 3A       		.uleb128 0x3a
 5048 0127 0B       		.uleb128 0xb
 5049 0128 3B       		.uleb128 0x3b
 5050 0129 05       		.uleb128 0x5
 5051 012a 49       		.uleb128 0x49
 5052 012b 13       		.uleb128 0x13
 5053 012c 3F       		.uleb128 0x3f
 5054 012d 19       		.uleb128 0x19
 5055 012e 3C       		.uleb128 0x3c
 5056 012f 19       		.uleb128 0x19
 5057 0130 00       		.byte	0
 5058 0131 00       		.byte	0
 5059 0132 17       		.uleb128 0x17
 5060 0133 2E       		.uleb128 0x2e
 5061 0134 01       		.byte	0x1
 5062 0135 3F       		.uleb128 0x3f
 5063 0136 19       		.uleb128 0x19
 5064 0137 03       		.uleb128 0x3
 5065 0138 08       		.uleb128 0x8
 5066 0139 3A       		.uleb128 0x3a
 5067 013a 0B       		.uleb128 0xb
 5068 013b 3B       		.uleb128 0x3b
 5069 013c 05       		.uleb128 0x5
 5070 013d 6E       		.uleb128 0x6e
 5071 013e 08       		.uleb128 0x8
 5072 013f 32       		.uleb128 0x32
 5073 0140 0B       		.uleb128 0xb
 5074 0141 3C       		.uleb128 0x3c
 5075 0142 19       		.uleb128 0x19
 5076 0143 64       		.uleb128 0x64
 5077 0144 13       		.uleb128 0x13
 5078 0145 01       		.uleb128 0x1
 5079 0146 13       		.uleb128 0x13
 5080 0147 00       		.byte	0
 5081 0148 00       		.byte	0
GAS LISTING C:\Users\USER\AppData\Local\Temp\ccxBfeO7.s 			page 116


 5082 0149 18       		.uleb128 0x18
 5083 014a 05       		.uleb128 0x5
 5084 014b 00       		.byte	0
 5085 014c 49       		.uleb128 0x49
 5086 014d 13       		.uleb128 0x13
 5087 014e 34       		.uleb128 0x34
 5088 014f 19       		.uleb128 0x19
 5089 0150 00       		.byte	0
 5090 0151 00       		.byte	0
 5091 0152 19       		.uleb128 0x19
 5092 0153 2E       		.uleb128 0x2e
 5093 0154 01       		.byte	0x1
 5094 0155 3F       		.uleb128 0x3f
 5095 0156 19       		.uleb128 0x19
 5096 0157 03       		.uleb128 0x3
 5097 0158 08       		.uleb128 0x8
 5098 0159 3A       		.uleb128 0x3a
 5099 015a 0B       		.uleb128 0xb
 5100 015b 3B       		.uleb128 0x3b
 5101 015c 05       		.uleb128 0x5
 5102 015d 6E       		.uleb128 0x6e
 5103 015e 08       		.uleb128 0x8
 5104 015f 32       		.uleb128 0x32
 5105 0160 0B       		.uleb128 0xb
 5106 0161 3C       		.uleb128 0x3c
 5107 0162 19       		.uleb128 0x19
 5108 0163 64       		.uleb128 0x64
 5109 0164 13       		.uleb128 0x13
 5110 0165 00       		.byte	0
 5111 0166 00       		.byte	0
 5112 0167 1A       		.uleb128 0x1a
 5113 0168 16       		.uleb128 0x16
 5114 0169 00       		.byte	0
 5115 016a 03       		.uleb128 0x3
 5116 016b 08       		.uleb128 0x8
 5117 016c 3A       		.uleb128 0x3a
 5118 016d 0B       		.uleb128 0xb
 5119 016e 3B       		.uleb128 0x3b
 5120 016f 05       		.uleb128 0x5
 5121 0170 49       		.uleb128 0x49
 5122 0171 13       		.uleb128 0x13
 5123 0172 32       		.uleb128 0x32
 5124 0173 0B       		.uleb128 0xb
 5125 0174 00       		.byte	0
 5126 0175 00       		.byte	0
 5127 0176 1B       		.uleb128 0x1b
 5128 0177 0D       		.uleb128 0xd
 5129 0178 00       		.byte	0
 5130 0179 03       		.uleb128 0x3
 5131 017a 08       		.uleb128 0x8
 5132 017b 3A       		.uleb128 0x3a
 5133 017c 0B       		.uleb128 0xb
 5134 017d 3B       		.uleb128 0x3b
 5135 017e 05       		.uleb128 0x5
 5136 017f 49       		.uleb128 0x49
 5137 0180 13       		.uleb128 0x13
 5138 0181 3F       		.uleb128 0x3f
GAS LISTING C:\Users\USER\AppData\Local\Temp\ccxBfeO7.s 			page 117


 5139 0182 19       		.uleb128 0x19
 5140 0183 32       		.uleb128 0x32
 5141 0184 0B       		.uleb128 0xb
 5142 0185 3C       		.uleb128 0x3c
 5143 0186 19       		.uleb128 0x19
 5144 0187 1C       		.uleb128 0x1c
 5145 0188 0B       		.uleb128 0xb
 5146 0189 00       		.byte	0
 5147 018a 00       		.byte	0
 5148 018b 1C       		.uleb128 0x1c
 5149 018c 0D       		.uleb128 0xd
 5150 018d 00       		.byte	0
 5151 018e 03       		.uleb128 0x3
 5152 018f 08       		.uleb128 0x8
 5153 0190 3A       		.uleb128 0x3a
 5154 0191 0B       		.uleb128 0xb
 5155 0192 3B       		.uleb128 0x3b
 5156 0193 05       		.uleb128 0x5
 5157 0194 49       		.uleb128 0x49
 5158 0195 13       		.uleb128 0x13
 5159 0196 3F       		.uleb128 0x3f
 5160 0197 19       		.uleb128 0x19
 5161 0198 32       		.uleb128 0x32
 5162 0199 0B       		.uleb128 0xb
 5163 019a 3C       		.uleb128 0x3c
 5164 019b 19       		.uleb128 0x19
 5165 019c 1C       		.uleb128 0x1c
 5166 019d 05       		.uleb128 0x5
 5167 019e 00       		.byte	0
 5168 019f 00       		.byte	0
 5169 01a0 1D       		.uleb128 0x1d
 5170 01a1 2F       		.uleb128 0x2f
 5171 01a2 00       		.byte	0
 5172 01a3 03       		.uleb128 0x3
 5173 01a4 08       		.uleb128 0x8
 5174 01a5 49       		.uleb128 0x49
 5175 01a6 13       		.uleb128 0x13
 5176 01a7 00       		.byte	0
 5177 01a8 00       		.byte	0
 5178 01a9 1E       		.uleb128 0x1e
 5179 01aa 2F       		.uleb128 0x2f
 5180 01ab 00       		.byte	0
 5181 01ac 03       		.uleb128 0x3
 5182 01ad 08       		.uleb128 0x8
 5183 01ae 49       		.uleb128 0x49
 5184 01af 13       		.uleb128 0x13
 5185 01b0 1E       		.uleb128 0x1e
 5186 01b1 19       		.uleb128 0x19
 5187 01b2 00       		.byte	0
 5188 01b3 00       		.byte	0
 5189 01b4 1F       		.uleb128 0x1f
 5190 01b5 02       		.uleb128 0x2
 5191 01b6 01       		.byte	0x1
 5192 01b7 03       		.uleb128 0x3
 5193 01b8 0E       		.uleb128 0xe
 5194 01b9 3C       		.uleb128 0x3c
 5195 01ba 19       		.uleb128 0x19
GAS LISTING C:\Users\USER\AppData\Local\Temp\ccxBfeO7.s 			page 118


 5196 01bb 01       		.uleb128 0x1
 5197 01bc 13       		.uleb128 0x13
 5198 01bd 00       		.byte	0
 5199 01be 00       		.byte	0
 5200 01bf 20       		.uleb128 0x20
 5201 01c0 2E       		.uleb128 0x2e
 5202 01c1 01       		.byte	0x1
 5203 01c2 3F       		.uleb128 0x3f
 5204 01c3 19       		.uleb128 0x19
 5205 01c4 03       		.uleb128 0x3
 5206 01c5 0E       		.uleb128 0xe
 5207 01c6 3A       		.uleb128 0x3a
 5208 01c7 0B       		.uleb128 0xb
 5209 01c8 3B       		.uleb128 0x3b
 5210 01c9 0B       		.uleb128 0xb
 5211 01ca 6E       		.uleb128 0x6e
 5212 01cb 08       		.uleb128 0x8
 5213 01cc 32       		.uleb128 0x32
 5214 01cd 0B       		.uleb128 0xb
 5215 01ce 3C       		.uleb128 0x3c
 5216 01cf 19       		.uleb128 0x19
 5217 01d0 64       		.uleb128 0x64
 5218 01d1 13       		.uleb128 0x13
 5219 01d2 00       		.byte	0
 5220 01d3 00       		.byte	0
 5221 01d4 21       		.uleb128 0x21
 5222 01d5 34       		.uleb128 0x34
 5223 01d6 00       		.byte	0
 5224 01d7 03       		.uleb128 0x3
 5225 01d8 08       		.uleb128 0x8
 5226 01d9 3A       		.uleb128 0x3a
 5227 01da 0B       		.uleb128 0xb
 5228 01db 3B       		.uleb128 0x3b
 5229 01dc 0B       		.uleb128 0xb
 5230 01dd 6E       		.uleb128 0x6e
 5231 01de 08       		.uleb128 0x8
 5232 01df 49       		.uleb128 0x49
 5233 01e0 13       		.uleb128 0x13
 5234 01e1 3F       		.uleb128 0x3f
 5235 01e2 19       		.uleb128 0x19
 5236 01e3 3C       		.uleb128 0x3c
 5237 01e4 19       		.uleb128 0x19
 5238 01e5 00       		.byte	0
 5239 01e6 00       		.byte	0
 5240 01e7 22       		.uleb128 0x22
 5241 01e8 34       		.uleb128 0x34
 5242 01e9 00       		.byte	0
 5243 01ea 03       		.uleb128 0x3
 5244 01eb 08       		.uleb128 0x8
 5245 01ec 3A       		.uleb128 0x3a
 5246 01ed 0B       		.uleb128 0xb
 5247 01ee 3B       		.uleb128 0x3b
 5248 01ef 0B       		.uleb128 0xb
 5249 01f0 49       		.uleb128 0x49
 5250 01f1 13       		.uleb128 0x13
 5251 01f2 3C       		.uleb128 0x3c
 5252 01f3 19       		.uleb128 0x19
GAS LISTING C:\Users\USER\AppData\Local\Temp\ccxBfeO7.s 			page 119


 5253 01f4 00       		.byte	0
 5254 01f5 00       		.byte	0
 5255 01f6 23       		.uleb128 0x23
 5256 01f7 0D       		.uleb128 0xd
 5257 01f8 00       		.byte	0
 5258 01f9 03       		.uleb128 0x3
 5259 01fa 0E       		.uleb128 0xe
 5260 01fb 3A       		.uleb128 0x3a
 5261 01fc 0B       		.uleb128 0xb
 5262 01fd 3B       		.uleb128 0x3b
 5263 01fe 0B       		.uleb128 0xb
 5264 01ff 49       		.uleb128 0x49
 5265 0200 13       		.uleb128 0x13
 5266 0201 3F       		.uleb128 0x3f
 5267 0202 19       		.uleb128 0x19
 5268 0203 3C       		.uleb128 0x3c
 5269 0204 19       		.uleb128 0x19
 5270 0205 00       		.byte	0
 5271 0206 00       		.byte	0
 5272 0207 24       		.uleb128 0x24
 5273 0208 2F       		.uleb128 0x2f
 5274 0209 00       		.byte	0
 5275 020a 03       		.uleb128 0x3
 5276 020b 0E       		.uleb128 0xe
 5277 020c 49       		.uleb128 0x49
 5278 020d 13       		.uleb128 0x13
 5279 020e 00       		.byte	0
 5280 020f 00       		.byte	0
 5281 0210 25       		.uleb128 0x25
 5282 0211 13       		.uleb128 0x13
 5283 0212 01       		.byte	0x1
 5284 0213 03       		.uleb128 0x3
 5285 0214 08       		.uleb128 0x8
 5286 0215 0B       		.uleb128 0xb
 5287 0216 0B       		.uleb128 0xb
 5288 0217 3A       		.uleb128 0x3a
 5289 0218 0B       		.uleb128 0xb
 5290 0219 3B       		.uleb128 0x3b
 5291 021a 0B       		.uleb128 0xb
 5292 021b 00       		.byte	0
 5293 021c 00       		.byte	0
 5294 021d 26       		.uleb128 0x26
 5295 021e 24       		.uleb128 0x24
 5296 021f 00       		.byte	0
 5297 0220 0B       		.uleb128 0xb
 5298 0221 0B       		.uleb128 0xb
 5299 0222 3E       		.uleb128 0x3e
 5300 0223 0B       		.uleb128 0xb
 5301 0224 03       		.uleb128 0x3
 5302 0225 08       		.uleb128 0x8
 5303 0226 00       		.byte	0
 5304 0227 00       		.byte	0
 5305 0228 27       		.uleb128 0x27
 5306 0229 16       		.uleb128 0x16
 5307 022a 00       		.byte	0
 5308 022b 03       		.uleb128 0x3
 5309 022c 08       		.uleb128 0x8
GAS LISTING C:\Users\USER\AppData\Local\Temp\ccxBfeO7.s 			page 120


 5310 022d 3A       		.uleb128 0x3a
 5311 022e 0B       		.uleb128 0xb
 5312 022f 3B       		.uleb128 0x3b
 5313 0230 05       		.uleb128 0x5
 5314 0231 49       		.uleb128 0x49
 5315 0232 13       		.uleb128 0x13
 5316 0233 00       		.byte	0
 5317 0234 00       		.byte	0
 5318 0235 28       		.uleb128 0x28
 5319 0236 0F       		.uleb128 0xf
 5320 0237 00       		.byte	0
 5321 0238 0B       		.uleb128 0xb
 5322 0239 0B       		.uleb128 0xb
 5323 023a 03       		.uleb128 0x3
 5324 023b 08       		.uleb128 0x8
 5325 023c 49       		.uleb128 0x49
 5326 023d 13       		.uleb128 0x13
 5327 023e 00       		.byte	0
 5328 023f 00       		.byte	0
 5329 0240 29       		.uleb128 0x29
 5330 0241 0D       		.uleb128 0xd
 5331 0242 00       		.byte	0
 5332 0243 03       		.uleb128 0x3
 5333 0244 08       		.uleb128 0x8
 5334 0245 3A       		.uleb128 0x3a
 5335 0246 0B       		.uleb128 0xb
 5336 0247 3B       		.uleb128 0x3b
 5337 0248 0B       		.uleb128 0xb
 5338 0249 49       		.uleb128 0x49
 5339 024a 13       		.uleb128 0x13
 5340 024b 38       		.uleb128 0x38
 5341 024c 0B       		.uleb128 0xb
 5342 024d 00       		.byte	0
 5343 024e 00       		.byte	0
 5344 024f 2A       		.uleb128 0x2a
 5345 0250 0F       		.uleb128 0xf
 5346 0251 00       		.byte	0
 5347 0252 0B       		.uleb128 0xb
 5348 0253 0B       		.uleb128 0xb
 5349 0254 49       		.uleb128 0x49
 5350 0255 13       		.uleb128 0x13
 5351 0256 00       		.byte	0
 5352 0257 00       		.byte	0
 5353 0258 2B       		.uleb128 0x2b
 5354 0259 2E       		.uleb128 0x2e
 5355 025a 01       		.byte	0x1
 5356 025b 3F       		.uleb128 0x3f
 5357 025c 19       		.uleb128 0x19
 5358 025d 03       		.uleb128 0x3
 5359 025e 08       		.uleb128 0x8
 5360 025f 3A       		.uleb128 0x3a
 5361 0260 0B       		.uleb128 0xb
 5362 0261 3B       		.uleb128 0x3b
 5363 0262 05       		.uleb128 0x5
 5364 0263 49       		.uleb128 0x49
 5365 0264 13       		.uleb128 0x13
 5366 0265 3C       		.uleb128 0x3c
GAS LISTING C:\Users\USER\AppData\Local\Temp\ccxBfeO7.s 			page 121


 5367 0266 19       		.uleb128 0x19
 5368 0267 01       		.uleb128 0x1
 5369 0268 13       		.uleb128 0x13
 5370 0269 00       		.byte	0
 5371 026a 00       		.byte	0
 5372 026b 2C       		.uleb128 0x2c
 5373 026c 2E       		.uleb128 0x2e
 5374 026d 01       		.byte	0x1
 5375 026e 3F       		.uleb128 0x3f
 5376 026f 19       		.uleb128 0x19
 5377 0270 03       		.uleb128 0x3
 5378 0271 08       		.uleb128 0x8
 5379 0272 3A       		.uleb128 0x3a
 5380 0273 0B       		.uleb128 0xb
 5381 0274 3B       		.uleb128 0x3b
 5382 0275 0B       		.uleb128 0xb
 5383 0276 49       		.uleb128 0x49
 5384 0277 13       		.uleb128 0x13
 5385 0278 3C       		.uleb128 0x3c
 5386 0279 19       		.uleb128 0x19
 5387 027a 01       		.uleb128 0x1
 5388 027b 13       		.uleb128 0x13
 5389 027c 00       		.byte	0
 5390 027d 00       		.byte	0
 5391 027e 2D       		.uleb128 0x2d
 5392 027f 18       		.uleb128 0x18
 5393 0280 00       		.byte	0
 5394 0281 00       		.byte	0
 5395 0282 00       		.byte	0
 5396 0283 2E       		.uleb128 0x2e
 5397 0284 2E       		.uleb128 0x2e
 5398 0285 00       		.byte	0
 5399 0286 3F       		.uleb128 0x3f
 5400 0287 19       		.uleb128 0x19
 5401 0288 03       		.uleb128 0x3
 5402 0289 08       		.uleb128 0x8
 5403 028a 3A       		.uleb128 0x3a
 5404 028b 0B       		.uleb128 0xb
 5405 028c 3B       		.uleb128 0x3b
 5406 028d 0B       		.uleb128 0xb
 5407 028e 49       		.uleb128 0x49
 5408 028f 13       		.uleb128 0x13
 5409 0290 3C       		.uleb128 0x3c
 5410 0291 19       		.uleb128 0x19
 5411 0292 00       		.byte	0
 5412 0293 00       		.byte	0
 5413 0294 2F       		.uleb128 0x2f
 5414 0295 10       		.uleb128 0x10
 5415 0296 00       		.byte	0
 5416 0297 0B       		.uleb128 0xb
 5417 0298 0B       		.uleb128 0xb
 5418 0299 49       		.uleb128 0x49
 5419 029a 13       		.uleb128 0x13
 5420 029b 00       		.byte	0
 5421 029c 00       		.byte	0
 5422 029d 30       		.uleb128 0x30
 5423 029e 02       		.uleb128 0x2
GAS LISTING C:\Users\USER\AppData\Local\Temp\ccxBfeO7.s 			page 122


 5424 029f 01       		.byte	0x1
 5425 02a0 03       		.uleb128 0x3
 5426 02a1 08       		.uleb128 0x8
 5427 02a2 0B       		.uleb128 0xb
 5428 02a3 0B       		.uleb128 0xb
 5429 02a4 3A       		.uleb128 0x3a
 5430 02a5 0B       		.uleb128 0xb
 5431 02a6 3B       		.uleb128 0x3b
 5432 02a7 0B       		.uleb128 0xb
 5433 02a8 1D       		.uleb128 0x1d
 5434 02a9 13       		.uleb128 0x13
 5435 02aa 01       		.uleb128 0x1
 5436 02ab 13       		.uleb128 0x13
 5437 02ac 00       		.byte	0
 5438 02ad 00       		.byte	0
 5439 02ae 31       		.uleb128 0x31
 5440 02af 0D       		.uleb128 0xd
 5441 02b0 00       		.byte	0
 5442 02b1 03       		.uleb128 0x3
 5443 02b2 08       		.uleb128 0x8
 5444 02b3 49       		.uleb128 0x49
 5445 02b4 13       		.uleb128 0x13
 5446 02b5 38       		.uleb128 0x38
 5447 02b6 0B       		.uleb128 0xb
 5448 02b7 34       		.uleb128 0x34
 5449 02b8 19       		.uleb128 0x19
 5450 02b9 32       		.uleb128 0x32
 5451 02ba 0B       		.uleb128 0xb
 5452 02bb 00       		.byte	0
 5453 02bc 00       		.byte	0
 5454 02bd 32       		.uleb128 0x32
 5455 02be 2E       		.uleb128 0x2e
 5456 02bf 01       		.byte	0x1
 5457 02c0 3F       		.uleb128 0x3f
 5458 02c1 19       		.uleb128 0x19
 5459 02c2 03       		.uleb128 0x3
 5460 02c3 08       		.uleb128 0x8
 5461 02c4 6E       		.uleb128 0x6e
 5462 02c5 08       		.uleb128 0x8
 5463 02c6 34       		.uleb128 0x34
 5464 02c7 19       		.uleb128 0x19
 5465 02c8 32       		.uleb128 0x32
 5466 02c9 0B       		.uleb128 0xb
 5467 02ca 3C       		.uleb128 0x3c
 5468 02cb 19       		.uleb128 0x19
 5469 02cc 64       		.uleb128 0x64
 5470 02cd 13       		.uleb128 0x13
 5471 02ce 01       		.uleb128 0x1
 5472 02cf 13       		.uleb128 0x13
 5473 02d0 00       		.byte	0
 5474 02d1 00       		.byte	0
 5475 02d2 33       		.uleb128 0x33
 5476 02d3 2E       		.uleb128 0x2e
 5477 02d4 01       		.byte	0x1
 5478 02d5 3F       		.uleb128 0x3f
 5479 02d6 19       		.uleb128 0x19
 5480 02d7 03       		.uleb128 0x3
GAS LISTING C:\Users\USER\AppData\Local\Temp\ccxBfeO7.s 			page 123


 5481 02d8 08       		.uleb128 0x8
 5482 02d9 3A       		.uleb128 0x3a
 5483 02da 0B       		.uleb128 0xb
 5484 02db 3B       		.uleb128 0x3b
 5485 02dc 0B       		.uleb128 0xb
 5486 02dd 6E       		.uleb128 0x6e
 5487 02de 08       		.uleb128 0x8
 5488 02df 32       		.uleb128 0x32
 5489 02e0 0B       		.uleb128 0xb
 5490 02e1 3C       		.uleb128 0x3c
 5491 02e2 19       		.uleb128 0x19
 5492 02e3 64       		.uleb128 0x64
 5493 02e4 13       		.uleb128 0x13
 5494 02e5 01       		.uleb128 0x1
 5495 02e6 13       		.uleb128 0x13
 5496 02e7 00       		.byte	0
 5497 02e8 00       		.byte	0
 5498 02e9 34       		.uleb128 0x34
 5499 02ea 2E       		.uleb128 0x2e
 5500 02eb 01       		.byte	0x1
 5501 02ec 3F       		.uleb128 0x3f
 5502 02ed 19       		.uleb128 0x19
 5503 02ee 03       		.uleb128 0x3
 5504 02ef 08       		.uleb128 0x8
 5505 02f0 3A       		.uleb128 0x3a
 5506 02f1 0B       		.uleb128 0xb
 5507 02f2 3B       		.uleb128 0x3b
 5508 02f3 0B       		.uleb128 0xb
 5509 02f4 6E       		.uleb128 0x6e
 5510 02f5 08       		.uleb128 0x8
 5511 02f6 4C       		.uleb128 0x4c
 5512 02f7 0B       		.uleb128 0xb
 5513 02f8 1D       		.uleb128 0x1d
 5514 02f9 13       		.uleb128 0x13
 5515 02fa 32       		.uleb128 0x32
 5516 02fb 0B       		.uleb128 0xb
 5517 02fc 3C       		.uleb128 0x3c
 5518 02fd 19       		.uleb128 0x19
 5519 02fe 64       		.uleb128 0x64
 5520 02ff 13       		.uleb128 0x13
 5521 0300 01       		.uleb128 0x1
 5522 0301 13       		.uleb128 0x13
 5523 0302 00       		.byte	0
 5524 0303 00       		.byte	0
 5525 0304 35       		.uleb128 0x35
 5526 0305 15       		.uleb128 0x15
 5527 0306 01       		.byte	0x1
 5528 0307 49       		.uleb128 0x49
 5529 0308 13       		.uleb128 0x13
 5530 0309 01       		.uleb128 0x1
 5531 030a 13       		.uleb128 0x13
 5532 030b 00       		.byte	0
 5533 030c 00       		.byte	0
 5534 030d 36       		.uleb128 0x36
 5535 030e 2E       		.uleb128 0x2e
 5536 030f 01       		.byte	0x1
 5537 0310 3F       		.uleb128 0x3f
GAS LISTING C:\Users\USER\AppData\Local\Temp\ccxBfeO7.s 			page 124


 5538 0311 19       		.uleb128 0x19
 5539 0312 03       		.uleb128 0x3
 5540 0313 08       		.uleb128 0x8
 5541 0314 3A       		.uleb128 0x3a
 5542 0315 0B       		.uleb128 0xb
 5543 0316 3B       		.uleb128 0x3b
 5544 0317 0B       		.uleb128 0xb
 5545 0318 6E       		.uleb128 0x6e
 5546 0319 08       		.uleb128 0x8
 5547 031a 49       		.uleb128 0x49
 5548 031b 13       		.uleb128 0x13
 5549 031c 32       		.uleb128 0x32
 5550 031d 0B       		.uleb128 0xb
 5551 031e 3C       		.uleb128 0x3c
 5552 031f 19       		.uleb128 0x19
 5553 0320 64       		.uleb128 0x64
 5554 0321 13       		.uleb128 0x13
 5555 0322 01       		.uleb128 0x1
 5556 0323 13       		.uleb128 0x13
 5557 0324 00       		.byte	0
 5558 0325 00       		.byte	0
 5559 0326 37       		.uleb128 0x37
 5560 0327 2E       		.uleb128 0x2e
 5561 0328 01       		.byte	0x1
 5562 0329 3F       		.uleb128 0x3f
 5563 032a 19       		.uleb128 0x19
 5564 032b 03       		.uleb128 0x3
 5565 032c 08       		.uleb128 0x8
 5566 032d 3A       		.uleb128 0x3a
 5567 032e 0B       		.uleb128 0xb
 5568 032f 3B       		.uleb128 0x3b
 5569 0330 05       		.uleb128 0x5
 5570 0331 6E       		.uleb128 0x6e
 5571 0332 08       		.uleb128 0x8
 5572 0333 49       		.uleb128 0x49
 5573 0334 13       		.uleb128 0x13
 5574 0335 32       		.uleb128 0x32
 5575 0336 0B       		.uleb128 0xb
 5576 0337 3C       		.uleb128 0x3c
 5577 0338 19       		.uleb128 0x19
 5578 0339 64       		.uleb128 0x64
 5579 033a 13       		.uleb128 0x13
 5580 033b 01       		.uleb128 0x1
 5581 033c 13       		.uleb128 0x13
 5582 033d 00       		.byte	0
 5583 033e 00       		.byte	0
 5584 033f 38       		.uleb128 0x38
 5585 0340 02       		.uleb128 0x2
 5586 0341 01       		.byte	0x1
 5587 0342 03       		.uleb128 0x3
 5588 0343 0E       		.uleb128 0xe
 5589 0344 0B       		.uleb128 0xb
 5590 0345 0B       		.uleb128 0xb
 5591 0346 3A       		.uleb128 0x3a
 5592 0347 0B       		.uleb128 0xb
 5593 0348 3B       		.uleb128 0x3b
 5594 0349 0B       		.uleb128 0xb
GAS LISTING C:\Users\USER\AppData\Local\Temp\ccxBfeO7.s 			page 125


 5595 034a 1D       		.uleb128 0x1d
 5596 034b 13       		.uleb128 0x13
 5597 034c 01       		.uleb128 0x1
 5598 034d 13       		.uleb128 0x13
 5599 034e 00       		.byte	0
 5600 034f 00       		.byte	0
 5601 0350 39       		.uleb128 0x39
 5602 0351 1C       		.uleb128 0x1c
 5603 0352 00       		.byte	0
 5604 0353 49       		.uleb128 0x49
 5605 0354 13       		.uleb128 0x13
 5606 0355 38       		.uleb128 0x38
 5607 0356 0B       		.uleb128 0xb
 5608 0357 32       		.uleb128 0x32
 5609 0358 0B       		.uleb128 0xb
 5610 0359 00       		.byte	0
 5611 035a 00       		.byte	0
 5612 035b 3A       		.uleb128 0x3a
 5613 035c 2E       		.uleb128 0x2e
 5614 035d 01       		.byte	0x1
 5615 035e 3F       		.uleb128 0x3f
 5616 035f 19       		.uleb128 0x19
 5617 0360 03       		.uleb128 0x3
 5618 0361 0E       		.uleb128 0xe
 5619 0362 6E       		.uleb128 0x6e
 5620 0363 08       		.uleb128 0x8
 5621 0364 34       		.uleb128 0x34
 5622 0365 19       		.uleb128 0x19
 5623 0366 32       		.uleb128 0x32
 5624 0367 0B       		.uleb128 0xb
 5625 0368 3C       		.uleb128 0x3c
 5626 0369 19       		.uleb128 0x19
 5627 036a 64       		.uleb128 0x64
 5628 036b 13       		.uleb128 0x13
 5629 036c 01       		.uleb128 0x1
 5630 036d 13       		.uleb128 0x13
 5631 036e 00       		.byte	0
 5632 036f 00       		.byte	0
 5633 0370 3B       		.uleb128 0x3b
 5634 0371 2E       		.uleb128 0x2e
 5635 0372 01       		.byte	0x1
 5636 0373 3F       		.uleb128 0x3f
 5637 0374 19       		.uleb128 0x19
 5638 0375 03       		.uleb128 0x3
 5639 0376 08       		.uleb128 0x8
 5640 0377 3A       		.uleb128 0x3a
 5641 0378 0B       		.uleb128 0xb
 5642 0379 3B       		.uleb128 0x3b
 5643 037a 0B       		.uleb128 0xb
 5644 037b 6E       		.uleb128 0x6e
 5645 037c 08       		.uleb128 0x8
 5646 037d 49       		.uleb128 0x49
 5647 037e 13       		.uleb128 0x13
 5648 037f 4C       		.uleb128 0x4c
 5649 0380 0B       		.uleb128 0xb
 5650 0381 4D       		.uleb128 0x4d
 5651 0382 18       		.uleb128 0x18
GAS LISTING C:\Users\USER\AppData\Local\Temp\ccxBfeO7.s 			page 126


 5652 0383 1D       		.uleb128 0x1d
 5653 0384 13       		.uleb128 0x13
 5654 0385 32       		.uleb128 0x32
 5655 0386 0B       		.uleb128 0xb
 5656 0387 3C       		.uleb128 0x3c
 5657 0388 19       		.uleb128 0x19
 5658 0389 64       		.uleb128 0x64
 5659 038a 13       		.uleb128 0x13
 5660 038b 01       		.uleb128 0x1
 5661 038c 13       		.uleb128 0x13
 5662 038d 00       		.byte	0
 5663 038e 00       		.byte	0
 5664 038f 3C       		.uleb128 0x3c
 5665 0390 2E       		.uleb128 0x2e
 5666 0391 01       		.byte	0x1
 5667 0392 3F       		.uleb128 0x3f
 5668 0393 19       		.uleb128 0x19
 5669 0394 03       		.uleb128 0x3
 5670 0395 08       		.uleb128 0x8
 5671 0396 6E       		.uleb128 0x6e
 5672 0397 08       		.uleb128 0x8
 5673 0398 4C       		.uleb128 0x4c
 5674 0399 0B       		.uleb128 0xb
 5675 039a 1D       		.uleb128 0x1d
 5676 039b 13       		.uleb128 0x13
 5677 039c 34       		.uleb128 0x34
 5678 039d 19       		.uleb128 0x19
 5679 039e 32       		.uleb128 0x32
 5680 039f 0B       		.uleb128 0xb
 5681 03a0 3C       		.uleb128 0x3c
 5682 03a1 19       		.uleb128 0x19
 5683 03a2 64       		.uleb128 0x64
 5684 03a3 13       		.uleb128 0x13
 5685 03a4 00       		.byte	0
 5686 03a5 00       		.byte	0
 5687 03a6 3D       		.uleb128 0x3d
 5688 03a7 2E       		.uleb128 0x2e
 5689 03a8 01       		.byte	0x1
 5690 03a9 47       		.uleb128 0x47
 5691 03aa 13       		.uleb128 0x13
 5692 03ab 20       		.uleb128 0x20
 5693 03ac 0B       		.uleb128 0xb
 5694 03ad 64       		.uleb128 0x64
 5695 03ae 13       		.uleb128 0x13
 5696 03af 01       		.uleb128 0x1
 5697 03b0 13       		.uleb128 0x13
 5698 03b1 00       		.byte	0
 5699 03b2 00       		.byte	0
 5700 03b3 3E       		.uleb128 0x3e
 5701 03b4 05       		.uleb128 0x5
 5702 03b5 00       		.byte	0
 5703 03b6 03       		.uleb128 0x3
 5704 03b7 0E       		.uleb128 0xe
 5705 03b8 49       		.uleb128 0x49
 5706 03b9 13       		.uleb128 0x13
 5707 03ba 34       		.uleb128 0x34
 5708 03bb 19       		.uleb128 0x19
GAS LISTING C:\Users\USER\AppData\Local\Temp\ccxBfeO7.s 			page 127


 5709 03bc 00       		.byte	0
 5710 03bd 00       		.byte	0
 5711 03be 3F       		.uleb128 0x3f
 5712 03bf 2E       		.uleb128 0x2e
 5713 03c0 01       		.byte	0x1
 5714 03c1 31       		.uleb128 0x31
 5715 03c2 13       		.uleb128 0x13
 5716 03c3 6E       		.uleb128 0x6e
 5717 03c4 08       		.uleb128 0x8
 5718 03c5 11       		.uleb128 0x11
 5719 03c6 01       		.uleb128 0x1
 5720 03c7 12       		.uleb128 0x12
 5721 03c8 06       		.uleb128 0x6
 5722 03c9 40       		.uleb128 0x40
 5723 03ca 18       		.uleb128 0x18
 5724 03cb 64       		.uleb128 0x64
 5725 03cc 13       		.uleb128 0x13
 5726 03cd 9742     		.uleb128 0x2117
 5727 03cf 19       		.uleb128 0x19
 5728 03d0 01       		.uleb128 0x1
 5729 03d1 13       		.uleb128 0x13
 5730 03d2 00       		.byte	0
 5731 03d3 00       		.byte	0
 5732 03d4 40       		.uleb128 0x40
 5733 03d5 05       		.uleb128 0x5
 5734 03d6 00       		.byte	0
 5735 03d7 31       		.uleb128 0x31
 5736 03d8 13       		.uleb128 0x13
 5737 03d9 02       		.uleb128 0x2
 5738 03da 18       		.uleb128 0x18
 5739 03db 00       		.byte	0
 5740 03dc 00       		.byte	0
 5741 03dd 41       		.uleb128 0x41
 5742 03de 2E       		.uleb128 0x2e
 5743 03df 01       		.byte	0x1
 5744 03e0 47       		.uleb128 0x47
 5745 03e1 13       		.uleb128 0x13
 5746 03e2 11       		.uleb128 0x11
 5747 03e3 01       		.uleb128 0x1
 5748 03e4 12       		.uleb128 0x12
 5749 03e5 06       		.uleb128 0x6
 5750 03e6 40       		.uleb128 0x40
 5751 03e7 18       		.uleb128 0x18
 5752 03e8 64       		.uleb128 0x64
 5753 03e9 13       		.uleb128 0x13
 5754 03ea 9742     		.uleb128 0x2117
 5755 03ec 19       		.uleb128 0x19
 5756 03ed 01       		.uleb128 0x1
 5757 03ee 13       		.uleb128 0x13
 5758 03ef 00       		.byte	0
 5759 03f0 00       		.byte	0
 5760 03f1 42       		.uleb128 0x42
 5761 03f2 05       		.uleb128 0x5
 5762 03f3 00       		.byte	0
 5763 03f4 03       		.uleb128 0x3
 5764 03f5 0E       		.uleb128 0xe
 5765 03f6 49       		.uleb128 0x49
GAS LISTING C:\Users\USER\AppData\Local\Temp\ccxBfeO7.s 			page 128


 5766 03f7 13       		.uleb128 0x13
 5767 03f8 34       		.uleb128 0x34
 5768 03f9 19       		.uleb128 0x19
 5769 03fa 02       		.uleb128 0x2
 5770 03fb 18       		.uleb128 0x18
 5771 03fc 00       		.byte	0
 5772 03fd 00       		.byte	0
 5773 03fe 43       		.uleb128 0x43
 5774 03ff 2E       		.uleb128 0x2e
 5775 0400 01       		.byte	0x1
 5776 0401 3F       		.uleb128 0x3f
 5777 0402 19       		.uleb128 0x19
 5778 0403 03       		.uleb128 0x3
 5779 0404 08       		.uleb128 0x8
 5780 0405 3A       		.uleb128 0x3a
 5781 0406 0B       		.uleb128 0xb
 5782 0407 3B       		.uleb128 0x3b
 5783 0408 05       		.uleb128 0x5
 5784 0409 6E       		.uleb128 0x6e
 5785 040a 08       		.uleb128 0x8
 5786 040b 49       		.uleb128 0x49
 5787 040c 13       		.uleb128 0x13
 5788 040d 11       		.uleb128 0x11
 5789 040e 01       		.uleb128 0x1
 5790 040f 12       		.uleb128 0x12
 5791 0410 06       		.uleb128 0x6
 5792 0411 40       		.uleb128 0x40
 5793 0412 18       		.uleb128 0x18
 5794 0413 9642     		.uleb128 0x2116
 5795 0415 19       		.uleb128 0x19
 5796 0416 01       		.uleb128 0x1
 5797 0417 13       		.uleb128 0x13
 5798 0418 00       		.byte	0
 5799 0419 00       		.byte	0
 5800 041a 44       		.uleb128 0x44
 5801 041b 34       		.uleb128 0x34
 5802 041c 00       		.byte	0
 5803 041d 03       		.uleb128 0x3
 5804 041e 08       		.uleb128 0x8
 5805 041f 3A       		.uleb128 0x3a
 5806 0420 0B       		.uleb128 0xb
 5807 0421 3B       		.uleb128 0x3b
 5808 0422 05       		.uleb128 0x5
 5809 0423 49       		.uleb128 0x49
 5810 0424 13       		.uleb128 0x13
 5811 0425 02       		.uleb128 0x2
 5812 0426 18       		.uleb128 0x18
 5813 0427 00       		.byte	0
 5814 0428 00       		.byte	0
 5815 0429 45       		.uleb128 0x45
 5816 042a 2E       		.uleb128 0x2e
 5817 042b 01       		.byte	0x1
 5818 042c 3F       		.uleb128 0x3f
 5819 042d 19       		.uleb128 0x19
 5820 042e 03       		.uleb128 0x3
 5821 042f 08       		.uleb128 0x8
 5822 0430 3A       		.uleb128 0x3a
GAS LISTING C:\Users\USER\AppData\Local\Temp\ccxBfeO7.s 			page 129


 5823 0431 0B       		.uleb128 0xb
 5824 0432 3B       		.uleb128 0x3b
 5825 0433 05       		.uleb128 0x5
 5826 0434 49       		.uleb128 0x49
 5827 0435 13       		.uleb128 0x13
 5828 0436 11       		.uleb128 0x11
 5829 0437 01       		.uleb128 0x1
 5830 0438 12       		.uleb128 0x12
 5831 0439 06       		.uleb128 0x6
 5832 043a 40       		.uleb128 0x40
 5833 043b 18       		.uleb128 0x18
 5834 043c 9642     		.uleb128 0x2116
 5835 043e 19       		.uleb128 0x19
 5836 043f 01       		.uleb128 0x1
 5837 0440 13       		.uleb128 0x13
 5838 0441 00       		.byte	0
 5839 0442 00       		.byte	0
 5840 0443 46       		.uleb128 0x46
 5841 0444 0B       		.uleb128 0xb
 5842 0445 01       		.byte	0x1
 5843 0446 11       		.uleb128 0x11
 5844 0447 01       		.uleb128 0x1
 5845 0448 12       		.uleb128 0x12
 5846 0449 06       		.uleb128 0x6
 5847 044a 01       		.uleb128 0x1
 5848 044b 13       		.uleb128 0x13
 5849 044c 00       		.byte	0
 5850 044d 00       		.byte	0
 5851 044e 47       		.uleb128 0x47
 5852 044f 0B       		.uleb128 0xb
 5853 0450 01       		.byte	0x1
 5854 0451 11       		.uleb128 0x11
 5855 0452 01       		.uleb128 0x1
 5856 0453 12       		.uleb128 0x12
 5857 0454 06       		.uleb128 0x6
 5858 0455 00       		.byte	0
 5859 0456 00       		.byte	0
 5860 0457 48       		.uleb128 0x48
 5861 0458 2E       		.uleb128 0x2e
 5862 0459 01       		.byte	0x1
 5863 045a 31       		.uleb128 0x31
 5864 045b 13       		.uleb128 0x13
 5865 045c 6E       		.uleb128 0x6e
 5866 045d 08       		.uleb128 0x8
 5867 045e 11       		.uleb128 0x11
 5868 045f 01       		.uleb128 0x1
 5869 0460 12       		.uleb128 0x12
 5870 0461 06       		.uleb128 0x6
 5871 0462 40       		.uleb128 0x40
 5872 0463 18       		.uleb128 0x18
 5873 0464 64       		.uleb128 0x64
 5874 0465 13       		.uleb128 0x13
 5875 0466 9642     		.uleb128 0x2116
 5876 0468 19       		.uleb128 0x19
 5877 0469 01       		.uleb128 0x1
 5878 046a 13       		.uleb128 0x13
 5879 046b 00       		.byte	0
GAS LISTING C:\Users\USER\AppData\Local\Temp\ccxBfeO7.s 			page 130


 5880 046c 00       		.byte	0
 5881 046d 49       		.uleb128 0x49
 5882 046e 2E       		.uleb128 0x2e
 5883 046f 01       		.byte	0x1
 5884 0470 47       		.uleb128 0x47
 5885 0471 13       		.uleb128 0x13
 5886 0472 3A       		.uleb128 0x3a
 5887 0473 0B       		.uleb128 0xb
 5888 0474 3B       		.uleb128 0x3b
 5889 0475 0B       		.uleb128 0xb
 5890 0476 20       		.uleb128 0x20
 5891 0477 0B       		.uleb128 0xb
 5892 0478 64       		.uleb128 0x64
 5893 0479 13       		.uleb128 0x13
 5894 047a 01       		.uleb128 0x1
 5895 047b 13       		.uleb128 0x13
 5896 047c 00       		.byte	0
 5897 047d 00       		.byte	0
 5898 047e 4A       		.uleb128 0x4a
 5899 047f 2E       		.uleb128 0x2e
 5900 0480 01       		.byte	0x1
 5901 0481 47       		.uleb128 0x47
 5902 0482 13       		.uleb128 0x13
 5903 0483 11       		.uleb128 0x11
 5904 0484 01       		.uleb128 0x1
 5905 0485 12       		.uleb128 0x12
 5906 0486 06       		.uleb128 0x6
 5907 0487 40       		.uleb128 0x40
 5908 0488 18       		.uleb128 0x18
 5909 0489 64       		.uleb128 0x64
 5910 048a 13       		.uleb128 0x13
 5911 048b 9642     		.uleb128 0x2116
 5912 048d 19       		.uleb128 0x19
 5913 048e 01       		.uleb128 0x1
 5914 048f 13       		.uleb128 0x13
 5915 0490 00       		.byte	0
 5916 0491 00       		.byte	0
 5917 0492 4B       		.uleb128 0x4b
 5918 0493 34       		.uleb128 0x34
 5919 0494 00       		.byte	0
 5920 0495 03       		.uleb128 0x3
 5921 0496 08       		.uleb128 0x8
 5922 0497 3A       		.uleb128 0x3a
 5923 0498 0B       		.uleb128 0xb
 5924 0499 3B       		.uleb128 0x3b
 5925 049a 0B       		.uleb128 0xb
 5926 049b 49       		.uleb128 0x49
 5927 049c 13       		.uleb128 0x13
 5928 049d 02       		.uleb128 0x2
 5929 049e 18       		.uleb128 0x18
 5930 049f 00       		.byte	0
 5931 04a0 00       		.byte	0
 5932 04a1 4C       		.uleb128 0x4c
 5933 04a2 05       		.uleb128 0x5
 5934 04a3 00       		.byte	0
 5935 04a4 03       		.uleb128 0x3
 5936 04a5 08       		.uleb128 0x8
GAS LISTING C:\Users\USER\AppData\Local\Temp\ccxBfeO7.s 			page 131


 5937 04a6 3A       		.uleb128 0x3a
 5938 04a7 0B       		.uleb128 0xb
 5939 04a8 3B       		.uleb128 0x3b
 5940 04a9 0B       		.uleb128 0xb
 5941 04aa 49       		.uleb128 0x49
 5942 04ab 13       		.uleb128 0x13
 5943 04ac 02       		.uleb128 0x2
 5944 04ad 18       		.uleb128 0x18
 5945 04ae 00       		.byte	0
 5946 04af 00       		.byte	0
 5947 04b0 4D       		.uleb128 0x4d
 5948 04b1 05       		.uleb128 0x5
 5949 04b2 00       		.byte	0
 5950 04b3 03       		.uleb128 0x3
 5951 04b4 08       		.uleb128 0x8
 5952 04b5 3A       		.uleb128 0x3a
 5953 04b6 0B       		.uleb128 0xb
 5954 04b7 3B       		.uleb128 0x3b
 5955 04b8 0B       		.uleb128 0xb
 5956 04b9 49       		.uleb128 0x49
 5957 04ba 13       		.uleb128 0x13
 5958 04bb 00       		.byte	0
 5959 04bc 00       		.byte	0
 5960 04bd 4E       		.uleb128 0x4e
 5961 04be 2E       		.uleb128 0x2e
 5962 04bf 00       		.byte	0
 5963 04c0 03       		.uleb128 0x3
 5964 04c1 08       		.uleb128 0x8
 5965 04c2 34       		.uleb128 0x34
 5966 04c3 19       		.uleb128 0x19
 5967 04c4 11       		.uleb128 0x11
 5968 04c5 01       		.uleb128 0x1
 5969 04c6 12       		.uleb128 0x12
 5970 04c7 06       		.uleb128 0x6
 5971 04c8 40       		.uleb128 0x40
 5972 04c9 18       		.uleb128 0x18
 5973 04ca 9642     		.uleb128 0x2116
 5974 04cc 19       		.uleb128 0x19
 5975 04cd 00       		.byte	0
 5976 04ce 00       		.byte	0
 5977 04cf 4F       		.uleb128 0x4f
 5978 04d0 2E       		.uleb128 0x2e
 5979 04d1 01       		.byte	0x1
 5980 04d2 03       		.uleb128 0x3
 5981 04d3 08       		.uleb128 0x8
 5982 04d4 34       		.uleb128 0x34
 5983 04d5 19       		.uleb128 0x19
 5984 04d6 11       		.uleb128 0x11
 5985 04d7 01       		.uleb128 0x1
 5986 04d8 12       		.uleb128 0x12
 5987 04d9 06       		.uleb128 0x6
 5988 04da 40       		.uleb128 0x40
 5989 04db 18       		.uleb128 0x18
 5990 04dc 9642     		.uleb128 0x2116
 5991 04de 19       		.uleb128 0x19
 5992 04df 01       		.uleb128 0x1
 5993 04e0 13       		.uleb128 0x13
GAS LISTING C:\Users\USER\AppData\Local\Temp\ccxBfeO7.s 			page 132


 5994 04e1 00       		.byte	0
 5995 04e2 00       		.byte	0
 5996 04e3 50       		.uleb128 0x50
 5997 04e4 05       		.uleb128 0x5
 5998 04e5 00       		.byte	0
 5999 04e6 03       		.uleb128 0x3
 6000 04e7 08       		.uleb128 0x8
 6001 04e8 3A       		.uleb128 0x3a
 6002 04e9 0B       		.uleb128 0xb
 6003 04ea 3B       		.uleb128 0x3b
 6004 04eb 05       		.uleb128 0x5
 6005 04ec 49       		.uleb128 0x49
 6006 04ed 13       		.uleb128 0x13
 6007 04ee 02       		.uleb128 0x2
 6008 04ef 18       		.uleb128 0x18
 6009 04f0 00       		.byte	0
 6010 04f1 00       		.byte	0
 6011 04f2 51       		.uleb128 0x51
 6012 04f3 34       		.uleb128 0x34
 6013 04f4 00       		.byte	0
 6014 04f5 47       		.uleb128 0x47
 6015 04f6 13       		.uleb128 0x13
 6016 04f7 02       		.uleb128 0x2
 6017 04f8 18       		.uleb128 0x18
 6018 04f9 00       		.byte	0
 6019 04fa 00       		.byte	0
 6020 04fb 52       		.uleb128 0x52
 6021 04fc 34       		.uleb128 0x34
 6022 04fd 00       		.byte	0
 6023 04fe 47       		.uleb128 0x47
 6024 04ff 13       		.uleb128 0x13
 6025 0500 6E       		.uleb128 0x6e
 6026 0501 08       		.uleb128 0x8
 6027 0502 1C       		.uleb128 0x1c
 6028 0503 0D       		.uleb128 0xd
 6029 0504 00       		.byte	0
 6030 0505 00       		.byte	0
 6031 0506 53       		.uleb128 0x53
 6032 0507 34       		.uleb128 0x34
 6033 0508 00       		.byte	0
 6034 0509 47       		.uleb128 0x47
 6035 050a 13       		.uleb128 0x13
 6036 050b 6E       		.uleb128 0x6e
 6037 050c 08       		.uleb128 0x8
 6038 050d 1C       		.uleb128 0x1c
 6039 050e 06       		.uleb128 0x6
 6040 050f 00       		.byte	0
 6041 0510 00       		.byte	0
 6042 0511 54       		.uleb128 0x54
 6043 0512 34       		.uleb128 0x34
 6044 0513 00       		.byte	0
 6045 0514 47       		.uleb128 0x47
 6046 0515 13       		.uleb128 0x13
 6047 0516 6E       		.uleb128 0x6e
 6048 0517 08       		.uleb128 0x8
 6049 0518 1C       		.uleb128 0x1c
 6050 0519 0B       		.uleb128 0xb
GAS LISTING C:\Users\USER\AppData\Local\Temp\ccxBfeO7.s 			page 133


 6051 051a 00       		.byte	0
 6052 051b 00       		.byte	0
 6053 051c 55       		.uleb128 0x55
 6054 051d 34       		.uleb128 0x34
 6055 051e 00       		.byte	0
 6056 051f 47       		.uleb128 0x47
 6057 0520 13       		.uleb128 0x13
 6058 0521 6E       		.uleb128 0x6e
 6059 0522 08       		.uleb128 0x8
 6060 0523 1C       		.uleb128 0x1c
 6061 0524 05       		.uleb128 0x5
 6062 0525 00       		.byte	0
 6063 0526 00       		.byte	0
 6064 0527 00       		.byte	0
 6065              		.section	.debug_aranges,"dr"
 6066 0000 A4000000 		.long	0xa4
 6067 0004 0200     		.word	0x2
 6068 0006 00000000 		.secrel32	Ldebug_info0
 6069 000a 04       		.byte	0x4
 6070 000b 00       		.byte	0
 6071 000c 0000     		.word	0
 6072 000e 0000     		.word	0
 6073 0010 00000000 		.long	Ltext0
 6074 0014 80060000 		.long	Letext0-Ltext0
 6075 0018 00000000 		.long	LFB18
 6076 001c 16000000 		.long	LFE18-LFB18
 6077 0020 00000000 		.long	LFB1014
 6078 0024 10000000 		.long	LFE1014-LFB1014
 6079 0028 00000000 		.long	LFB1029
 6080 002c 34000000 		.long	LFE1029-LFB1029
 6081 0030 00000000 		.long	LFB1032
 6082 0034 29000000 		.long	LFE1032-LFB1032
 6083 0038 00000000 		.long	LFB1033
 6084 003c 20000000 		.long	LFE1033-LFB1033
 6085 0040 00000000 		.long	LFB1035
 6086 0044 21000000 		.long	LFE1035-LFB1035
 6087 0048 00000000 		.long	LFB1038
 6088 004c 11000000 		.long	LFE1038-LFB1038
 6089 0050 00000000 		.long	LFB1042
 6090 0054 20000000 		.long	LFE1042-LFB1042
 6091 0058 00000000 		.long	LFB1045
 6092 005c 33000000 		.long	LFE1045-LFB1045
 6093 0060 00000000 		.long	LFB1046
 6094 0064 20000000 		.long	LFE1046-LFB1046
 6095 0068 00000000 		.long	LFB1039
 6096 006c F7000000 		.long	LFE1039-LFB1039
 6097 0070 00000000 		.long	LFB1054
 6098 0074 7C000000 		.long	LFE1054-LFB1054
 6099 0078 00000000 		.long	LFB1055
 6100 007c 56000000 		.long	LFE1055-LFB1055
 6101 0080 00000000 		.long	LFB1056
 6102 0084 D2000000 		.long	LFE1056-LFB1056
 6103 0088 00000000 		.long	LFB1062
 6104 008c 32000000 		.long	LFE1062-LFB1062
 6105 0090 00000000 		.long	LFB1069
 6106 0094 29000000 		.long	LFE1069-LFB1069
 6107 0098 00000000 		.long	LFB1070
GAS LISTING C:\Users\USER\AppData\Local\Temp\ccxBfeO7.s 			page 134


 6108 009c 20000000 		.long	LFE1070-LFB1070
 6109 00a0 00000000 		.long	0
 6110 00a4 00000000 		.long	0
 6111              		.section	.debug_ranges,"dr"
 6112              	Ldebug_ranges0:
 6113 0000 00000000 		.long	Ltext0
 6114 0004 80060000 		.long	Letext0
 6115 0008 00000000 		.long	LFB18
 6116 000c 16000000 		.long	LFE18
 6117 0010 00000000 		.long	LFB1014
 6118 0014 10000000 		.long	LFE1014
 6119 0018 00000000 		.long	LFB1029
 6120 001c 34000000 		.long	LFE1029
 6121 0020 00000000 		.long	LFB1032
 6122 0024 29000000 		.long	LFE1032
 6123 0028 00000000 		.long	LFB1033
 6124 002c 20000000 		.long	LFE1033
 6125 0030 00000000 		.long	LFB1035
 6126 0034 21000000 		.long	LFE1035
 6127 0038 00000000 		.long	LFB1038
 6128 003c 11000000 		.long	LFE1038
 6129 0040 00000000 		.long	LFB1042
 6130 0044 20000000 		.long	LFE1042
 6131 0048 00000000 		.long	LFB1045
 6132 004c 33000000 		.long	LFE1045
 6133 0050 00000000 		.long	LFB1046
 6134 0054 20000000 		.long	LFE1046
 6135 0058 00000000 		.long	LFB1039
 6136 005c F7000000 		.long	LFE1039
 6137 0060 00000000 		.long	LFB1054
 6138 0064 7C000000 		.long	LFE1054
 6139 0068 00000000 		.long	LFB1055
 6140 006c 56000000 		.long	LFE1055
 6141 0070 00000000 		.long	LFB1056
 6142 0074 D2000000 		.long	LFE1056
 6143 0078 00000000 		.long	LFB1062
 6144 007c 32000000 		.long	LFE1062
 6145 0080 00000000 		.long	LFB1069
 6146 0084 29000000 		.long	LFE1069
 6147 0088 00000000 		.long	LFB1070
 6148 008c 20000000 		.long	LFE1070
 6149 0090 00000000 		.long	0
 6150 0094 00000000 		.long	0
 6151              		.section	.debug_line,"dr"
 6152              	Ldebug_line0:
 6153 0000 97050000 		.section	.debug_str,"dr"
 6153      0200BE02 
 6153      00000101 
 6153      FB0E0D00 
 6153      01010101 
 6154              	LASF5:
 6155 0000 5F56616C 		.ascii "_Value\0"
 6155      756500
 6156              	LASF8:
 6157 0007 5F5F696E 		.ascii "__in_chrg\0"
 6157      5F636872 
 6157      6700
GAS LISTING C:\Users\USER\AppData\Local\Temp\ccxBfeO7.s 			page 135


 6158              	LASF0:
 6159 0011 65786365 		.ascii "exception\0"
 6159      7074696F 
 6159      6E00
 6160              	LASF6:
 6161 001b 436F6C61 		.ascii "ColaVacia\0"
 6161      56616369 
 6161      6100
 6162              	LASF7:
 6163 0025 74686973 		.ascii "this\0"
 6163      00
 6164              	LASF1:
 6165 002a 5F5F6D69 		.ascii "__min\0"
 6165      6E00
 6166              	LASF3:
 6167 0030 5F5F6973 		.ascii "__is_signed\0"
 6167      5F736967 
 6167      6E656400 
 6168              	LASF4:
 6169 003c 5F5F6469 		.ascii "__digits\0"
 6169      67697473 
 6169      00
 6170              	LASF2:
 6171 0045 5F5F6D61 		.ascii "__max\0"
 6171      7800
 6172              		.ident	"GCC: (tdm-1) 5.1.0"
GAS LISTING C:\Users\USER\AppData\Local\Temp\ccxBfeO7.s 			page 136


DEFINED SYMBOLS
                            *ABS*:00000000 main.cpp
C:\Users\USER\AppData\Local\Temp\ccxBfeO7.s:10     .text$_ZNSt9exceptionC2Ev:00000000 __ZNSt9exceptionC2Ev
                             .bss:00000000 __ZStL8__ioinit
C:\Users\USER\AppData\Local\Temp\ccxBfeO7.s:44     .text$_ZNK9ColaVacia4whatEv:00000000 __ZNK9ColaVacia4whatEv
C:\Users\USER\AppData\Local\Temp\ccxBfeO7.s:68     .text:00000000 __Z9leerLetrav
C:\Users\USER\AppData\Local\Temp\ccxBfeO7.s:122    .text:0000001f _main
C:\Users\USER\AppData\Local\Temp\ccxBfeO7.s:1381   .rdata$_ZTI9ColaVacia:00000000 __ZTI9ColaVacia
C:\Users\USER\AppData\Local\Temp\ccxBfeO7.s:644    .text$_ZN4ColaIcEC1Ev:00000000 __ZN4ColaIcEC1Ev
C:\Users\USER\AppData\Local\Temp\ccxBfeO7.s:1336   .rdata$_ZTV4ColaIcE:00000000 __ZTV4ColaIcE
C:\Users\USER\AppData\Local\Temp\ccxBfeO7.s:683    .text$_ZN4ColaIcED1Ev:00000000 __ZN4ColaIcED1Ev
C:\Users\USER\AppData\Local\Temp\ccxBfeO7.s:720    .text$_ZN4ColaIcED0Ev:00000000 __ZN4ColaIcED0Ev
C:\Users\USER\AppData\Local\Temp\ccxBfeO7.s:749    .text$_ZNK4ColaIcE7esVaciaEv:00000000 __ZNK4ColaIcE7esVaciaEv
C:\Users\USER\AppData\Local\Temp\ccxBfeO7.s:784    .text$_ZNK4ColaIcE11getLongitudEv:00000000 __ZNK4ColaIcE11getLongitudEv
C:\Users\USER\AppData\Local\Temp\ccxBfeO7.s:810    .text$_ZN9ColaVaciaC1Ev:00000000 __ZN9ColaVaciaC1Ev
C:\Users\USER\AppData\Local\Temp\ccxBfeO7.s:1345   .rdata$_ZTV9ColaVacia:00000000 __ZTV9ColaVacia
C:\Users\USER\AppData\Local\Temp\ccxBfeO7.s:842    .text$_ZN9ColaVaciaD1Ev:00000000 __ZN9ColaVaciaD1Ev
C:\Users\USER\AppData\Local\Temp\ccxBfeO7.s:882    .text$_ZN9ColaVaciaD0Ev:00000000 __ZN9ColaVaciaD0Ev
C:\Users\USER\AppData\Local\Temp\ccxBfeO7.s:911    .text$_ZN4ColaIcE8eliminarEv:00000000 __ZN4ColaIcE8eliminarEv
C:\Users\USER\AppData\Local\Temp\ccxBfeO7.s:1045   .text$_ZN4ColaIcE7agregarEc:00000000 __ZN4ColaIcE7agregarEc
C:\Users\USER\AppData\Local\Temp\ccxBfeO7.s:1116   .text$_ZN4ColaIcE6buscarEc:00000000 __ZN4ColaIcE6buscarEc
C:\Users\USER\AppData\Local\Temp\ccxBfeO7.s:1174   .text$_ZNK4ColaIcE3verEv:00000000 __ZNK4ColaIcE3verEv
C:\Users\USER\AppData\Local\Temp\ccxBfeO7.s:1289   .text$_ZN4NodoIcEC1Ec:00000000 __ZN4NodoIcEC1Ec
C:\Users\USER\AppData\Local\Temp\ccxBfeO7.s:1327   .rdata$_ZTV4NodoIcE:00000000 __ZTV4NodoIcE
C:\Users\USER\AppData\Local\Temp\ccxBfeO7.s:1355   .rdata$_ZTI4NodoIcE:00000000 __ZTI4NodoIcE
C:\Users\USER\AppData\Local\Temp\ccxBfeO7.s:1368   .rdata$_ZTI4ColaIcE:00000000 __ZTI4ColaIcE
C:\Users\USER\AppData\Local\Temp\ccxBfeO7.s:1362   .rdata$_ZTS4NodoIcE:00000000 __ZTS4NodoIcE
C:\Users\USER\AppData\Local\Temp\ccxBfeO7.s:1375   .rdata$_ZTS4ColaIcE:00000000 __ZTS4ColaIcE
C:\Users\USER\AppData\Local\Temp\ccxBfeO7.s:1389   .rdata$_ZTS9ColaVacia:00000000 __ZTS9ColaVacia
C:\Users\USER\AppData\Local\Temp\ccxBfeO7.s:1395   .rdata$_ZTISt9exception:00000000 __ZTISt9exception
C:\Users\USER\AppData\Local\Temp\ccxBfeO7.s:1402   .rdata$_ZTSSt9exception:00000000 __ZTSSt9exception
C:\Users\USER\AppData\Local\Temp\ccxBfeO7.s:1406   .text:00000624 ___tcf_0
C:\Users\USER\AppData\Local\Temp\ccxBfeO7.s:1427   .text:00000636 __Z41__static_initialization_and_destruction_0ii
C:\Users\USER\AppData\Local\Temp\ccxBfeO7.s:1462   .text$_ZN4NodoIcED1Ev:00000000 __ZN4NodoIcED1Ev
C:\Users\USER\AppData\Local\Temp\ccxBfeO7.s:1499   .text$_ZN4NodoIcED0Ev:00000000 __ZN4NodoIcED0Ev
C:\Users\USER\AppData\Local\Temp\ccxBfeO7.s:1525   .text:00000664 __GLOBAL__sub_I__Z9leerLetrav

UNDEFINED SYMBOLS
__ZTVSt9exception
__ZSt3cin
___main
___gxx_personality_sj0
__Unwind_SjLj_Register
__Unwind_SjLj_Unregister
__ZSt4cout
__ZSt4cerr
__ZTVN10__cxxabiv117__class_type_infoE
__ZTVN10__cxxabiv120__si_class_type_infoE
__ZStrsIcSt11char_traitsIcEERSt13basic_istreamIT_T0_ES6_RS3_
__ZStlsISt11char_traitsIcEERSt13basic_ostreamIcT_ES5_PKc
__ZSt4endlIcSt11char_traitsIcEERSt13basic_ostreamIT_T0_ES6_
__ZNSolsEPFRSoS_E
__ZNSolsEi
__ZStlsISt11char_traitsIcEERSt13basic_ostreamIcT_ES5_c
___cxa_begin_catch
___cxa_end_catch
__Unwind_SjLj_Resume
GAS LISTING C:\Users\USER\AppData\Local\Temp\ccxBfeO7.s 			page 137


__ZdlPv
__ZNSt9exceptionD2Ev
___cxa_allocate_exception
___cxa_throw
___cxa_call_unexpected
__Znwj
__ZNSt8ios_base4InitD1Ev
__ZNSt8ios_base4InitC1Ev
_atexit
