GAS LISTING C:\Users\USER\AppData\Local\Temp\ccFSuTGK.s 			page 1


   1              		.file	"Fecha.cpp"
   2              		.text
   3              	Ltext0:
   4              		.cfi_sections	.debug_frame
   5              		.section	.text$_ZNSt9exceptionC2Ev,"x"
   6              		.linkonce discard
   7              		.align 2
   8              		.globl	__ZNSt9exceptionC2Ev
  10              	__ZNSt9exceptionC2Ev:
  11              	LFB18:
  12              		.file 1 "C:/TDM-GCC-32/lib/gcc/mingw32/5.1.0/include/c++/exception"
   1:C:/TDM-GCC-32/lib/gcc/mingw32/5.1.0/include/c++\exception **** // Exception Handling support header for -*- C++ -*-
   2:C:/TDM-GCC-32/lib/gcc/mingw32/5.1.0/include/c++\exception **** 
   3:C:/TDM-GCC-32/lib/gcc/mingw32/5.1.0/include/c++\exception **** // Copyright (C) 1995-2015 Free Software Foundation, Inc.
   4:C:/TDM-GCC-32/lib/gcc/mingw32/5.1.0/include/c++\exception **** //
   5:C:/TDM-GCC-32/lib/gcc/mingw32/5.1.0/include/c++\exception **** // This file is part of GCC.
   6:C:/TDM-GCC-32/lib/gcc/mingw32/5.1.0/include/c++\exception **** //
   7:C:/TDM-GCC-32/lib/gcc/mingw32/5.1.0/include/c++\exception **** // GCC is free software; you can redistribute it and/or modify
   8:C:/TDM-GCC-32/lib/gcc/mingw32/5.1.0/include/c++\exception **** // it under the terms of the GNU General Public License as published by
   9:C:/TDM-GCC-32/lib/gcc/mingw32/5.1.0/include/c++\exception **** // the Free Software Foundation; either version 3, or (at your option)
  10:C:/TDM-GCC-32/lib/gcc/mingw32/5.1.0/include/c++\exception **** // any later version.
  11:C:/TDM-GCC-32/lib/gcc/mingw32/5.1.0/include/c++\exception **** //
  12:C:/TDM-GCC-32/lib/gcc/mingw32/5.1.0/include/c++\exception **** // GCC is distributed in the hope that it will be useful,
  13:C:/TDM-GCC-32/lib/gcc/mingw32/5.1.0/include/c++\exception **** // but WITHOUT ANY WARRANTY; without even the implied warranty of
  14:C:/TDM-GCC-32/lib/gcc/mingw32/5.1.0/include/c++\exception **** // MERCHANTABILITY or FITNESS FOR A PARTICULAR PURPOSE.  See the
  15:C:/TDM-GCC-32/lib/gcc/mingw32/5.1.0/include/c++\exception **** // GNU General Public License for more details.
  16:C:/TDM-GCC-32/lib/gcc/mingw32/5.1.0/include/c++\exception **** //
  17:C:/TDM-GCC-32/lib/gcc/mingw32/5.1.0/include/c++\exception **** // Under Section 7 of GPL version 3, you are granted additional
  18:C:/TDM-GCC-32/lib/gcc/mingw32/5.1.0/include/c++\exception **** // permissions described in the GCC Runtime Library Exception, version
  19:C:/TDM-GCC-32/lib/gcc/mingw32/5.1.0/include/c++\exception **** // 3.1, as published by the Free Software Foundation.
  20:C:/TDM-GCC-32/lib/gcc/mingw32/5.1.0/include/c++\exception **** 
  21:C:/TDM-GCC-32/lib/gcc/mingw32/5.1.0/include/c++\exception **** // You should have received a copy of the GNU General Public License and
  22:C:/TDM-GCC-32/lib/gcc/mingw32/5.1.0/include/c++\exception **** // a copy of the GCC Runtime Library Exception along with this program;
  23:C:/TDM-GCC-32/lib/gcc/mingw32/5.1.0/include/c++\exception **** // see the files COPYING3 and COPYING.RUNTIME respectively.  If not, see
  24:C:/TDM-GCC-32/lib/gcc/mingw32/5.1.0/include/c++\exception **** // <http://www.gnu.org/licenses/>.
  25:C:/TDM-GCC-32/lib/gcc/mingw32/5.1.0/include/c++\exception **** 
  26:C:/TDM-GCC-32/lib/gcc/mingw32/5.1.0/include/c++\exception **** /** @file exception
  27:C:/TDM-GCC-32/lib/gcc/mingw32/5.1.0/include/c++\exception ****  *  This is a Standard C++ Library header.
  28:C:/TDM-GCC-32/lib/gcc/mingw32/5.1.0/include/c++\exception ****  */
  29:C:/TDM-GCC-32/lib/gcc/mingw32/5.1.0/include/c++\exception **** 
  30:C:/TDM-GCC-32/lib/gcc/mingw32/5.1.0/include/c++\exception **** #ifndef __EXCEPTION__
  31:C:/TDM-GCC-32/lib/gcc/mingw32/5.1.0/include/c++\exception **** #define __EXCEPTION__
  32:C:/TDM-GCC-32/lib/gcc/mingw32/5.1.0/include/c++\exception **** 
  33:C:/TDM-GCC-32/lib/gcc/mingw32/5.1.0/include/c++\exception **** #pragma GCC system_header
  34:C:/TDM-GCC-32/lib/gcc/mingw32/5.1.0/include/c++\exception **** 
  35:C:/TDM-GCC-32/lib/gcc/mingw32/5.1.0/include/c++\exception **** #pragma GCC visibility push(default)
  36:C:/TDM-GCC-32/lib/gcc/mingw32/5.1.0/include/c++\exception **** 
  37:C:/TDM-GCC-32/lib/gcc/mingw32/5.1.0/include/c++\exception **** #include <bits/c++config.h>
  38:C:/TDM-GCC-32/lib/gcc/mingw32/5.1.0/include/c++\exception **** #include <bits/atomic_lockfree_defines.h>
  39:C:/TDM-GCC-32/lib/gcc/mingw32/5.1.0/include/c++\exception **** 
  40:C:/TDM-GCC-32/lib/gcc/mingw32/5.1.0/include/c++\exception **** extern "C++" {
  41:C:/TDM-GCC-32/lib/gcc/mingw32/5.1.0/include/c++\exception **** 
  42:C:/TDM-GCC-32/lib/gcc/mingw32/5.1.0/include/c++\exception **** namespace std
  43:C:/TDM-GCC-32/lib/gcc/mingw32/5.1.0/include/c++\exception **** {
  44:C:/TDM-GCC-32/lib/gcc/mingw32/5.1.0/include/c++\exception ****   /**
  45:C:/TDM-GCC-32/lib/gcc/mingw32/5.1.0/include/c++\exception ****    * @defgroup exceptions Exceptions
  46:C:/TDM-GCC-32/lib/gcc/mingw32/5.1.0/include/c++\exception ****    * @ingroup diagnostics
GAS LISTING C:\Users\USER\AppData\Local\Temp\ccFSuTGK.s 			page 2


  47:C:/TDM-GCC-32/lib/gcc/mingw32/5.1.0/include/c++\exception ****    *
  48:C:/TDM-GCC-32/lib/gcc/mingw32/5.1.0/include/c++\exception ****    * Classes and functions for reporting errors via exception classes.
  49:C:/TDM-GCC-32/lib/gcc/mingw32/5.1.0/include/c++\exception ****    * @{
  50:C:/TDM-GCC-32/lib/gcc/mingw32/5.1.0/include/c++\exception ****    */
  51:C:/TDM-GCC-32/lib/gcc/mingw32/5.1.0/include/c++\exception **** 
  52:C:/TDM-GCC-32/lib/gcc/mingw32/5.1.0/include/c++\exception ****   /**
  53:C:/TDM-GCC-32/lib/gcc/mingw32/5.1.0/include/c++\exception ****    *  @brief Base class for all library exceptions.
  54:C:/TDM-GCC-32/lib/gcc/mingw32/5.1.0/include/c++\exception ****    *
  55:C:/TDM-GCC-32/lib/gcc/mingw32/5.1.0/include/c++\exception ****    *  This is the base class for all exceptions thrown by the standard
  56:C:/TDM-GCC-32/lib/gcc/mingw32/5.1.0/include/c++\exception ****    *  library, and by certain language expressions.  You are free to derive
  57:C:/TDM-GCC-32/lib/gcc/mingw32/5.1.0/include/c++\exception ****    *  your own %exception classes, or use a different hierarchy, or to
  58:C:/TDM-GCC-32/lib/gcc/mingw32/5.1.0/include/c++\exception ****    *  throw non-class data (e.g., fundamental types).
  59:C:/TDM-GCC-32/lib/gcc/mingw32/5.1.0/include/c++\exception ****    */
  60:C:/TDM-GCC-32/lib/gcc/mingw32/5.1.0/include/c++\exception ****   class exception
  61:C:/TDM-GCC-32/lib/gcc/mingw32/5.1.0/include/c++\exception ****   {
  62:C:/TDM-GCC-32/lib/gcc/mingw32/5.1.0/include/c++\exception ****   public:
  63:C:/TDM-GCC-32/lib/gcc/mingw32/5.1.0/include/c++\exception ****     exception() _GLIBCXX_USE_NOEXCEPT { }
  13              		.loc 1 63 0
  14              		.cfi_startproc
  15 0000 55       		pushl	%ebp
  16              		.cfi_def_cfa_offset 8
  17              		.cfi_offset 5, -8
  18 0001 89E5     		movl	%esp, %ebp
  19              		.cfi_def_cfa_register 5
  20 0003 83EC04   		subl	$4, %esp
  21 0006 894DFC   		movl	%ecx, -4(%ebp)
  22              	LBB2:
  23              		.loc 1 63 0
  24 0009 BA080000 		movl	$__ZTVSt9exception+8, %edx
  24      00
  25 000e 8B45FC   		movl	-4(%ebp), %eax
  26 0011 8910     		movl	%edx, (%eax)
  27              	LBE2:
  28 0013 90       		nop
  29 0014 C9       		leave
  30              		.cfi_restore 5
  31              		.cfi_def_cfa 4, 4
  32 0015 C3       		ret
  33              		.cfi_endproc
  34              	LFE18:
  35              	.lcomm __ZStL8__ioinit,1,1
  36 0016 9090     		.section .rdata,"dr"
  37              	LC0:
  38 0000 46656368 		.ascii "Fecha no valida\0"
  38      61206E6F 
  38      2076616C 
  38      69646100 
  39              		.section	.text$_ZNK13FechaNoValida4whatEv,"x"
  40              		.linkonce discard
  41              		.align 2
  42              		.globl	__ZNK13FechaNoValida4whatEv
  44              	__ZNK13FechaNoValida4whatEv:
  45              	LFB1047:
  46              		.file 2 "C:/Caleb/FIUNA/4to Semestre/POO/C++/Unidad12/Sobre/FechaNoValida.h"
   1:C:/Caleb/FIUNA/4to Semestre/POO/C++/Unidad12/Sobre\FechaNoValida.h **** #ifndef FECHANOVALIDA_H
   2:C:/Caleb/FIUNA/4to Semestre/POO/C++/Unidad12/Sobre\FechaNoValida.h **** #define FECHANOVALIDA_H
   3:C:/Caleb/FIUNA/4to Semestre/POO/C++/Unidad12/Sobre\FechaNoValida.h **** 
GAS LISTING C:\Users\USER\AppData\Local\Temp\ccFSuTGK.s 			page 3


   4:C:/Caleb/FIUNA/4to Semestre/POO/C++/Unidad12/Sobre\FechaNoValida.h **** #include <exception>
   5:C:/Caleb/FIUNA/4to Semestre/POO/C++/Unidad12/Sobre\FechaNoValida.h **** using namespace std;
   6:C:/Caleb/FIUNA/4to Semestre/POO/C++/Unidad12/Sobre\FechaNoValida.h **** 
   7:C:/Caleb/FIUNA/4to Semestre/POO/C++/Unidad12/Sobre\FechaNoValida.h **** class FechaNoValida : public exception
   8:C:/Caleb/FIUNA/4to Semestre/POO/C++/Unidad12/Sobre\FechaNoValida.h **** {
   9:C:/Caleb/FIUNA/4to Semestre/POO/C++/Unidad12/Sobre\FechaNoValida.h ****     public:
  10:C:/Caleb/FIUNA/4to Semestre/POO/C++/Unidad12/Sobre\FechaNoValida.h ****         const char* what() const throw(){
  47              		.loc 2 10 0
  48              		.cfi_startproc
  49 0000 55       		pushl	%ebp
  50              		.cfi_def_cfa_offset 8
  51              		.cfi_offset 5, -8
  52 0001 89E5     		movl	%esp, %ebp
  53              		.cfi_def_cfa_register 5
  54 0003 83EC04   		subl	$4, %esp
  55 0006 894DFC   		movl	%ecx, -4(%ebp)
  11:C:/Caleb/FIUNA/4to Semestre/POO/C++/Unidad12/Sobre\FechaNoValida.h ****             return "Fecha no valida";
  56              		.loc 2 11 0
  57 0009 B8000000 		movl	$LC0, %eax
  57      00
  12:C:/Caleb/FIUNA/4to Semestre/POO/C++/Unidad12/Sobre\FechaNoValida.h ****         }
  58              		.loc 2 12 0
  59 000e C9       		leave
  60              		.cfi_restore 5
  61              		.cfi_def_cfa 4, 4
  62 000f C3       		ret
  63              		.cfi_endproc
  64              	LFE1047:
  65              		.text
  66              		.align 2
  67              		.globl	__ZN5FechaC2Ev
  69              	__ZN5FechaC2Ev:
  70              	LFB1049:
  71              		.file 3 "C:/Caleb/FIUNA/4to Semestre/POO/C++/Unidad12/Sobre/Fecha.cpp"
   1:C:/Caleb/FIUNA/4to Semestre/POO/C++/Unidad12/Sobre\Fecha.cpp **** #include "Fecha.h"
   2:C:/Caleb/FIUNA/4to Semestre/POO/C++/Unidad12/Sobre\Fecha.cpp **** 
   3:C:/Caleb/FIUNA/4to Semestre/POO/C++/Unidad12/Sobre\Fecha.cpp **** Fecha::Fecha()
  72              		.loc 3 3 0
  73              		.cfi_startproc
  74 0000 55       		pushl	%ebp
  75              		.cfi_def_cfa_offset 8
  76              		.cfi_offset 5, -8
  77 0001 89E5     		movl	%esp, %ebp
  78              		.cfi_def_cfa_register 5
  79 0003 83EC04   		subl	$4, %esp
  80 0006 894DFC   		movl	%ecx, -4(%ebp)
  81              	LBB3:
  82              		.loc 3 3 0
  83 0009 BA080000 		movl	$__ZTV5Fecha+8, %edx
  83      00
  84 000e 8B45FC   		movl	-4(%ebp), %eax
  85 0011 8910     		movl	%edx, (%eax)
   4:C:/Caleb/FIUNA/4to Semestre/POO/C++/Unidad12/Sobre\Fecha.cpp **** {
   5:C:/Caleb/FIUNA/4to Semestre/POO/C++/Unidad12/Sobre\Fecha.cpp ****     dia=1;
  86              		.loc 3 5 0
  87 0013 8B45FC   		movl	-4(%ebp), %eax
  88 0016 C7400401 		movl	$1, 4(%eax)
GAS LISTING C:\Users\USER\AppData\Local\Temp\ccFSuTGK.s 			page 4


  88      000000
   6:C:/Caleb/FIUNA/4to Semestre/POO/C++/Unidad12/Sobre\Fecha.cpp ****     mes=1;
  89              		.loc 3 6 0
  90 001d 8B45FC   		movl	-4(%ebp), %eax
  91 0020 C7400801 		movl	$1, 8(%eax)
  91      000000
   7:C:/Caleb/FIUNA/4to Semestre/POO/C++/Unidad12/Sobre\Fecha.cpp ****     anho=1900;
  92              		.loc 3 7 0
  93 0027 8B45FC   		movl	-4(%ebp), %eax
  94 002a C7400C6C 		movl	$1900, 12(%eax)
  94      070000
  95              	LBE3:
   8:C:/Caleb/FIUNA/4to Semestre/POO/C++/Unidad12/Sobre\Fecha.cpp **** }
  96              		.loc 3 8 0
  97 0031 90       		nop
  98 0032 C9       		leave
  99              		.cfi_restore 5
 100              		.cfi_def_cfa 4, 4
 101 0033 C3       		ret
 102              		.cfi_endproc
 103              	LFE1049:
 104              		.globl	__ZN5FechaC1Ev
 106              		.set	__ZN5FechaC1Ev,__ZN5FechaC2Ev
 107              		.section	.text$_ZN13FechaNoValidaC1Ev,"x"
 108              		.linkonce discard
 109              		.align 2
 110              		.globl	__ZN13FechaNoValidaC1Ev
 112              	__ZN13FechaNoValidaC1Ev:
 113              	LFB1054:
   7:C:/Caleb/FIUNA/4to Semestre/POO/C++/Unidad12/Sobre\FechaNoValida.h **** {
 114              		.loc 2 7 0
 115              		.cfi_startproc
 116 0000 55       		pushl	%ebp
 117              		.cfi_def_cfa_offset 8
 118              		.cfi_offset 5, -8
 119 0001 89E5     		movl	%esp, %ebp
 120              		.cfi_def_cfa_register 5
 121 0003 83EC04   		subl	$4, %esp
 122 0006 894DFC   		movl	%ecx, -4(%ebp)
 123              	LBB4:
   7:C:/Caleb/FIUNA/4to Semestre/POO/C++/Unidad12/Sobre\FechaNoValida.h **** {
 124              		.loc 2 7 0
 125 0009 8B45FC   		movl	-4(%ebp), %eax
 126 000c 89C1     		movl	%eax, %ecx
 127 000e E8000000 		call	__ZNSt9exceptionC2Ev
 127      00
 128 0013 BA080000 		movl	$__ZTV13FechaNoValida+8, %edx
 128      00
 129 0018 8B45FC   		movl	-4(%ebp), %eax
 130 001b 8910     		movl	%edx, (%eax)
 131              	LBE4:
 132 001d 90       		nop
 133 001e C9       		leave
 134              		.cfi_restore 5
 135              		.cfi_def_cfa 4, 4
 136 001f C3       		ret
 137              		.cfi_endproc
GAS LISTING C:\Users\USER\AppData\Local\Temp\ccFSuTGK.s 			page 5


 138              	LFE1054:
 142              		.text
 143              		.align 2
 144              		.globl	__ZN5FechaC2Eiii
 146              	__ZN5FechaC2Eiii:
 147              	LFB1061:
   9:C:/Caleb/FIUNA/4to Semestre/POO/C++/Unidad12/Sobre\Fecha.cpp **** 
  10:C:/Caleb/FIUNA/4to Semestre/POO/C++/Unidad12/Sobre\Fecha.cpp **** Fecha::Fecha(int d,int m,int a) throw (FechaNoValida)
 148              		.loc 3 10 0
 149              		.cfi_startproc
 150              		.cfi_personality 0,___gxx_personality_sj0
 151              		.cfi_lsda 0,LLSDA1061
 152 0034 55       		pushl	%ebp
 153              		.cfi_def_cfa_offset 8
 154              		.cfi_offset 5, -8
 155 0035 89E5     		movl	%esp, %ebp
 156              		.cfi_def_cfa_register 5
 157 0037 57       		pushl	%edi
 158 0038 56       		pushl	%esi
 159 0039 53       		pushl	%ebx
 160 003a 83EC5C   		subl	$92, %esp
 161              		.cfi_offset 7, -12
 162              		.cfi_offset 6, -16
 163              		.cfi_offset 3, -20
 164 003d 894DE4   		movl	%ecx, -28(%ebp)
 165 0040 C745C800 		movl	$___gxx_personality_sj0, -56(%ebp)
 165      000000
 166 0047 C745CC00 		movl	$LLSDA1061, -52(%ebp)
 166      000000
 167 004e 8D45D0   		leal	-48(%ebp), %eax
 168 0051 8D5DE8   		leal	-24(%ebp), %ebx
 169 0054 8918     		movl	%ebx, (%eax)
 170 0056 BAF10000 		movl	$L10, %edx
 170      00
 171 005b 895004   		movl	%edx, 4(%eax)
 172 005e 896008   		movl	%esp, 8(%eax)
 173 0061 8D45B0   		leal	-80(%ebp), %eax
 174 0064 890424   		movl	%eax, (%esp)
 175 0067 E8000000 		call	__Unwind_SjLj_Register
 175      00
 176              	LBB5:
 177              		.loc 3 10 0
 178 006c BA080000 		movl	$__ZTV5Fecha+8, %edx
 178      00
 179 0071 8B45E4   		movl	-28(%ebp), %eax
 180 0074 8910     		movl	%edx, (%eax)
  11:C:/Caleb/FIUNA/4to Semestre/POO/C++/Unidad12/Sobre\Fecha.cpp **** {
  12:C:/Caleb/FIUNA/4to Semestre/POO/C++/Unidad12/Sobre\Fecha.cpp ****     if(!fechaValida(d,m,a)){
 181              		.loc 3 12 0
 182 0076 8B4510   		movl	16(%ebp), %eax
 183 0079 89442408 		movl	%eax, 8(%esp)
 184 007d 8B450C   		movl	12(%ebp), %eax
 185 0080 89442404 		movl	%eax, 4(%esp)
 186 0084 8B4508   		movl	8(%ebp), %eax
 187 0087 890424   		movl	%eax, (%esp)
 188 008a E8370300 		call	__ZN5Fecha11fechaValidaEiii
 188      00
GAS LISTING C:\Users\USER\AppData\Local\Temp\ccFSuTGK.s 			page 6


 189 008f 83F001   		xorl	$1, %eax
 190 0092 84C0     		testb	%al, %al
 191 0094 743E     		je	L7
  13:C:/Caleb/FIUNA/4to Semestre/POO/C++/Unidad12/Sobre\Fecha.cpp ****         throw FechaNoValida();
 192              		.loc 3 13 0
 193 0096 C7042404 		movl	$4, (%esp)
 193      000000
 194 009d E8000000 		call	___cxa_allocate_exception
 194      00
 195 00a2 C7000000 		movl	$0, (%eax)
 195      0000
 196 00a8 8945AC   		movl	%eax, -84(%ebp)
 197 00ab 89C1     		movl	%eax, %ecx
 198 00ad E8000000 		call	__ZN13FechaNoValidaC1Ev
 198      00
 199 00b2 C7442408 		movl	$__ZN13FechaNoValidaD1Ev, 8(%esp)
 199      00000000 
 200 00ba C7442404 		movl	$__ZTI13FechaNoValida, 4(%esp)
 200      00000000 
 201 00c2 8B45AC   		movl	-84(%ebp), %eax
 202 00c5 890424   		movl	%eax, (%esp)
 203 00c8 C745B401 		movl	$1, -76(%ebp)
 203      000000
 204 00cf E8000000 		call	___cxa_throw
 204      00
 205              	L7:
  14:C:/Caleb/FIUNA/4to Semestre/POO/C++/Unidad12/Sobre\Fecha.cpp ****     }
  15:C:/Caleb/FIUNA/4to Semestre/POO/C++/Unidad12/Sobre\Fecha.cpp ****     dia=d;
 206              		.loc 3 15 0
 207 00d4 8B45E4   		movl	-28(%ebp), %eax
 208 00d7 8B5508   		movl	8(%ebp), %edx
 209 00da 895004   		movl	%edx, 4(%eax)
  16:C:/Caleb/FIUNA/4to Semestre/POO/C++/Unidad12/Sobre\Fecha.cpp ****     mes=m;
 210              		.loc 3 16 0
 211 00dd 8B45E4   		movl	-28(%ebp), %eax
 212 00e0 8B550C   		movl	12(%ebp), %edx
 213 00e3 895008   		movl	%edx, 8(%eax)
  17:C:/Caleb/FIUNA/4to Semestre/POO/C++/Unidad12/Sobre\Fecha.cpp ****     anho=a;
 214              		.loc 3 17 0
 215 00e6 8B45E4   		movl	-28(%ebp), %eax
 216 00e9 8B5510   		movl	16(%ebp), %edx
 217 00ec 89500C   		movl	%edx, 12(%eax)
 218              	LBE5:
  18:C:/Caleb/FIUNA/4to Semestre/POO/C++/Unidad12/Sobre\Fecha.cpp **** }
 219              		.loc 3 18 0
 220 00ef EB2C     		jmp	L12
 221              	L10:
 222 00f1 8D6D18   		leal	24(%ebp), %ebp
 223 00f4 8B45B8   		movl	-72(%ebp), %eax
 224 00f7 8B55BC   		movl	-68(%ebp), %edx
 225 00fa 83FAFF   		cmpl	$-1, %edx
 226 00fd 740F     		je	L9
 227 00ff 890424   		movl	%eax, (%esp)
 228 0102 C745B4FF 		movl	$-1, -76(%ebp)
 228      FFFFFF
 229 0109 E8000000 		call	__Unwind_SjLj_Resume
 229      00
GAS LISTING C:\Users\USER\AppData\Local\Temp\ccFSuTGK.s 			page 7


 230              	L9:
  10:C:/Caleb/FIUNA/4to Semestre/POO/C++/Unidad12/Sobre\Fecha.cpp **** {
 231              		.loc 3 10 0
 232 010e 890424   		movl	%eax, (%esp)
 233 0111 C745B4FF 		movl	$-1, -76(%ebp)
 233      FFFFFF
 234 0118 E8000000 		call	___cxa_call_unexpected
 234      00
 235              	L12:
 236 011d 8D45B0   		leal	-80(%ebp), %eax
 237 0120 890424   		movl	%eax, (%esp)
 238 0123 E8000000 		call	__Unwind_SjLj_Unregister
 238      00
 239              		.loc 3 18 0
 240 0128 83C45C   		addl	$92, %esp
 241 012b 5B       		popl	%ebx
 242              		.cfi_restore 3
 243 012c 5E       		popl	%esi
 244              		.cfi_restore 6
 245 012d 5F       		popl	%edi
 246              		.cfi_restore 7
 247 012e 5D       		popl	%ebp
 248              		.cfi_restore 5
 249              		.cfi_def_cfa 4, 4
 250 012f C20C00   		ret	$12
 251              		.cfi_endproc
 252              	LFE1061:
 253              		.section	.gcc_except_table,"w"
 254              		.align 4
 255              	LLSDA1061:
 256 0000 FF       		.byte	0xff
 257 0001 00       		.byte	0
 258 0002 0D       		.uleb128 LLSDATT1061-LLSDATTD1061
 259              	LLSDATTD1061:
 260 0003 01       		.byte	0x1
 261 0004 02       		.uleb128 LLSDACSE1061-LLSDACSB1061
 262              	LLSDACSB1061:
 263 0005 00       		.uleb128 0
 264 0006 01       		.uleb128 0x1
 265              	LLSDACSE1061:
 266 0007 7F       		.byte	0x7f
 267 0008 00       		.byte	0
 268 0009 000000   		.align 4
 269 000c 00000000 		.long	__ZTI13FechaNoValida
 270              	LLSDATT1061:
 271 0010 01       		.byte	0x1
 272 0011 00       		.byte	0
 273              		.text
 274              		.globl	__ZN5FechaC1Eiii
 276              		.set	__ZN5FechaC1Eiii,__ZN5FechaC2Eiii
 277              		.align 2
 278              		.globl	__ZN5FechaD2Ev
 280              	__ZN5FechaD2Ev:
 281              	LFB1064:
  19:C:/Caleb/FIUNA/4to Semestre/POO/C++/Unidad12/Sobre\Fecha.cpp **** 
  20:C:/Caleb/FIUNA/4to Semestre/POO/C++/Unidad12/Sobre\Fecha.cpp **** Fecha::~Fecha()
 282              		.loc 3 20 0
GAS LISTING C:\Users\USER\AppData\Local\Temp\ccFSuTGK.s 			page 8


 283              		.cfi_startproc
 284 0132 55       		pushl	%ebp
 285              		.cfi_def_cfa_offset 8
 286              		.cfi_offset 5, -8
 287 0133 89E5     		movl	%esp, %ebp
 288              		.cfi_def_cfa_register 5
 289 0135 83EC28   		subl	$40, %esp
 290 0138 894DF4   		movl	%ecx, -12(%ebp)
 291              	LBB6:
 292              		.loc 3 20 0
 293 013b BA080000 		movl	$__ZTV5Fecha+8, %edx
 293      00
 294 0140 8B45F4   		movl	-12(%ebp), %eax
 295 0143 8910     		movl	%edx, (%eax)
 296              	LBE6:
  21:C:/Caleb/FIUNA/4to Semestre/POO/C++/Unidad12/Sobre\Fecha.cpp **** {
  22:C:/Caleb/FIUNA/4to Semestre/POO/C++/Unidad12/Sobre\Fecha.cpp ****     //dtor
  23:C:/Caleb/FIUNA/4to Semestre/POO/C++/Unidad12/Sobre\Fecha.cpp **** }
 297              		.loc 3 23 0
 298 0145 B8000000 		movl	$0, %eax
 298      00
 299 014a 85C0     		testl	%eax, %eax
 300 014c 740B     		je	L13
 301              		.loc 3 23 0 is_stmt 0 discriminator 1
 302 014e 8B45F4   		movl	-12(%ebp), %eax
 303 0151 890424   		movl	%eax, (%esp)
 304 0154 E8000000 		call	__ZdlPv
 304      00
 305              	L13:
 306              		.loc 3 23 0
 307 0159 C9       		leave
 308              		.cfi_restore 5
 309              		.cfi_def_cfa 4, 4
 310 015a C3       		ret
 311              		.cfi_endproc
 312              	LFE1064:
 313              		.globl	__ZN5FechaD1Ev
 315              		.set	__ZN5FechaD1Ev,__ZN5FechaD2Ev
 316 015b 90       		.align 2
 317              		.globl	__ZN5FechaD0Ev
 319              	__ZN5FechaD0Ev:
 320              	LFB1066:
  20:C:/Caleb/FIUNA/4to Semestre/POO/C++/Unidad12/Sobre\Fecha.cpp **** {
 321              		.loc 3 20 0 is_stmt 1
 322              		.cfi_startproc
 323 015c 55       		pushl	%ebp
 324              		.cfi_def_cfa_offset 8
 325              		.cfi_offset 5, -8
 326 015d 89E5     		movl	%esp, %ebp
 327              		.cfi_def_cfa_register 5
 328 015f 83EC28   		subl	$40, %esp
 329 0162 894DF4   		movl	%ecx, -12(%ebp)
 330              		.loc 3 23 0
 331 0165 8B45F4   		movl	-12(%ebp), %eax
 332 0168 89C1     		movl	%eax, %ecx
 333 016a E8C3FFFF 		call	__ZN5FechaD1Ev
 333      FF
GAS LISTING C:\Users\USER\AppData\Local\Temp\ccFSuTGK.s 			page 9


 334 016f 8B45F4   		movl	-12(%ebp), %eax
 335 0172 890424   		movl	%eax, (%esp)
 336 0175 E8000000 		call	__ZdlPv
 336      00
 337 017a C9       		leave
 338              		.cfi_restore 5
 339              		.cfi_def_cfa 4, 4
 340 017b C3       		ret
 341              		.cfi_endproc
 342              	LFE1066:
 343              		.align 2
 344              		.globl	__ZNK5Fecha6getDiaEv
 346              	__ZNK5Fecha6getDiaEv:
 347              	LFB1067:
  24:C:/Caleb/FIUNA/4to Semestre/POO/C++/Unidad12/Sobre\Fecha.cpp **** 
  25:C:/Caleb/FIUNA/4to Semestre/POO/C++/Unidad12/Sobre\Fecha.cpp **** int Fecha::getDia() const
  26:C:/Caleb/FIUNA/4to Semestre/POO/C++/Unidad12/Sobre\Fecha.cpp **** {
 348              		.loc 3 26 0
 349              		.cfi_startproc
 350 017c 55       		pushl	%ebp
 351              		.cfi_def_cfa_offset 8
 352              		.cfi_offset 5, -8
 353 017d 89E5     		movl	%esp, %ebp
 354              		.cfi_def_cfa_register 5
 355 017f 83EC04   		subl	$4, %esp
 356 0182 894DFC   		movl	%ecx, -4(%ebp)
  27:C:/Caleb/FIUNA/4to Semestre/POO/C++/Unidad12/Sobre\Fecha.cpp ****     return dia;
 357              		.loc 3 27 0
 358 0185 8B45FC   		movl	-4(%ebp), %eax
 359 0188 8B4004   		movl	4(%eax), %eax
  28:C:/Caleb/FIUNA/4to Semestre/POO/C++/Unidad12/Sobre\Fecha.cpp **** }
 360              		.loc 3 28 0
 361 018b C9       		leave
 362              		.cfi_restore 5
 363              		.cfi_def_cfa 4, 4
 364 018c C3       		ret
 365              		.cfi_endproc
 366              	LFE1067:
 367 018d 90       		.align 2
 368              		.globl	__ZNK5Fecha6getMesEv
 370              	__ZNK5Fecha6getMesEv:
 371              	LFB1068:
  29:C:/Caleb/FIUNA/4to Semestre/POO/C++/Unidad12/Sobre\Fecha.cpp **** 
  30:C:/Caleb/FIUNA/4to Semestre/POO/C++/Unidad12/Sobre\Fecha.cpp **** int Fecha::getMes() const
  31:C:/Caleb/FIUNA/4to Semestre/POO/C++/Unidad12/Sobre\Fecha.cpp **** {
 372              		.loc 3 31 0
 373              		.cfi_startproc
 374 018e 55       		pushl	%ebp
 375              		.cfi_def_cfa_offset 8
 376              		.cfi_offset 5, -8
 377 018f 89E5     		movl	%esp, %ebp
 378              		.cfi_def_cfa_register 5
 379 0191 83EC04   		subl	$4, %esp
 380 0194 894DFC   		movl	%ecx, -4(%ebp)
  32:C:/Caleb/FIUNA/4to Semestre/POO/C++/Unidad12/Sobre\Fecha.cpp ****     return mes;
 381              		.loc 3 32 0
 382 0197 8B45FC   		movl	-4(%ebp), %eax
GAS LISTING C:\Users\USER\AppData\Local\Temp\ccFSuTGK.s 			page 10


 383 019a 8B4008   		movl	8(%eax), %eax
  33:C:/Caleb/FIUNA/4to Semestre/POO/C++/Unidad12/Sobre\Fecha.cpp **** }
 384              		.loc 3 33 0
 385 019d C9       		leave
 386              		.cfi_restore 5
 387              		.cfi_def_cfa 4, 4
 388 019e C3       		ret
 389              		.cfi_endproc
 390              	LFE1068:
 391 019f 90       		.align 2
 392              		.globl	__ZNK5Fecha7getAnhoEv
 394              	__ZNK5Fecha7getAnhoEv:
 395              	LFB1069:
  34:C:/Caleb/FIUNA/4to Semestre/POO/C++/Unidad12/Sobre\Fecha.cpp **** 
  35:C:/Caleb/FIUNA/4to Semestre/POO/C++/Unidad12/Sobre\Fecha.cpp **** int Fecha::getAnho() const
  36:C:/Caleb/FIUNA/4to Semestre/POO/C++/Unidad12/Sobre\Fecha.cpp **** {
 396              		.loc 3 36 0
 397              		.cfi_startproc
 398 01a0 55       		pushl	%ebp
 399              		.cfi_def_cfa_offset 8
 400              		.cfi_offset 5, -8
 401 01a1 89E5     		movl	%esp, %ebp
 402              		.cfi_def_cfa_register 5
 403 01a3 83EC04   		subl	$4, %esp
 404 01a6 894DFC   		movl	%ecx, -4(%ebp)
  37:C:/Caleb/FIUNA/4to Semestre/POO/C++/Unidad12/Sobre\Fecha.cpp ****     return anho;
 405              		.loc 3 37 0
 406 01a9 8B45FC   		movl	-4(%ebp), %eax
 407 01ac 8B400C   		movl	12(%eax), %eax
  38:C:/Caleb/FIUNA/4to Semestre/POO/C++/Unidad12/Sobre\Fecha.cpp **** }
 408              		.loc 3 38 0
 409 01af C9       		leave
 410              		.cfi_restore 5
 411              		.cfi_def_cfa 4, 4
 412 01b0 C3       		ret
 413              		.cfi_endproc
 414              	LFE1069:
 415 01b1 90       		.align 2
 416              		.globl	__ZN5Fecha15establecerFechaEiii
 418              	__ZN5Fecha15establecerFechaEiii:
 419              	LFB1070:
  39:C:/Caleb/FIUNA/4to Semestre/POO/C++/Unidad12/Sobre\Fecha.cpp **** 
  40:C:/Caleb/FIUNA/4to Semestre/POO/C++/Unidad12/Sobre\Fecha.cpp **** void Fecha::establecerFecha(int d,int m,int a)
  41:C:/Caleb/FIUNA/4to Semestre/POO/C++/Unidad12/Sobre\Fecha.cpp **** throw (FechaNoValida){
 420              		.loc 3 41 0
 421              		.cfi_startproc
 422              		.cfi_personality 0,___gxx_personality_sj0
 423              		.cfi_lsda 0,LLSDA1070
 424 01b2 55       		pushl	%ebp
 425              		.cfi_def_cfa_offset 8
 426              		.cfi_offset 5, -8
 427 01b3 89E5     		movl	%esp, %ebp
 428              		.cfi_def_cfa_register 5
 429 01b5 57       		pushl	%edi
 430 01b6 56       		pushl	%esi
 431 01b7 53       		pushl	%ebx
 432 01b8 83EC5C   		subl	$92, %esp
GAS LISTING C:\Users\USER\AppData\Local\Temp\ccFSuTGK.s 			page 11


 433              		.cfi_offset 7, -12
 434              		.cfi_offset 6, -16
 435              		.cfi_offset 3, -20
 436 01bb 894DE4   		movl	%ecx, -28(%ebp)
 437 01be C745C800 		movl	$___gxx_personality_sj0, -56(%ebp)
 437      000000
 438 01c5 C745CC14 		movl	$LLSDA1070, -52(%ebp)
 438      000000
 439 01cc 8D45D0   		leal	-48(%ebp), %eax
 440 01cf 8D5DE8   		leal	-24(%ebp), %ebx
 441 01d2 8918     		movl	%ebx, (%eax)
 442 01d4 BA650200 		movl	$L26, %edx
 442      00
 443 01d9 895004   		movl	%edx, 4(%eax)
 444 01dc 896008   		movl	%esp, 8(%eax)
 445 01df 8D45B0   		leal	-80(%ebp), %eax
 446 01e2 890424   		movl	%eax, (%esp)
 447 01e5 E8000000 		call	__Unwind_SjLj_Register
 447      00
  42:C:/Caleb/FIUNA/4to Semestre/POO/C++/Unidad12/Sobre\Fecha.cpp ****     if(!fechaValida(d,m,a)){
 448              		.loc 3 42 0
 449 01ea 8B4510   		movl	16(%ebp), %eax
 450 01ed 89442408 		movl	%eax, 8(%esp)
 451 01f1 8B450C   		movl	12(%ebp), %eax
 452 01f4 89442404 		movl	%eax, 4(%esp)
 453 01f8 8B4508   		movl	8(%ebp), %eax
 454 01fb 890424   		movl	%eax, (%esp)
 455 01fe E8C30100 		call	__ZN5Fecha11fechaValidaEiii
 455      00
 456 0203 83F001   		xorl	$1, %eax
 457 0206 84C0     		testb	%al, %al
 458 0208 743E     		je	L23
  43:C:/Caleb/FIUNA/4to Semestre/POO/C++/Unidad12/Sobre\Fecha.cpp ****         throw FechaNoValida();
 459              		.loc 3 43 0
 460 020a C7042404 		movl	$4, (%esp)
 460      000000
 461 0211 E8000000 		call	___cxa_allocate_exception
 461      00
 462 0216 C7000000 		movl	$0, (%eax)
 462      0000
 463 021c 8945AC   		movl	%eax, -84(%ebp)
 464 021f 89C1     		movl	%eax, %ecx
 465 0221 E8000000 		call	__ZN13FechaNoValidaC1Ev
 465      00
 466 0226 C7442408 		movl	$__ZN13FechaNoValidaD1Ev, 8(%esp)
 466      00000000 
 467 022e C7442404 		movl	$__ZTI13FechaNoValida, 4(%esp)
 467      00000000 
 468 0236 8B45AC   		movl	-84(%ebp), %eax
 469 0239 890424   		movl	%eax, (%esp)
 470 023c C745B401 		movl	$1, -76(%ebp)
 470      000000
 471 0243 E8000000 		call	___cxa_throw
 471      00
 472              	L23:
  44:C:/Caleb/FIUNA/4to Semestre/POO/C++/Unidad12/Sobre\Fecha.cpp ****     }
  45:C:/Caleb/FIUNA/4to Semestre/POO/C++/Unidad12/Sobre\Fecha.cpp ****     dia=d;
GAS LISTING C:\Users\USER\AppData\Local\Temp\ccFSuTGK.s 			page 12


 473              		.loc 3 45 0
 474 0248 8B45E4   		movl	-28(%ebp), %eax
 475 024b 8B5508   		movl	8(%ebp), %edx
 476 024e 895004   		movl	%edx, 4(%eax)
  46:C:/Caleb/FIUNA/4to Semestre/POO/C++/Unidad12/Sobre\Fecha.cpp ****     mes=m;
 477              		.loc 3 46 0
 478 0251 8B45E4   		movl	-28(%ebp), %eax
 479 0254 8B550C   		movl	12(%ebp), %edx
 480 0257 895008   		movl	%edx, 8(%eax)
  47:C:/Caleb/FIUNA/4to Semestre/POO/C++/Unidad12/Sobre\Fecha.cpp ****     anho=a;
 481              		.loc 3 47 0
 482 025a 8B45E4   		movl	-28(%ebp), %eax
 483 025d 8B5510   		movl	16(%ebp), %edx
 484 0260 89500C   		movl	%edx, 12(%eax)
  48:C:/Caleb/FIUNA/4to Semestre/POO/C++/Unidad12/Sobre\Fecha.cpp **** }
 485              		.loc 3 48 0
 486 0263 EB2C     		jmp	L28
 487              	L26:
 488 0265 8D6D18   		leal	24(%ebp), %ebp
 489 0268 8B45B8   		movl	-72(%ebp), %eax
 490 026b 8B55BC   		movl	-68(%ebp), %edx
 491 026e 83FAFF   		cmpl	$-1, %edx
 492 0271 740F     		je	L25
 493 0273 890424   		movl	%eax, (%esp)
 494 0276 C745B4FF 		movl	$-1, -76(%ebp)
 494      FFFFFF
 495 027d E8000000 		call	__Unwind_SjLj_Resume
 495      00
 496              	L25:
  40:C:/Caleb/FIUNA/4to Semestre/POO/C++/Unidad12/Sobre\Fecha.cpp **** throw (FechaNoValida){
 497              		.loc 3 40 0
 498 0282 890424   		movl	%eax, (%esp)
 499 0285 C745B4FF 		movl	$-1, -76(%ebp)
 499      FFFFFF
 500 028c E8000000 		call	___cxa_call_unexpected
 500      00
 501              	L28:
 502 0291 8D45B0   		leal	-80(%ebp), %eax
 503 0294 890424   		movl	%eax, (%esp)
 504 0297 E8000000 		call	__Unwind_SjLj_Unregister
 504      00
 505              		.loc 3 48 0
 506 029c 83C45C   		addl	$92, %esp
 507 029f 5B       		popl	%ebx
 508              		.cfi_restore 3
 509 02a0 5E       		popl	%esi
 510              		.cfi_restore 6
 511 02a1 5F       		popl	%edi
 512              		.cfi_restore 7
 513 02a2 5D       		popl	%ebp
 514              		.cfi_restore 5
 515              		.cfi_def_cfa 4, 4
 516 02a3 C20C00   		ret	$12
 517              		.cfi_endproc
 518              	LFE1070:
 519              		.section	.gcc_except_table,"w"
 520 0012 0000     		.align 4
GAS LISTING C:\Users\USER\AppData\Local\Temp\ccFSuTGK.s 			page 13


 521              	LLSDA1070:
 522 0014 FF       		.byte	0xff
 523 0015 00       		.byte	0
 524 0016 0D       		.uleb128 LLSDATT1070-LLSDATTD1070
 525              	LLSDATTD1070:
 526 0017 01       		.byte	0x1
 527 0018 02       		.uleb128 LLSDACSE1070-LLSDACSB1070
 528              	LLSDACSB1070:
 529 0019 00       		.uleb128 0
 530 001a 01       		.uleb128 0x1
 531              	LLSDACSE1070:
 532 001b 7F       		.byte	0x7f
 533 001c 00       		.byte	0
 534 001d 000000   		.align 4
 535 0020 00000000 		.long	__ZTI13FechaNoValida
 536              	LLSDATT1070:
 537 0024 01       		.byte	0x1
 538 0025 00       		.byte	0
 539              		.text
 540              		.align 2
 541              		.globl	__ZN5Fecha12anhoBisiestoEi
 543              	__ZN5Fecha12anhoBisiestoEi:
 544              	LFB1071:
  49:C:/Caleb/FIUNA/4to Semestre/POO/C++/Unidad12/Sobre\Fecha.cpp **** 
  50:C:/Caleb/FIUNA/4to Semestre/POO/C++/Unidad12/Sobre\Fecha.cpp **** bool Fecha::anhoBisiesto(int a){
 545              		.loc 3 50 0
 546              		.cfi_startproc
 547 02a6 55       		pushl	%ebp
 548              		.cfi_def_cfa_offset 8
 549              		.cfi_offset 5, -8
 550 02a7 89E5     		movl	%esp, %ebp
 551              		.cfi_def_cfa_register 5
  51:C:/Caleb/FIUNA/4to Semestre/POO/C++/Unidad12/Sobre\Fecha.cpp ****     return ((a % 4 == 0 && a % 100 != 0) || a % 400 == 0);
 552              		.loc 3 51 0
 553 02a9 8B4508   		movl	8(%ebp), %eax
 554 02ac 83E003   		andl	$3, %eax
 555 02af 85C0     		testl	%eax, %eax
 556 02b1 7523     		jne	L30
 557              		.loc 3 51 0 is_stmt 0 discriminator 1
 558 02b3 8B4D08   		movl	8(%ebp), %ecx
 559 02b6 BA1F85EB 		movl	$1374389535, %edx
 559      51
 560 02bb 89C8     		movl	%ecx, %eax
 561 02bd F7EA     		imull	%edx
 562 02bf C1FA05   		sarl	$5, %edx
 563 02c2 89C8     		movl	%ecx, %eax
 564 02c4 C1F81F   		sarl	$31, %eax
 565 02c7 29C2     		subl	%eax, %edx
 566 02c9 89D0     		movl	%edx, %eax
 567 02cb 6BC064   		imull	$100, %eax, %eax
 568 02ce 29C1     		subl	%eax, %ecx
 569 02d0 89C8     		movl	%ecx, %eax
 570 02d2 85C0     		testl	%eax, %eax
 571 02d4 7526     		jne	L31
 572              	L30:
 573              		.loc 3 51 0 discriminator 4
 574 02d6 8B4D08   		movl	8(%ebp), %ecx
GAS LISTING C:\Users\USER\AppData\Local\Temp\ccFSuTGK.s 			page 14


 575 02d9 BA1F85EB 		movl	$1374389535, %edx
 575      51
 576 02de 89C8     		movl	%ecx, %eax
 577 02e0 F7EA     		imull	%edx
 578 02e2 C1FA07   		sarl	$7, %edx
 579 02e5 89C8     		movl	%ecx, %eax
 580 02e7 C1F81F   		sarl	$31, %eax
 581 02ea 29C2     		subl	%eax, %edx
 582 02ec 89D0     		movl	%edx, %eax
 583 02ee 69C09001 		imull	$400, %eax, %eax
 583      0000
 584 02f4 29C1     		subl	%eax, %ecx
 585 02f6 89C8     		movl	%ecx, %eax
 586 02f8 85C0     		testl	%eax, %eax
 587 02fa 7507     		jne	L32
 588              	L31:
 589              		.loc 3 51 0 discriminator 5
 590 02fc B8010000 		movl	$1, %eax
 590      00
 591 0301 EB05     		jmp	L33
 592              	L32:
 593              		.loc 3 51 0 discriminator 6
 594 0303 B8000000 		movl	$0, %eax
 594      00
 595              	L33:
  52:C:/Caleb/FIUNA/4to Semestre/POO/C++/Unidad12/Sobre\Fecha.cpp **** }
 596              		.loc 3 52 0 is_stmt 1 discriminator 8
 597 0308 5D       		popl	%ebp
 598              		.cfi_restore 5
 599              		.cfi_def_cfa 4, 4
 600 0309 C3       		ret
 601              		.cfi_endproc
 602              	LFE1071:
 603              		.align 2
 604              		.globl	__ZN5Fecha14cantidadDeDiasEii
 606              	__ZN5Fecha14cantidadDeDiasEii:
 607              	LFB1072:
  53:C:/Caleb/FIUNA/4to Semestre/POO/C++/Unidad12/Sobre\Fecha.cpp **** 
  54:C:/Caleb/FIUNA/4to Semestre/POO/C++/Unidad12/Sobre\Fecha.cpp **** int Fecha::cantidadDeDias(int m,int a){
 608              		.loc 3 54 0
 609              		.cfi_startproc
 610 030a 55       		pushl	%ebp
 611              		.cfi_def_cfa_offset 8
 612              		.cfi_offset 5, -8
 613 030b 89E5     		movl	%esp, %ebp
 614              		.cfi_def_cfa_register 5
 615 030d 83EC04   		subl	$4, %esp
  55:C:/Caleb/FIUNA/4to Semestre/POO/C++/Unidad12/Sobre\Fecha.cpp ****     if(m==4 || m==6 || m==9 || m==11){
 616              		.loc 3 55 0
 617 0310 837D0804 		cmpl	$4, 8(%ebp)
 618 0314 7412     		je	L36
 619              		.loc 3 55 0 is_stmt 0 discriminator 1
 620 0316 837D0806 		cmpl	$6, 8(%ebp)
 621 031a 740C     		je	L36
 622              		.loc 3 55 0 discriminator 2
 623 031c 837D0809 		cmpl	$9, 8(%ebp)
 624 0320 7406     		je	L36
GAS LISTING C:\Users\USER\AppData\Local\Temp\ccFSuTGK.s 			page 15


 625              		.loc 3 55 0 discriminator 3
 626 0322 837D080B 		cmpl	$11, 8(%ebp)
 627 0326 750A     		jne	L37
 628              	L36:
  56:C:/Caleb/FIUNA/4to Semestre/POO/C++/Unidad12/Sobre\Fecha.cpp ****         return 30;
 629              		.loc 3 56 0 is_stmt 1
 630 0328 B81E0000 		movl	$30, %eax
 630      00
 631 032d E9910000 		jmp	L38
 631      00
 632              	L37:
  57:C:/Caleb/FIUNA/4to Semestre/POO/C++/Unidad12/Sobre\Fecha.cpp ****     }else if(m==1 || m==3 || m==5 || m==7 || m==8 || m==10 || m==12){
 633              		.loc 3 57 0
 634 0332 837D0801 		cmpl	$1, 8(%ebp)
 635 0336 7424     		je	L39
 636              		.loc 3 57 0 is_stmt 0 discriminator 1
 637 0338 837D0803 		cmpl	$3, 8(%ebp)
 638 033c 741E     		je	L39
 639              		.loc 3 57 0 discriminator 2
 640 033e 837D0805 		cmpl	$5, 8(%ebp)
 641 0342 7418     		je	L39
 642              		.loc 3 57 0 discriminator 3
 643 0344 837D0807 		cmpl	$7, 8(%ebp)
 644 0348 7412     		je	L39
 645              		.loc 3 57 0 discriminator 4
 646 034a 837D0808 		cmpl	$8, 8(%ebp)
 647 034e 740C     		je	L39
 648              		.loc 3 57 0 discriminator 5
 649 0350 837D080A 		cmpl	$10, 8(%ebp)
 650 0354 7406     		je	L39
 651              		.loc 3 57 0 discriminator 6
 652 0356 837D080C 		cmpl	$12, 8(%ebp)
 653 035a 7507     		jne	L40
 654              	L39:
  58:C:/Caleb/FIUNA/4to Semestre/POO/C++/Unidad12/Sobre\Fecha.cpp ****         return 31;
 655              		.loc 3 58 0 is_stmt 1
 656 035c B81F0000 		movl	$31, %eax
 656      00
 657 0361 EB60     		jmp	L38
 658              	L40:
  59:C:/Caleb/FIUNA/4to Semestre/POO/C++/Unidad12/Sobre\Fecha.cpp ****     }else if(anhoBisiesto(a) && m==2){
 659              		.loc 3 59 0
 660 0363 8B450C   		movl	12(%ebp), %eax
 661 0366 890424   		movl	%eax, (%esp)
 662 0369 E838FFFF 		call	__ZN5Fecha12anhoBisiestoEi
 662      FF
 663 036e 84C0     		testb	%al, %al
 664 0370 740D     		je	L41
 665              		.loc 3 59 0 is_stmt 0 discriminator 1
 666 0372 837D0802 		cmpl	$2, 8(%ebp)
 667 0376 7507     		jne	L41
 668              		.loc 3 59 0 discriminator 3
 669 0378 B8010000 		movl	$1, %eax
 669      00
 670 037d EB05     		jmp	L42
 671              	L41:
 672              		.loc 3 59 0 discriminator 4
GAS LISTING C:\Users\USER\AppData\Local\Temp\ccFSuTGK.s 			page 16


 673 037f B8000000 		movl	$0, %eax
 673      00
 674              	L42:
 675              		.loc 3 59 0 discriminator 6
 676 0384 84C0     		testb	%al, %al
 677 0386 7407     		je	L43
  60:C:/Caleb/FIUNA/4to Semestre/POO/C++/Unidad12/Sobre\Fecha.cpp ****         return 29;
 678              		.loc 3 60 0 is_stmt 1
 679 0388 B81D0000 		movl	$29, %eax
 679      00
 680 038d EB34     		jmp	L38
 681              	L43:
  61:C:/Caleb/FIUNA/4to Semestre/POO/C++/Unidad12/Sobre\Fecha.cpp ****     }else if(!anhoBisiesto(a) && m==2){
 682              		.loc 3 61 0
 683 038f 8B450C   		movl	12(%ebp), %eax
 684 0392 890424   		movl	%eax, (%esp)
 685 0395 E80CFFFF 		call	__ZN5Fecha12anhoBisiestoEi
 685      FF
 686 039a 83F001   		xorl	$1, %eax
 687 039d 84C0     		testb	%al, %al
 688 039f 740D     		je	L44
 689              		.loc 3 61 0 is_stmt 0 discriminator 1
 690 03a1 837D0802 		cmpl	$2, 8(%ebp)
 691 03a5 7507     		jne	L44
 692              		.loc 3 61 0 discriminator 3
 693 03a7 B8010000 		movl	$1, %eax
 693      00
 694 03ac EB05     		jmp	L45
 695              	L44:
 696              		.loc 3 61 0 discriminator 4
 697 03ae B8000000 		movl	$0, %eax
 697      00
 698              	L45:
 699              		.loc 3 61 0 discriminator 6
 700 03b3 84C0     		testb	%al, %al
 701 03b5 7407     		je	L46
  62:C:/Caleb/FIUNA/4to Semestre/POO/C++/Unidad12/Sobre\Fecha.cpp ****         return 28;
 702              		.loc 3 62 0 is_stmt 1
 703 03b7 B81C0000 		movl	$28, %eax
 703      00
 704 03bc EB05     		jmp	L38
 705              	L46:
  63:C:/Caleb/FIUNA/4to Semestre/POO/C++/Unidad12/Sobre\Fecha.cpp ****     }
  64:C:/Caleb/FIUNA/4to Semestre/POO/C++/Unidad12/Sobre\Fecha.cpp **** 
  65:C:/Caleb/FIUNA/4to Semestre/POO/C++/Unidad12/Sobre\Fecha.cpp ****     return 0;
 706              		.loc 3 65 0
 707 03be B8000000 		movl	$0, %eax
 707      00
 708              	L38:
  66:C:/Caleb/FIUNA/4to Semestre/POO/C++/Unidad12/Sobre\Fecha.cpp **** }
 709              		.loc 3 66 0
 710 03c3 C9       		leave
 711              		.cfi_restore 5
 712              		.cfi_def_cfa 4, 4
 713 03c4 C3       		ret
 714              		.cfi_endproc
 715              	LFE1072:
GAS LISTING C:\Users\USER\AppData\Local\Temp\ccFSuTGK.s 			page 17


 716 03c5 90       		.align 2
 717              		.globl	__ZN5Fecha11fechaValidaEiii
 719              	__ZN5Fecha11fechaValidaEiii:
 720              	LFB1073:
  67:C:/Caleb/FIUNA/4to Semestre/POO/C++/Unidad12/Sobre\Fecha.cpp **** 
  68:C:/Caleb/FIUNA/4to Semestre/POO/C++/Unidad12/Sobre\Fecha.cpp **** bool Fecha::fechaValida(int d,int m,int a){
 721              		.loc 3 68 0
 722              		.cfi_startproc
 723 03c6 55       		pushl	%ebp
 724              		.cfi_def_cfa_offset 8
 725              		.cfi_offset 5, -8
 726 03c7 89E5     		movl	%esp, %ebp
 727              		.cfi_def_cfa_register 5
 728 03c9 83EC08   		subl	$8, %esp
  69:C:/Caleb/FIUNA/4to Semestre/POO/C++/Unidad12/Sobre\Fecha.cpp ****     return (d<=cantidadDeDias(m,a) && d>0 && m>0 && a>0);
 729              		.loc 3 69 0
 730 03cc 8B4510   		movl	16(%ebp), %eax
 731 03cf 89442404 		movl	%eax, 4(%esp)
 732 03d3 8B450C   		movl	12(%ebp), %eax
 733 03d6 890424   		movl	%eax, (%esp)
 734 03d9 E82CFFFF 		call	__ZN5Fecha14cantidadDeDiasEii
 734      FF
 735 03de 3B4508   		cmpl	8(%ebp), %eax
 736 03e1 7C19     		jl	L48
 737              		.loc 3 69 0 is_stmt 0 discriminator 1
 738 03e3 837D0800 		cmpl	$0, 8(%ebp)
 739 03e7 7E13     		jle	L48
 740              		.loc 3 69 0 discriminator 3
 741 03e9 837D0C00 		cmpl	$0, 12(%ebp)
 742 03ed 7E0D     		jle	L48
 743              		.loc 3 69 0 discriminator 5
 744 03ef 837D1000 		cmpl	$0, 16(%ebp)
 745 03f3 7E07     		jle	L48
 746              		.loc 3 69 0 discriminator 7
 747 03f5 B8010000 		movl	$1, %eax
 747      00
 748 03fa EB05     		jmp	L49
 749              	L48:
 750              		.loc 3 69 0 discriminator 8
 751 03fc B8000000 		movl	$0, %eax
 751      00
 752              	L49:
  70:C:/Caleb/FIUNA/4to Semestre/POO/C++/Unidad12/Sobre\Fecha.cpp **** }
 753              		.loc 3 70 0 is_stmt 1 discriminator 10
 754 0401 C9       		leave
 755              		.cfi_restore 5
 756              		.cfi_def_cfa 4, 4
 757 0402 C3       		ret
 758              		.cfi_endproc
 759              	LFE1073:
 760 0403 90       		.align 2
 761              		.globl	__ZN5Fecha12aumentarDiasEv
 763              	__ZN5Fecha12aumentarDiasEv:
 764              	LFB1074:
  71:C:/Caleb/FIUNA/4to Semestre/POO/C++/Unidad12/Sobre\Fecha.cpp **** 
  72:C:/Caleb/FIUNA/4to Semestre/POO/C++/Unidad12/Sobre\Fecha.cpp **** void Fecha::aumentarDias(){
 765              		.loc 3 72 0
GAS LISTING C:\Users\USER\AppData\Local\Temp\ccFSuTGK.s 			page 18


 766              		.cfi_startproc
 767 0404 55       		pushl	%ebp
 768              		.cfi_def_cfa_offset 8
 769              		.cfi_offset 5, -8
 770 0405 89E5     		movl	%esp, %ebp
 771              		.cfi_def_cfa_register 5
 772 0407 83EC10   		subl	$16, %esp
 773 040a 894DFC   		movl	%ecx, -4(%ebp)
  73:C:/Caleb/FIUNA/4to Semestre/POO/C++/Unidad12/Sobre\Fecha.cpp ****     if(fechaValida(this->dia+1,this->mes,this->anho)){
 774              		.loc 3 73 0
 775 040d 8B45FC   		movl	-4(%ebp), %eax
 776 0410 8B500C   		movl	12(%eax), %edx
 777 0413 8B45FC   		movl	-4(%ebp), %eax
 778 0416 8B4008   		movl	8(%eax), %eax
 779 0419 8B4DFC   		movl	-4(%ebp), %ecx
 780 041c 8B4904   		movl	4(%ecx), %ecx
 781 041f 83C101   		addl	$1, %ecx
 782 0422 89542408 		movl	%edx, 8(%esp)
 783 0426 89442404 		movl	%eax, 4(%esp)
 784 042a 890C24   		movl	%ecx, (%esp)
 785 042d E894FFFF 		call	__ZN5Fecha11fechaValidaEiii
 785      FF
 786 0432 84C0     		testb	%al, %al
 787 0434 7411     		je	L52
  74:C:/Caleb/FIUNA/4to Semestre/POO/C++/Unidad12/Sobre\Fecha.cpp ****         dia++;
 788              		.loc 3 74 0
 789 0436 8B45FC   		movl	-4(%ebp), %eax
 790 0439 8B4004   		movl	4(%eax), %eax
 791 043c 8D5001   		leal	1(%eax), %edx
 792 043f 8B45FC   		movl	-4(%ebp), %eax
 793 0442 895004   		movl	%edx, 4(%eax)
  75:C:/Caleb/FIUNA/4to Semestre/POO/C++/Unidad12/Sobre\Fecha.cpp ****     }else if(fechaValida(1,this->mes+1,this->anho)){
  76:C:/Caleb/FIUNA/4to Semestre/POO/C++/Unidad12/Sobre\Fecha.cpp ****         mes++;
  77:C:/Caleb/FIUNA/4to Semestre/POO/C++/Unidad12/Sobre\Fecha.cpp ****         dia=1;
  78:C:/Caleb/FIUNA/4to Semestre/POO/C++/Unidad12/Sobre\Fecha.cpp ****     }else{
  79:C:/Caleb/FIUNA/4to Semestre/POO/C++/Unidad12/Sobre\Fecha.cpp ****         anho++;
  80:C:/Caleb/FIUNA/4to Semestre/POO/C++/Unidad12/Sobre\Fecha.cpp ****         mes=1;
  81:C:/Caleb/FIUNA/4to Semestre/POO/C++/Unidad12/Sobre\Fecha.cpp ****         dia=1;
  82:C:/Caleb/FIUNA/4to Semestre/POO/C++/Unidad12/Sobre\Fecha.cpp ****     }
  83:C:/Caleb/FIUNA/4to Semestre/POO/C++/Unidad12/Sobre\Fecha.cpp **** }
 794              		.loc 3 83 0
 795 0445 EB65     		jmp	L55
 796              	L52:
  75:C:/Caleb/FIUNA/4to Semestre/POO/C++/Unidad12/Sobre\Fecha.cpp ****     }else if(fechaValida(1,this->mes+1,this->anho)){
 797              		.loc 3 75 0
 798 0447 8B45FC   		movl	-4(%ebp), %eax
 799 044a 8B400C   		movl	12(%eax), %eax
 800 044d 8B55FC   		movl	-4(%ebp), %edx
 801 0450 8B5208   		movl	8(%edx), %edx
 802 0453 83C201   		addl	$1, %edx
 803 0456 89442408 		movl	%eax, 8(%esp)
 804 045a 89542404 		movl	%edx, 4(%esp)
 805 045e C7042401 		movl	$1, (%esp)
 805      000000
 806 0465 E85CFFFF 		call	__ZN5Fecha11fechaValidaEiii
 806      FF
 807 046a 84C0     		testb	%al, %al
GAS LISTING C:\Users\USER\AppData\Local\Temp\ccFSuTGK.s 			page 19


 808 046c 741B     		je	L54
  76:C:/Caleb/FIUNA/4to Semestre/POO/C++/Unidad12/Sobre\Fecha.cpp ****         dia=1;
 809              		.loc 3 76 0
 810 046e 8B45FC   		movl	-4(%ebp), %eax
 811 0471 8B4008   		movl	8(%eax), %eax
 812 0474 8D5001   		leal	1(%eax), %edx
 813 0477 8B45FC   		movl	-4(%ebp), %eax
 814 047a 895008   		movl	%edx, 8(%eax)
  77:C:/Caleb/FIUNA/4to Semestre/POO/C++/Unidad12/Sobre\Fecha.cpp ****     }else{
 815              		.loc 3 77 0
 816 047d 8B45FC   		movl	-4(%ebp), %eax
 817 0480 C7400401 		movl	$1, 4(%eax)
 817      000000
 818              		.loc 3 83 0
 819 0487 EB23     		jmp	L55
 820              	L54:
  79:C:/Caleb/FIUNA/4to Semestre/POO/C++/Unidad12/Sobre\Fecha.cpp ****         mes=1;
 821              		.loc 3 79 0
 822 0489 8B45FC   		movl	-4(%ebp), %eax
 823 048c 8B400C   		movl	12(%eax), %eax
 824 048f 8D5001   		leal	1(%eax), %edx
 825 0492 8B45FC   		movl	-4(%ebp), %eax
 826 0495 89500C   		movl	%edx, 12(%eax)
  80:C:/Caleb/FIUNA/4to Semestre/POO/C++/Unidad12/Sobre\Fecha.cpp ****         dia=1;
 827              		.loc 3 80 0
 828 0498 8B45FC   		movl	-4(%ebp), %eax
 829 049b C7400801 		movl	$1, 8(%eax)
 829      000000
  81:C:/Caleb/FIUNA/4to Semestre/POO/C++/Unidad12/Sobre\Fecha.cpp ****     }
 830              		.loc 3 81 0
 831 04a2 8B45FC   		movl	-4(%ebp), %eax
 832 04a5 C7400401 		movl	$1, 4(%eax)
 832      000000
 833              	L55:
 834              		.loc 3 83 0
 835 04ac 90       		nop
 836 04ad C9       		leave
 837              		.cfi_restore 5
 838              		.cfi_def_cfa 4, 4
 839 04ae C3       		ret
 840              		.cfi_endproc
 841              	LFE1074:
 842 04af 90       		.align 2
 843              		.globl	__ZN5Fecha13disminuirDiasEv
 845              	__ZN5Fecha13disminuirDiasEv:
 846              	LFB1075:
  84:C:/Caleb/FIUNA/4to Semestre/POO/C++/Unidad12/Sobre\Fecha.cpp **** 
  85:C:/Caleb/FIUNA/4to Semestre/POO/C++/Unidad12/Sobre\Fecha.cpp **** void Fecha::disminuirDias(){
 847              		.loc 3 85 0
 848              		.cfi_startproc
 849 04b0 55       		pushl	%ebp
 850              		.cfi_def_cfa_offset 8
 851              		.cfi_offset 5, -8
 852 04b1 89E5     		movl	%esp, %ebp
 853              		.cfi_def_cfa_register 5
 854 04b3 83EC10   		subl	$16, %esp
 855 04b6 894DFC   		movl	%ecx, -4(%ebp)
GAS LISTING C:\Users\USER\AppData\Local\Temp\ccFSuTGK.s 			page 20


  86:C:/Caleb/FIUNA/4to Semestre/POO/C++/Unidad12/Sobre\Fecha.cpp ****     if(fechaValida(this->dia-1,this->mes,this->anho)){
 856              		.loc 3 86 0
 857 04b9 8B45FC   		movl	-4(%ebp), %eax
 858 04bc 8B500C   		movl	12(%eax), %edx
 859 04bf 8B45FC   		movl	-4(%ebp), %eax
 860 04c2 8B4008   		movl	8(%eax), %eax
 861 04c5 8B4DFC   		movl	-4(%ebp), %ecx
 862 04c8 8B4904   		movl	4(%ecx), %ecx
 863 04cb 83E901   		subl	$1, %ecx
 864 04ce 89542408 		movl	%edx, 8(%esp)
 865 04d2 89442404 		movl	%eax, 4(%esp)
 866 04d6 890C24   		movl	%ecx, (%esp)
 867 04d9 E8E8FEFF 		call	__ZN5Fecha11fechaValidaEiii
 867      FF
 868 04de 84C0     		testb	%al, %al
 869 04e0 7411     		je	L57
  87:C:/Caleb/FIUNA/4to Semestre/POO/C++/Unidad12/Sobre\Fecha.cpp ****         dia--;
 870              		.loc 3 87 0
 871 04e2 8B45FC   		movl	-4(%ebp), %eax
 872 04e5 8B4004   		movl	4(%eax), %eax
 873 04e8 8D50FF   		leal	-1(%eax), %edx
 874 04eb 8B45FC   		movl	-4(%ebp), %eax
 875 04ee 895004   		movl	%edx, 4(%eax)
  88:C:/Caleb/FIUNA/4to Semestre/POO/C++/Unidad12/Sobre\Fecha.cpp ****     }else if(fechaValida(1,this->mes-1,this->anho)){
  89:C:/Caleb/FIUNA/4to Semestre/POO/C++/Unidad12/Sobre\Fecha.cpp ****         mes--;
  90:C:/Caleb/FIUNA/4to Semestre/POO/C++/Unidad12/Sobre\Fecha.cpp ****         dia=cantidadDeDias(this->mes,this->anho);
  91:C:/Caleb/FIUNA/4to Semestre/POO/C++/Unidad12/Sobre\Fecha.cpp ****     }else{
  92:C:/Caleb/FIUNA/4to Semestre/POO/C++/Unidad12/Sobre\Fecha.cpp ****         mes=12;
  93:C:/Caleb/FIUNA/4to Semestre/POO/C++/Unidad12/Sobre\Fecha.cpp ****         dia=31;
  94:C:/Caleb/FIUNA/4to Semestre/POO/C++/Unidad12/Sobre\Fecha.cpp ****         anho--;
  95:C:/Caleb/FIUNA/4to Semestre/POO/C++/Unidad12/Sobre\Fecha.cpp ****     }
  96:C:/Caleb/FIUNA/4to Semestre/POO/C++/Unidad12/Sobre\Fecha.cpp **** }
 876              		.loc 3 96 0
 877 04f1 EB7B     		jmp	L60
 878              	L57:
  88:C:/Caleb/FIUNA/4to Semestre/POO/C++/Unidad12/Sobre\Fecha.cpp ****     }else if(fechaValida(1,this->mes-1,this->anho)){
 879              		.loc 3 88 0
 880 04f3 8B45FC   		movl	-4(%ebp), %eax
 881 04f6 8B400C   		movl	12(%eax), %eax
 882 04f9 8B55FC   		movl	-4(%ebp), %edx
 883 04fc 8B5208   		movl	8(%edx), %edx
 884 04ff 83EA01   		subl	$1, %edx
 885 0502 89442408 		movl	%eax, 8(%esp)
 886 0506 89542404 		movl	%edx, 4(%esp)
 887 050a C7042401 		movl	$1, (%esp)
 887      000000
 888 0511 E8B0FEFF 		call	__ZN5Fecha11fechaValidaEiii
 888      FF
 889 0516 84C0     		testb	%al, %al
 890 0518 7431     		je	L59
  89:C:/Caleb/FIUNA/4to Semestre/POO/C++/Unidad12/Sobre\Fecha.cpp ****         dia=cantidadDeDias(this->mes,this->anho);
 891              		.loc 3 89 0
 892 051a 8B45FC   		movl	-4(%ebp), %eax
 893 051d 8B4008   		movl	8(%eax), %eax
 894 0520 8D50FF   		leal	-1(%eax), %edx
 895 0523 8B45FC   		movl	-4(%ebp), %eax
 896 0526 895008   		movl	%edx, 8(%eax)
GAS LISTING C:\Users\USER\AppData\Local\Temp\ccFSuTGK.s 			page 21


  90:C:/Caleb/FIUNA/4to Semestre/POO/C++/Unidad12/Sobre\Fecha.cpp ****     }else{
 897              		.loc 3 90 0
 898 0529 8B45FC   		movl	-4(%ebp), %eax
 899 052c 8B500C   		movl	12(%eax), %edx
 900 052f 8B45FC   		movl	-4(%ebp), %eax
 901 0532 8B4008   		movl	8(%eax), %eax
 902 0535 89542404 		movl	%edx, 4(%esp)
 903 0539 890424   		movl	%eax, (%esp)
 904 053c E8C9FDFF 		call	__ZN5Fecha14cantidadDeDiasEii
 904      FF
 905 0541 89C2     		movl	%eax, %edx
 906 0543 8B45FC   		movl	-4(%ebp), %eax
 907 0546 895004   		movl	%edx, 4(%eax)
 908              		.loc 3 96 0
 909 0549 EB23     		jmp	L60
 910              	L59:
  92:C:/Caleb/FIUNA/4to Semestre/POO/C++/Unidad12/Sobre\Fecha.cpp ****         dia=31;
 911              		.loc 3 92 0
 912 054b 8B45FC   		movl	-4(%ebp), %eax
 913 054e C740080C 		movl	$12, 8(%eax)
 913      000000
  93:C:/Caleb/FIUNA/4to Semestre/POO/C++/Unidad12/Sobre\Fecha.cpp ****         anho--;
 914              		.loc 3 93 0
 915 0555 8B45FC   		movl	-4(%ebp), %eax
 916 0558 C740041F 		movl	$31, 4(%eax)
 916      000000
  94:C:/Caleb/FIUNA/4to Semestre/POO/C++/Unidad12/Sobre\Fecha.cpp ****     }
 917              		.loc 3 94 0
 918 055f 8B45FC   		movl	-4(%ebp), %eax
 919 0562 8B400C   		movl	12(%eax), %eax
 920 0565 8D50FF   		leal	-1(%eax), %edx
 921 0568 8B45FC   		movl	-4(%ebp), %eax
 922 056b 89500C   		movl	%edx, 12(%eax)
 923              	L60:
 924              		.loc 3 96 0
 925 056e 90       		nop
 926 056f C9       		leave
 927              		.cfi_restore 5
 928              		.cfi_def_cfa 4, 4
 929 0570 C3       		ret
 930              		.cfi_endproc
 931              	LFE1075:
 932              		.section .rdata,"dr"
 933              	LC1:
 934 0010 2F00     		.ascii "/\0"
 935              		.text
 936 0571 90       		.align 2
 937              		.globl	__ZNK5Fecha8getFechaB5cxx11Ev
 939              	__ZNK5Fecha8getFechaB5cxx11Ev:
 940              	LFB1076:
  97:C:/Caleb/FIUNA/4to Semestre/POO/C++/Unidad12/Sobre\Fecha.cpp **** 
  98:C:/Caleb/FIUNA/4to Semestre/POO/C++/Unidad12/Sobre\Fecha.cpp **** string Fecha::getFecha() const
  99:C:/Caleb/FIUNA/4to Semestre/POO/C++/Unidad12/Sobre\Fecha.cpp **** {
 941              		.loc 3 99 0
 942              		.cfi_startproc
 943              		.cfi_personality 0,___gxx_personality_sj0
 944              		.cfi_lsda 0,LLSDA1076
GAS LISTING C:\Users\USER\AppData\Local\Temp\ccFSuTGK.s 			page 22


 945 0572 55       		pushl	%ebp
 946              		.cfi_def_cfa_offset 8
 947              		.cfi_offset 5, -8
 948 0573 89E5     		movl	%esp, %ebp
 949              		.cfi_def_cfa_register 5
 950 0575 57       		pushl	%edi
 951 0576 56       		pushl	%esi
 952 0577 53       		pushl	%ebx
 953 0578 81EC2C01 		subl	$300, %esp
 953      0000
 954              		.cfi_offset 7, -12
 955              		.cfi_offset 6, -16
 956              		.cfi_offset 3, -20
 957 057e 898D14FF 		movl	%ecx, -236(%ebp)
 957      FFFF
 958 0584 C785F8FE 		movl	$___gxx_personality_sj0, -264(%ebp)
 958      FFFF0000 
 958      0000
 959 058e C785FCFE 		movl	$LLSDA1076, -260(%ebp)
 959      FFFF2600 
 959      0000
 960 0598 8D8500FF 		leal	-256(%ebp), %eax
 960      FFFF
 961 059e 8D5DE8   		leal	-24(%ebp), %ebx
 962 05a1 8918     		movl	%ebx, (%eax)
 963 05a3 BA900600 		movl	$L64, %edx
 963      00
 964 05a8 895004   		movl	%edx, 4(%eax)
 965 05ab 896008   		movl	%esp, 8(%eax)
 966 05ae 8D85E0FE 		leal	-288(%ebp), %eax
 966      FFFF
 967 05b4 890424   		movl	%eax, (%esp)
 968 05b7 E8000000 		call	__Unwind_SjLj_Register
 968      00
 100:C:/Caleb/FIUNA/4to Semestre/POO/C++/Unidad12/Sobre\Fecha.cpp ****     ostringstream a;
 969              		.loc 3 100 0
 970 05bc 8D8520FF 		leal	-224(%ebp), %eax
 970      FFFF
 971 05c2 C7042410 		movl	$16, (%esp)
 971      000000
 972 05c9 C785E4FE 		movl	$-1, -284(%ebp)
 972      FFFFFFFF 
 972      FFFF
 973 05d3 89C1     		movl	%eax, %ecx
 974 05d5 E8000000 		call	__ZNSt7__cxx1119basic_ostringstreamIcSt11char_traitsIcESaIcEEC1ESt13_Ios_Openmode
 974      00
 975 05da 83EC04   		subl	$4, %esp
 101:C:/Caleb/FIUNA/4to Semestre/POO/C++/Unidad12/Sobre\Fecha.cpp ****     a<<dia<<"/"<<mes<<"/"<<anho;
 976              		.loc 3 101 0
 977 05dd 8B4508   		movl	8(%ebp), %eax
 978 05e0 8B400C   		movl	12(%eax), %eax
 979 05e3 8985DCFE 		movl	%eax, -292(%ebp)
 979      FFFF
 980 05e9 8B4508   		movl	8(%ebp), %eax
 981 05ec 8B4008   		movl	8(%eax), %eax
 982 05ef 8985D8FE 		movl	%eax, -296(%ebp)
 982      FFFF
GAS LISTING C:\Users\USER\AppData\Local\Temp\ccFSuTGK.s 			page 23


 983 05f5 8B4508   		movl	8(%ebp), %eax
 984 05f8 8B5004   		movl	4(%eax), %edx
 985 05fb 8D8520FF 		leal	-224(%ebp), %eax
 985      FFFF
 986 0601 891424   		movl	%edx, (%esp)
 987 0604 C785E4FE 		movl	$1, -284(%ebp)
 987      FFFF0100 
 987      0000
 988 060e 89C1     		movl	%eax, %ecx
 989 0610 E8000000 		call	__ZNSolsEi
 989      00
 990 0615 83EC04   		subl	$4, %esp
 991 0618 C7442404 		movl	$LC1, 4(%esp)
 991      10000000 
 992 0620 890424   		movl	%eax, (%esp)
 993 0623 E8000000 		call	__ZStlsISt11char_traitsIcEERSt13basic_ostreamIcT_ES5_PKc
 993      00
 994              		.loc 3 101 0 is_stmt 0 discriminator 1
 995 0628 8BB5D8FE 		movl	-296(%ebp), %esi
 995      FFFF
 996 062e 893424   		movl	%esi, (%esp)
 997 0631 89C1     		movl	%eax, %ecx
 998 0633 E8000000 		call	__ZNSolsEi
 998      00
 999              		.loc 3 101 0 discriminator 2
 1000 0638 83EC04   		subl	$4, %esp
 1001 063b C7442404 		movl	$LC1, 4(%esp)
 1001      10000000 
 1002 0643 890424   		movl	%eax, (%esp)
 1003 0646 E8000000 		call	__ZStlsISt11char_traitsIcEERSt13basic_ostreamIcT_ES5_PKc
 1003      00
 1004              		.loc 3 101 0 discriminator 3
 1005 064b 8BBDDCFE 		movl	-292(%ebp), %edi
 1005      FFFF
 1006 0651 893C24   		movl	%edi, (%esp)
 1007 0654 89C1     		movl	%eax, %ecx
 1008 0656 E8000000 		call	__ZNSolsEi
 1008      00
 1009              		.loc 3 101 0 discriminator 4
 1010 065b 83EC04   		subl	$4, %esp
 102:C:/Caleb/FIUNA/4to Semestre/POO/C++/Unidad12/Sobre\Fecha.cpp ****     return a.str();
 1011              		.loc 3 102 0 is_stmt 1 discriminator 4
 1012 065e 8B8514FF 		movl	-236(%ebp), %eax
 1012      FFFF
 1013 0664 8D9520FF 		leal	-224(%ebp), %edx
 1013      FFFF
 1014 066a 891424   		movl	%edx, (%esp)
 1015 066d 89C1     		movl	%eax, %ecx
 1016 066f E8000000 		call	__ZNKSt7__cxx1119basic_ostringstreamIcSt11char_traitsIcESaIcEE3strEv
 1016      00
 1017              		.loc 3 102 0 is_stmt 0
 1018 0674 83EC04   		subl	$4, %esp
 100:C:/Caleb/FIUNA/4to Semestre/POO/C++/Unidad12/Sobre\Fecha.cpp ****     ostringstream a;
 1019              		.loc 3 100 0 is_stmt 1
 1020 0677 8D8520FF 		leal	-224(%ebp), %eax
 1020      FFFF
 1021 067d C785E4FE 		movl	$-1, -284(%ebp)
GAS LISTING C:\Users\USER\AppData\Local\Temp\ccFSuTGK.s 			page 24


 1021      FFFFFFFF 
 1021      FFFF
 1022 0687 89C1     		movl	%eax, %ecx
 1023 0689 E8000000 		call	__ZNSt7__cxx1119basic_ostringstreamIcSt11char_traitsIcESaIcEED1Ev
 1023      00
 1024              		.loc 3 102 0
 1025 068e EB3E     		jmp	L66
 1026              	L64:
 1027 0690 8D6D18   		leal	24(%ebp), %ebp
 1028 0693 8B85E8FE 		movl	-280(%ebp), %eax
 1028      FFFF
 1029 0699 8985DCFE 		movl	%eax, -292(%ebp)
 1029      FFFF
 100:C:/Caleb/FIUNA/4to Semestre/POO/C++/Unidad12/Sobre\Fecha.cpp ****     ostringstream a;
 1030              		.loc 3 100 0
 1031 069f 8D8520FF 		leal	-224(%ebp), %eax
 1031      FFFF
 1032 06a5 C785E4FE 		movl	$0, -284(%ebp)
 1032      FFFF0000 
 1032      0000
 1033 06af 89C1     		movl	%eax, %ecx
 1034 06b1 E8000000 		call	__ZNSt7__cxx1119basic_ostringstreamIcSt11char_traitsIcESaIcEED1Ev
 1034      00
 1035 06b6 8B85DCFE 		movl	-292(%ebp), %eax
 1035      FFFF
 1036 06bc 890424   		movl	%eax, (%esp)
 1037 06bf C785E4FE 		movl	$-1, -284(%ebp)
 1037      FFFFFFFF 
 1037      FFFF
 1038 06c9 E8000000 		call	__Unwind_SjLj_Resume
 1038      00
 1039              	L66:
 1040 06ce 8D85E0FE 		leal	-288(%ebp), %eax
 1040      FFFF
 1041 06d4 890424   		movl	%eax, (%esp)
 1042 06d7 E8000000 		call	__Unwind_SjLj_Unregister
 1042      00
 103:C:/Caleb/FIUNA/4to Semestre/POO/C++/Unidad12/Sobre\Fecha.cpp **** }
 1043              		.loc 3 103 0
 1044 06dc 8B8514FF 		movl	-236(%ebp), %eax
 1044      FFFF
 1045 06e2 8D65F4   		leal	-12(%ebp), %esp
 1046 06e5 5B       		popl	%ebx
 1047              		.cfi_restore 3
 1048 06e6 5E       		popl	%esi
 1049              		.cfi_restore 6
 1050 06e7 5F       		popl	%edi
 1051              		.cfi_restore 7
 1052 06e8 5D       		popl	%ebp
 1053              		.cfi_restore 5
 1054              		.cfi_def_cfa 4, 4
 1055 06e9 C20400   		ret	$4
 1056              		.cfi_endproc
 1057              	LFE1076:
 1058              		.section	.gcc_except_table,"w"
 1059              	LLSDA1076:
 1060 0026 FF       		.byte	0xff
GAS LISTING C:\Users\USER\AppData\Local\Temp\ccFSuTGK.s 			page 25


 1061 0027 FF       		.byte	0xff
 1062 0028 01       		.byte	0x1
 1063 0029 02       		.uleb128 LLSDACSE1076-LLSDACSB1076
 1064              	LLSDACSB1076:
 1065 002a 00       		.uleb128 0
 1066 002b 00       		.uleb128 0
 1067              	LLSDACSE1076:
 1068              		.text
 1069              		.align 2
 1070              		.globl	__ZN5FechammEv
 1072              	__ZN5FechammEv:
 1073              	LFB1077:
 104:C:/Caleb/FIUNA/4to Semestre/POO/C++/Unidad12/Sobre\Fecha.cpp **** 
 105:C:/Caleb/FIUNA/4to Semestre/POO/C++/Unidad12/Sobre\Fecha.cpp **** Fecha& Fecha::operator--(){
 1074              		.loc 3 105 0
 1075              		.cfi_startproc
 1076 06ec 55       		pushl	%ebp
 1077              		.cfi_def_cfa_offset 8
 1078              		.cfi_offset 5, -8
 1079 06ed 89E5     		movl	%esp, %ebp
 1080              		.cfi_def_cfa_register 5
 1081 06ef 83EC04   		subl	$4, %esp
 1082 06f2 894DFC   		movl	%ecx, -4(%ebp)
 106:C:/Caleb/FIUNA/4to Semestre/POO/C++/Unidad12/Sobre\Fecha.cpp ****     this->disminuirDias();
 1083              		.loc 3 106 0
 1084 06f5 8B45FC   		movl	-4(%ebp), %eax
 1085 06f8 89C1     		movl	%eax, %ecx
 1086 06fa E8B1FDFF 		call	__ZN5Fecha13disminuirDiasEv
 1086      FF
 107:C:/Caleb/FIUNA/4to Semestre/POO/C++/Unidad12/Sobre\Fecha.cpp ****     return *this;
 1087              		.loc 3 107 0
 1088 06ff 8B45FC   		movl	-4(%ebp), %eax
 108:C:/Caleb/FIUNA/4to Semestre/POO/C++/Unidad12/Sobre\Fecha.cpp **** }
 1089              		.loc 3 108 0
 1090 0702 C9       		leave
 1091              		.cfi_restore 5
 1092              		.cfi_def_cfa 4, 4
 1093 0703 C3       		ret
 1094              		.cfi_endproc
 1095              	LFE1077:
 1096              		.section	.text$_ZN5FechaC1ERKS_,"x"
 1097              		.linkonce discard
 1098              		.align 2
 1099              		.globl	__ZN5FechaC1ERKS_
 1101              	__ZN5FechaC1ERKS_:
 1102              	LFB1081:
 1103              		.file 4 "C:/Caleb/FIUNA/4to Semestre/POO/C++/Unidad12/Sobre/Fecha.h"
   1:C:/Caleb/FIUNA/4to Semestre/POO/C++/Unidad12/Sobre\Fecha.h **** #ifndef FECHA_H
   2:C:/Caleb/FIUNA/4to Semestre/POO/C++/Unidad12/Sobre\Fecha.h **** #define FECHA_H
   3:C:/Caleb/FIUNA/4to Semestre/POO/C++/Unidad12/Sobre\Fecha.h **** 
   4:C:/Caleb/FIUNA/4to Semestre/POO/C++/Unidad12/Sobre\Fecha.h **** #include <iostream>
   5:C:/Caleb/FIUNA/4to Semestre/POO/C++/Unidad12/Sobre\Fecha.h **** #include <sstream>
   6:C:/Caleb/FIUNA/4to Semestre/POO/C++/Unidad12/Sobre\Fecha.h **** #include "FechaNoValida.h"
   7:C:/Caleb/FIUNA/4to Semestre/POO/C++/Unidad12/Sobre\Fecha.h **** 
   8:C:/Caleb/FIUNA/4to Semestre/POO/C++/Unidad12/Sobre\Fecha.h **** using namespace std;
   9:C:/Caleb/FIUNA/4to Semestre/POO/C++/Unidad12/Sobre\Fecha.h **** class Fecha
 1104              		.loc 4 9 0
GAS LISTING C:\Users\USER\AppData\Local\Temp\ccFSuTGK.s 			page 26


 1105              		.cfi_startproc
 1106 0000 55       		pushl	%ebp
 1107              		.cfi_def_cfa_offset 8
 1108              		.cfi_offset 5, -8
 1109 0001 89E5     		movl	%esp, %ebp
 1110              		.cfi_def_cfa_register 5
 1111 0003 83EC04   		subl	$4, %esp
 1112 0006 894DFC   		movl	%ecx, -4(%ebp)
 1113              	LBB7:
 1114              		.loc 4 9 0
 1115 0009 BA080000 		movl	$__ZTV5Fecha+8, %edx
 1115      00
 1116 000e 8B45FC   		movl	-4(%ebp), %eax
 1117 0011 8910     		movl	%edx, (%eax)
 1118 0013 8B4508   		movl	8(%ebp), %eax
 1119 0016 8B5004   		movl	4(%eax), %edx
 1120 0019 8B45FC   		movl	-4(%ebp), %eax
 1121 001c 895004   		movl	%edx, 4(%eax)
 1122 001f 8B4508   		movl	8(%ebp), %eax
 1123 0022 8B5008   		movl	8(%eax), %edx
 1124 0025 8B45FC   		movl	-4(%ebp), %eax
 1125 0028 895008   		movl	%edx, 8(%eax)
 1126 002b 8B4508   		movl	8(%ebp), %eax
 1127 002e 8B500C   		movl	12(%eax), %edx
 1128 0031 8B45FC   		movl	-4(%ebp), %eax
 1129 0034 89500C   		movl	%edx, 12(%eax)
 1130              	LBE7:
 1131 0037 90       		nop
 1132 0038 C9       		leave
 1133              		.cfi_restore 5
 1134              		.cfi_def_cfa 4, 4
 1135 0039 C20400   		ret	$4
 1136              		.cfi_endproc
 1137              	LFE1081:
 1138              		.text
 1139              		.align 2
 1140              		.globl	__ZN5FechammEi
 1142              	__ZN5FechammEi:
 1143              	LFB1078:
 109:C:/Caleb/FIUNA/4to Semestre/POO/C++/Unidad12/Sobre\Fecha.cpp **** 
 110:C:/Caleb/FIUNA/4to Semestre/POO/C++/Unidad12/Sobre\Fecha.cpp **** Fecha Fecha::operator--(int a){
 1144              		.loc 3 110 0
 1145              		.cfi_startproc
 1146 0704 55       		pushl	%ebp
 1147              		.cfi_def_cfa_offset 8
 1148              		.cfi_offset 5, -8
 1149 0705 89E5     		movl	%esp, %ebp
 1150              		.cfi_def_cfa_register 5
 1151 0707 83EC08   		subl	$8, %esp
 1152 070a 894DFC   		movl	%ecx, -4(%ebp)
 111:C:/Caleb/FIUNA/4to Semestre/POO/C++/Unidad12/Sobre\Fecha.cpp ****     Fecha aux=*this;
 1153              		.loc 3 111 0
 1154 070d 8B45FC   		movl	-4(%ebp), %eax
 1155 0710 8B5508   		movl	8(%ebp), %edx
 1156 0713 891424   		movl	%edx, (%esp)
 1157 0716 89C1     		movl	%eax, %ecx
 1158 0718 E8000000 		call	__ZN5FechaC1ERKS_
GAS LISTING C:\Users\USER\AppData\Local\Temp\ccFSuTGK.s 			page 27


 1158      00
 1159 071d 83EC04   		subl	$4, %esp
 112:C:/Caleb/FIUNA/4to Semestre/POO/C++/Unidad12/Sobre\Fecha.cpp ****     this->disminuirDias();
 1160              		.loc 3 112 0
 1161 0720 8B4D08   		movl	8(%ebp), %ecx
 1162 0723 E888FDFF 		call	__ZN5Fecha13disminuirDiasEv
 1162      FF
 113:C:/Caleb/FIUNA/4to Semestre/POO/C++/Unidad12/Sobre\Fecha.cpp ****     return aux;
 1163              		.loc 3 113 0
 1164 0728 90       		nop
 114:C:/Caleb/FIUNA/4to Semestre/POO/C++/Unidad12/Sobre\Fecha.cpp **** }
 1165              		.loc 3 114 0
 1166 0729 8B45FC   		movl	-4(%ebp), %eax
 1167 072c C9       		leave
 1168              		.cfi_restore 5
 1169              		.cfi_def_cfa 4, 4
 1170 072d C20800   		ret	$8
 1171              		.cfi_endproc
 1172              	LFE1078:
 1173              		.align 2
 1174              		.globl	__ZN5FechamIEi
 1176              	__ZN5FechamIEi:
 1177              	LFB1082:
 115:C:/Caleb/FIUNA/4to Semestre/POO/C++/Unidad12/Sobre\Fecha.cpp **** 
 116:C:/Caleb/FIUNA/4to Semestre/POO/C++/Unidad12/Sobre\Fecha.cpp **** const Fecha& Fecha::operator-=(int d){
 1178              		.loc 3 116 0
 1179              		.cfi_startproc
 1180 0730 55       		pushl	%ebp
 1181              		.cfi_def_cfa_offset 8
 1182              		.cfi_offset 5, -8
 1183 0731 89E5     		movl	%esp, %ebp
 1184              		.cfi_def_cfa_register 5
 1185 0733 83EC14   		subl	$20, %esp
 1186 0736 894DEC   		movl	%ecx, -20(%ebp)
 1187              	LBB8:
 117:C:/Caleb/FIUNA/4to Semestre/POO/C++/Unidad12/Sobre\Fecha.cpp ****     for(int i=0;i<d;i++){
 1188              		.loc 3 117 0
 1189 0739 C745FC00 		movl	$0, -4(%ebp)
 1189      000000
 1190              	L74:
 1191              		.loc 3 117 0 is_stmt 0 discriminator 3
 1192 0740 8B45FC   		movl	-4(%ebp), %eax
 1193 0743 3B4508   		cmpl	8(%ebp), %eax
 1194 0746 7D10     		jge	L73
 118:C:/Caleb/FIUNA/4to Semestre/POO/C++/Unidad12/Sobre\Fecha.cpp ****         disminuirDias();
 1195              		.loc 3 118 0 is_stmt 1 discriminator 2
 1196 0748 8B45EC   		movl	-20(%ebp), %eax
 1197 074b 89C1     		movl	%eax, %ecx
 1198 074d E85EFDFF 		call	__ZN5Fecha13disminuirDiasEv
 1198      FF
 117:C:/Caleb/FIUNA/4to Semestre/POO/C++/Unidad12/Sobre\Fecha.cpp ****     for(int i=0;i<d;i++){
 1199              		.loc 3 117 0 discriminator 2
 1200 0752 8345FC01 		addl	$1, -4(%ebp)
 1201 0756 EBE8     		jmp	L74
 1202              	L73:
 1203              	LBE8:
 119:C:/Caleb/FIUNA/4to Semestre/POO/C++/Unidad12/Sobre\Fecha.cpp ****     }
GAS LISTING C:\Users\USER\AppData\Local\Temp\ccFSuTGK.s 			page 28


 120:C:/Caleb/FIUNA/4to Semestre/POO/C++/Unidad12/Sobre\Fecha.cpp ****     return *this;
 1204              		.loc 3 120 0
 1205 0758 8B45EC   		movl	-20(%ebp), %eax
 121:C:/Caleb/FIUNA/4to Semestre/POO/C++/Unidad12/Sobre\Fecha.cpp **** }
 1206              		.loc 3 121 0
 1207 075b C9       		leave
 1208              		.cfi_restore 5
 1209              		.cfi_def_cfa 4, 4
 1210 075c C20400   		ret	$4
 1211              		.cfi_endproc
 1212              	LFE1082:
 1213 075f 90       		.align 2
 1214              		.globl	__ZNK5FechaeqERKS_
 1216              	__ZNK5FechaeqERKS_:
 1217              	LFB1083:
 122:C:/Caleb/FIUNA/4to Semestre/POO/C++/Unidad12/Sobre\Fecha.cpp **** 
 123:C:/Caleb/FIUNA/4to Semestre/POO/C++/Unidad12/Sobre\Fecha.cpp **** bool Fecha::operator ==(const Fecha &f) const{
 1218              		.loc 3 123 0
 1219              		.cfi_startproc
 1220 0760 55       		pushl	%ebp
 1221              		.cfi_def_cfa_offset 8
 1222              		.cfi_offset 5, -8
 1223 0761 89E5     		movl	%esp, %ebp
 1224              		.cfi_def_cfa_register 5
 1225 0763 83EC04   		subl	$4, %esp
 1226 0766 894DFC   		movl	%ecx, -4(%ebp)
 124:C:/Caleb/FIUNA/4to Semestre/POO/C++/Unidad12/Sobre\Fecha.cpp ****     return (this->dia==f.dia && this->mes==f.mes && this->anho==f.anho);
 1227              		.loc 3 124 0
 1228 0769 8B45FC   		movl	-4(%ebp), %eax
 1229 076c 8B5004   		movl	4(%eax), %edx
 1230 076f 8B4508   		movl	8(%ebp), %eax
 1231 0772 8B4004   		movl	4(%eax), %eax
 1232 0775 39C2     		cmpl	%eax, %edx
 1233 0777 7527     		jne	L77
 1234              		.loc 3 124 0 is_stmt 0 discriminator 1
 1235 0779 8B45FC   		movl	-4(%ebp), %eax
 1236 077c 8B5008   		movl	8(%eax), %edx
 1237 077f 8B4508   		movl	8(%ebp), %eax
 1238 0782 8B4008   		movl	8(%eax), %eax
 1239 0785 39C2     		cmpl	%eax, %edx
 1240 0787 7517     		jne	L77
 1241              		.loc 3 124 0 discriminator 3
 1242 0789 8B45FC   		movl	-4(%ebp), %eax
 1243 078c 8B500C   		movl	12(%eax), %edx
 1244 078f 8B4508   		movl	8(%ebp), %eax
 1245 0792 8B400C   		movl	12(%eax), %eax
 1246 0795 39C2     		cmpl	%eax, %edx
 1247 0797 7507     		jne	L77
 1248              		.loc 3 124 0 discriminator 5
 1249 0799 B8010000 		movl	$1, %eax
 1249      00
 1250 079e EB05     		jmp	L78
 1251              	L77:
 1252              		.loc 3 124 0 discriminator 6
 1253 07a0 B8000000 		movl	$0, %eax
 1253      00
 1254              	L78:
GAS LISTING C:\Users\USER\AppData\Local\Temp\ccFSuTGK.s 			page 29


 125:C:/Caleb/FIUNA/4to Semestre/POO/C++/Unidad12/Sobre\Fecha.cpp **** }
 1255              		.loc 3 125 0 is_stmt 1 discriminator 8
 1256 07a5 C9       		leave
 1257              		.cfi_restore 5
 1258              		.cfi_def_cfa 4, 4
 1259 07a6 C20400   		ret	$4
 1260              		.cfi_endproc
 1261              	LFE1083:
 1262              		.section .rdata,"dr"
 1263              	LC2:
 1264 0012 496E7472 		.ascii "Introduzca la fecha \0"
 1264      6F64757A 
 1264      6361206C 
 1264      61206665 
 1264      63686120 
 1265 0027 00       		.text
 1266              		.globl	__ZrsRSiR5Fecha
 1268              	__ZrsRSiR5Fecha:
 1269              	LFB1084:
 126:C:/Caleb/FIUNA/4to Semestre/POO/C++/Unidad12/Sobre\Fecha.cpp **** 
 127:C:/Caleb/FIUNA/4to Semestre/POO/C++/Unidad12/Sobre\Fecha.cpp **** istream& operator>>(istream &i,Fecha &f){
 1270              		.loc 3 127 0
 1271              		.cfi_startproc
 1272 07a9 55       		pushl	%ebp
 1273              		.cfi_def_cfa_offset 8
 1274              		.cfi_offset 5, -8
 1275 07aa 89E5     		movl	%esp, %ebp
 1276              		.cfi_def_cfa_register 5
 1277 07ac 53       		pushl	%ebx
 1278 07ad 83EC24   		subl	$36, %esp
 1279              		.cfi_offset 3, -12
 128:C:/Caleb/FIUNA/4to Semestre/POO/C++/Unidad12/Sobre\Fecha.cpp ****     int dd,mm,yy;
 129:C:/Caleb/FIUNA/4to Semestre/POO/C++/Unidad12/Sobre\Fecha.cpp ****     cout<<"Introduzca la fecha "<<endl;
 1280              		.loc 3 129 0
 1281 07b0 C7442404 		movl	$LC2, 4(%esp)
 1281      12000000 
 1282 07b8 C7042400 		movl	$__ZSt4cout, (%esp)
 1282      000000
 1283 07bf E8000000 		call	__ZStlsISt11char_traitsIcEERSt13basic_ostreamIcT_ES5_PKc
 1283      00
 1284 07c4 C7042400 		movl	$__ZSt4endlIcSt11char_traitsIcEERSt13basic_ostreamIT_T0_ES6_, (%esp)
 1284      000000
 1285 07cb 89C1     		movl	%eax, %ecx
 1286 07cd E8000000 		call	__ZNSolsEPFRSoS_E
 1286      00
 1287 07d2 83EC04   		subl	$4, %esp
 130:C:/Caleb/FIUNA/4to Semestre/POO/C++/Unidad12/Sobre\Fecha.cpp ****     i>>dd>>mm>>yy;
 1288              		.loc 3 130 0
 1289 07d5 8D45F4   		leal	-12(%ebp), %eax
 1290 07d8 890424   		movl	%eax, (%esp)
 1291 07db 8B4D08   		movl	8(%ebp), %ecx
 1292 07de E8000000 		call	__ZNSirsERi
 1292      00
 1293 07e3 83EC04   		subl	$4, %esp
 1294 07e6 89C2     		movl	%eax, %edx
 1295 07e8 8D45F0   		leal	-16(%ebp), %eax
 1296 07eb 890424   		movl	%eax, (%esp)
GAS LISTING C:\Users\USER\AppData\Local\Temp\ccFSuTGK.s 			page 30


 1297 07ee 89D1     		movl	%edx, %ecx
 1298 07f0 E8000000 		call	__ZNSirsERi
 1298      00
 1299 07f5 83EC04   		subl	$4, %esp
 1300 07f8 89C2     		movl	%eax, %edx
 1301 07fa 8D45EC   		leal	-20(%ebp), %eax
 1302 07fd 890424   		movl	%eax, (%esp)
 1303 0800 89D1     		movl	%edx, %ecx
 1304 0802 E8000000 		call	__ZNSirsERi
 1304      00
 1305 0807 83EC04   		subl	$4, %esp
 131:C:/Caleb/FIUNA/4to Semestre/POO/C++/Unidad12/Sobre\Fecha.cpp ****     f.establecerFecha(dd,mm,yy);
 1306              		.loc 3 131 0
 1307 080a 8B5DEC   		movl	-20(%ebp), %ebx
 1308 080d 8B4DF0   		movl	-16(%ebp), %ecx
 1309 0810 8B55F4   		movl	-12(%ebp), %edx
 1310 0813 8B450C   		movl	12(%ebp), %eax
 1311 0816 895C2408 		movl	%ebx, 8(%esp)
 1312 081a 894C2404 		movl	%ecx, 4(%esp)
 1313 081e 891424   		movl	%edx, (%esp)
 1314 0821 89C1     		movl	%eax, %ecx
 1315 0823 E88AF9FF 		call	__ZN5Fecha15establecerFechaEiii
 1315      FF
 1316 0828 83EC0C   		subl	$12, %esp
 132:C:/Caleb/FIUNA/4to Semestre/POO/C++/Unidad12/Sobre\Fecha.cpp ****     return i;
 1317              		.loc 3 132 0
 1318 082b 8B4508   		movl	8(%ebp), %eax
 133:C:/Caleb/FIUNA/4to Semestre/POO/C++/Unidad12/Sobre\Fecha.cpp **** }
 1319              		.loc 3 133 0
 1320 082e 8B5DFC   		movl	-4(%ebp), %ebx
 1321 0831 C9       		leave
 1322              		.cfi_restore 5
 1323              		.cfi_restore 3
 1324              		.cfi_def_cfa 4, 4
 1325 0832 C3       		ret
 1326              		.cfi_endproc
 1327              	LFE1084:
 1328              		.globl	__ZlsRSo5Fecha
 1330              	__ZlsRSo5Fecha:
 1331              	LFB1085:
 134:C:/Caleb/FIUNA/4to Semestre/POO/C++/Unidad12/Sobre\Fecha.cpp **** 
 135:C:/Caleb/FIUNA/4to Semestre/POO/C++/Unidad12/Sobre\Fecha.cpp **** ostream& operator << (ostream& os,Fecha f){
 1332              		.loc 3 135 0
 1333              		.cfi_startproc
 1334              		.cfi_personality 0,___gxx_personality_sj0
 1335              		.cfi_lsda 0,LLSDA1085
 1336 0833 55       		pushl	%ebp
 1337              		.cfi_def_cfa_offset 8
 1338              		.cfi_offset 5, -8
 1339 0834 89E5     		movl	%esp, %ebp
 1340              		.cfi_def_cfa_register 5
 1341 0836 57       		pushl	%edi
 1342 0837 56       		pushl	%esi
 1343 0838 53       		pushl	%ebx
 1344 0839 83EC7C   		subl	$124, %esp
 1345              		.cfi_offset 7, -12
 1346              		.cfi_offset 6, -16
GAS LISTING C:\Users\USER\AppData\Local\Temp\ccFSuTGK.s 			page 31


 1347              		.cfi_offset 3, -20
 1348 083c C745AC00 		movl	$___gxx_personality_sj0, -84(%ebp)
 1348      000000
 1349 0843 C745B02C 		movl	$LLSDA1085, -80(%ebp)
 1349      000000
 1350 084a 8D45B4   		leal	-76(%ebp), %eax
 1351 084d 8D5DE8   		leal	-24(%ebp), %ebx
 1352 0850 8918     		movl	%ebx, (%eax)
 1353 0852 BAB40800 		movl	$L85, %edx
 1353      00
 1354 0857 895004   		movl	%edx, 4(%eax)
 1355 085a 896008   		movl	%esp, 8(%eax)
 1356 085d 8D4594   		leal	-108(%ebp), %eax
 1357 0860 890424   		movl	%eax, (%esp)
 1358 0863 E8000000 		call	__Unwind_SjLj_Register
 1358      00
 136:C:/Caleb/FIUNA/4to Semestre/POO/C++/Unidad12/Sobre\Fecha.cpp ****     os<<f.getFecha();
 1359              		.loc 3 136 0
 1360 0868 8D45D0   		leal	-48(%ebp), %eax
 1361 086b 8B550C   		movl	12(%ebp), %edx
 1362 086e 891424   		movl	%edx, (%esp)
 1363 0871 C74598FF 		movl	$-1, -104(%ebp)
 1363      FFFFFF
 1364 0878 89C1     		movl	%eax, %ecx
 1365 087a E8F3FCFF 		call	__ZNK5Fecha8getFechaB5cxx11Ev
 1365      FF
 1366 087f 83EC04   		subl	$4, %esp
 1367 0882 8D45D0   		leal	-48(%ebp), %eax
 1368 0885 89442404 		movl	%eax, 4(%esp)
 1369 0889 8B4508   		movl	8(%ebp), %eax
 1370 088c 890424   		movl	%eax, (%esp)
 1371 088f C7459801 		movl	$1, -104(%ebp)
 1371      000000
 1372 0896 E8000000 		call	__ZStlsIcSt11char_traitsIcESaIcEERSt13basic_ostreamIT_T0_ES7_RKNSt7__cxx1112basic_stringIS4_S
 1372      00
 1373              		.loc 3 136 0 is_stmt 0 discriminator 2
 1374 089b 8D45D0   		leal	-48(%ebp), %eax
 1375 089e C74598FF 		movl	$-1, -104(%ebp)
 1375      FFFFFF
 1376 08a5 89C1     		movl	%eax, %ecx
 1377 08a7 E8000000 		call	__ZNSt7__cxx1112basic_stringIcSt11char_traitsIcESaIcEED1Ev
 1377      00
 137:C:/Caleb/FIUNA/4to Semestre/POO/C++/Unidad12/Sobre\Fecha.cpp ****     return os;
 1378              		.loc 3 137 0 is_stmt 1 discriminator 2
 1379 08ac 8B4508   		movl	8(%ebp), %eax
 1380 08af 894590   		movl	%eax, -112(%ebp)
 1381 08b2 EB2C     		jmp	L87
 1382              	L85:
 1383 08b4 8D6D18   		leal	24(%ebp), %ebp
 1384 08b7 8B459C   		movl	-100(%ebp), %eax
 1385 08ba 894590   		movl	%eax, -112(%ebp)
 136:C:/Caleb/FIUNA/4to Semestre/POO/C++/Unidad12/Sobre\Fecha.cpp ****     os<<f.getFecha();
 1386              		.loc 3 136 0
 1387 08bd 8D45D0   		leal	-48(%ebp), %eax
 1388 08c0 C7459800 		movl	$0, -104(%ebp)
 1388      000000
 1389 08c7 89C1     		movl	%eax, %ecx
GAS LISTING C:\Users\USER\AppData\Local\Temp\ccFSuTGK.s 			page 32


 1390 08c9 E8000000 		call	__ZNSt7__cxx1112basic_stringIcSt11char_traitsIcESaIcEED1Ev
 1390      00
 1391 08ce 8B4590   		movl	-112(%ebp), %eax
 1392 08d1 890424   		movl	%eax, (%esp)
 1393 08d4 C74598FF 		movl	$-1, -104(%ebp)
 1393      FFFFFF
 1394 08db E8000000 		call	__Unwind_SjLj_Resume
 1394      00
 1395              	L87:
 1396 08e0 8D4594   		leal	-108(%ebp), %eax
 1397 08e3 890424   		movl	%eax, (%esp)
 1398 08e6 E8000000 		call	__Unwind_SjLj_Unregister
 1398      00
 138:C:/Caleb/FIUNA/4to Semestre/POO/C++/Unidad12/Sobre\Fecha.cpp **** }
 1399              		.loc 3 138 0
 1400 08eb 8B4590   		movl	-112(%ebp), %eax
 1401 08ee 8D65F4   		leal	-12(%ebp), %esp
 1402 08f1 5B       		popl	%ebx
 1403              		.cfi_restore 3
 1404 08f2 5E       		popl	%esi
 1405              		.cfi_restore 6
 1406 08f3 5F       		popl	%edi
 1407              		.cfi_restore 7
 1408 08f4 5D       		popl	%ebp
 1409              		.cfi_restore 5
 1410              		.cfi_def_cfa 4, 4
 1411 08f5 C3       		ret
 1412              		.cfi_endproc
 1413              	LFE1085:
 1414              		.section	.gcc_except_table,"w"
 1415              	LLSDA1085:
 1416 002c FF       		.byte	0xff
 1417 002d FF       		.byte	0xff
 1418 002e 01       		.byte	0x1
 1419 002f 02       		.uleb128 LLSDACSE1085-LLSDACSB1085
 1420              	LLSDACSB1085:
 1421 0030 00       		.uleb128 0
 1422 0031 00       		.uleb128 0
 1423              	LLSDACSE1085:
 1424 0032 0000     		.text
 1425              		.align 2
 1426              		.globl	__ZN5FechagtERKS_
 1428              	__ZN5FechagtERKS_:
 1429              	LFB1086:
 139:C:/Caleb/FIUNA/4to Semestre/POO/C++/Unidad12/Sobre\Fecha.cpp **** 
 140:C:/Caleb/FIUNA/4to Semestre/POO/C++/Unidad12/Sobre\Fecha.cpp **** bool Fecha::operator>(const Fecha& f)
 141:C:/Caleb/FIUNA/4to Semestre/POO/C++/Unidad12/Sobre\Fecha.cpp **** {
 1430              		.loc 3 141 0
 1431              		.cfi_startproc
 1432 08f6 55       		pushl	%ebp
 1433              		.cfi_def_cfa_offset 8
 1434              		.cfi_offset 5, -8
 1435 08f7 89E5     		movl	%esp, %ebp
 1436              		.cfi_def_cfa_register 5
 1437 08f9 83EC04   		subl	$4, %esp
 1438 08fc 894DFC   		movl	%ecx, -4(%ebp)
 142:C:/Caleb/FIUNA/4to Semestre/POO/C++/Unidad12/Sobre\Fecha.cpp ****     if(this->anho > f.anho)
GAS LISTING C:\Users\USER\AppData\Local\Temp\ccFSuTGK.s 			page 33


 1439              		.loc 3 142 0
 1440 08ff 8B45FC   		movl	-4(%ebp), %eax
 1441 0902 8B500C   		movl	12(%eax), %edx
 1442 0905 8B4508   		movl	8(%ebp), %eax
 1443 0908 8B400C   		movl	12(%eax), %eax
 1444 090b 39C2     		cmpl	%eax, %edx
 1445 090d 7E07     		jle	L89
 143:C:/Caleb/FIUNA/4to Semestre/POO/C++/Unidad12/Sobre\Fecha.cpp ****         return true;
 1446              		.loc 3 143 0
 1447 090f B8010000 		movl	$1, %eax
 1447      00
 1448 0914 EB63     		jmp	L90
 1449              	L89:
 144:C:/Caleb/FIUNA/4to Semestre/POO/C++/Unidad12/Sobre\Fecha.cpp ****     else if (this->anho == f.anho && this->mes > f.mes)
 1450              		.loc 3 144 0
 1451 0916 8B45FC   		movl	-4(%ebp), %eax
 1452 0919 8B500C   		movl	12(%eax), %edx
 1453 091c 8B4508   		movl	8(%ebp), %eax
 1454 091f 8B400C   		movl	12(%eax), %eax
 1455 0922 39C2     		cmpl	%eax, %edx
 1456 0924 7517     		jne	L91
 1457              		.loc 3 144 0 is_stmt 0 discriminator 1
 1458 0926 8B45FC   		movl	-4(%ebp), %eax
 1459 0929 8B5008   		movl	8(%eax), %edx
 1460 092c 8B4508   		movl	8(%ebp), %eax
 1461 092f 8B4008   		movl	8(%eax), %eax
 1462 0932 39C2     		cmpl	%eax, %edx
 1463 0934 7E07     		jle	L91
 145:C:/Caleb/FIUNA/4to Semestre/POO/C++/Unidad12/Sobre\Fecha.cpp ****         return true;
 1464              		.loc 3 145 0 is_stmt 1
 1465 0936 B8010000 		movl	$1, %eax
 1465      00
 1466 093b EB3C     		jmp	L90
 1467              	L91:
 146:C:/Caleb/FIUNA/4to Semestre/POO/C++/Unidad12/Sobre\Fecha.cpp ****     else if (this->anho == f.anho && this->mes == f.mes
 1468              		.loc 3 146 0
 1469 093d 8B45FC   		movl	-4(%ebp), %eax
 1470 0940 8B500C   		movl	12(%eax), %edx
 1471 0943 8B4508   		movl	8(%ebp), %eax
 1472 0946 8B400C   		movl	12(%eax), %eax
 1473 0949 39C2     		cmpl	%eax, %edx
 1474 094b 7527     		jne	L92
 1475              		.loc 3 146 0 is_stmt 0 discriminator 1
 1476 094d 8B45FC   		movl	-4(%ebp), %eax
 1477 0950 8B5008   		movl	8(%eax), %edx
 1478 0953 8B4508   		movl	8(%ebp), %eax
 1479 0956 8B4008   		movl	8(%eax), %eax
 1480 0959 39C2     		cmpl	%eax, %edx
 1481 095b 7517     		jne	L92
 147:C:/Caleb/FIUNA/4to Semestre/POO/C++/Unidad12/Sobre\Fecha.cpp ****              && this->dia > f.dia)
 1482              		.loc 3 147 0 is_stmt 1
 1483 095d 8B45FC   		movl	-4(%ebp), %eax
 1484 0960 8B5004   		movl	4(%eax), %edx
 1485 0963 8B4508   		movl	8(%ebp), %eax
 1486 0966 8B4004   		movl	4(%eax), %eax
 1487 0969 39C2     		cmpl	%eax, %edx
 1488 096b 7E07     		jle	L92
GAS LISTING C:\Users\USER\AppData\Local\Temp\ccFSuTGK.s 			page 34


 148:C:/Caleb/FIUNA/4to Semestre/POO/C++/Unidad12/Sobre\Fecha.cpp ****         return true;
 1489              		.loc 3 148 0
 1490 096d B8010000 		movl	$1, %eax
 1490      00
 1491 0972 EB05     		jmp	L90
 1492              	L92:
 149:C:/Caleb/FIUNA/4to Semestre/POO/C++/Unidad12/Sobre\Fecha.cpp ****     else return false;
 1493              		.loc 3 149 0
 1494 0974 B8000000 		movl	$0, %eax
 1494      00
 1495              	L90:
 150:C:/Caleb/FIUNA/4to Semestre/POO/C++/Unidad12/Sobre\Fecha.cpp **** }
 1496              		.loc 3 150 0
 1497 0979 C9       		leave
 1498              		.cfi_restore 5
 1499              		.cfi_def_cfa 4, 4
 1500 097a C20400   		ret	$4
 1501              		.cfi_endproc
 1502              	LFE1086:
 1503 097d 90       		.align 2
 1504              		.globl	__ZN5FechaltERKS_
 1506              	__ZN5FechaltERKS_:
 1507              	LFB1087:
 151:C:/Caleb/FIUNA/4to Semestre/POO/C++/Unidad12/Sobre\Fecha.cpp **** bool Fecha::operator<(const Fecha& f)
 152:C:/Caleb/FIUNA/4to Semestre/POO/C++/Unidad12/Sobre\Fecha.cpp **** {
 1508              		.loc 3 152 0
 1509              		.cfi_startproc
 1510 097e 55       		pushl	%ebp
 1511              		.cfi_def_cfa_offset 8
 1512              		.cfi_offset 5, -8
 1513 097f 89E5     		movl	%esp, %ebp
 1514              		.cfi_def_cfa_register 5
 1515 0981 83EC04   		subl	$4, %esp
 1516 0984 894DFC   		movl	%ecx, -4(%ebp)
 153:C:/Caleb/FIUNA/4to Semestre/POO/C++/Unidad12/Sobre\Fecha.cpp ****     if(this->anho < f.anho)
 1517              		.loc 3 153 0
 1518 0987 8B45FC   		movl	-4(%ebp), %eax
 1519 098a 8B500C   		movl	12(%eax), %edx
 1520 098d 8B4508   		movl	8(%ebp), %eax
 1521 0990 8B400C   		movl	12(%eax), %eax
 1522 0993 39C2     		cmpl	%eax, %edx
 1523 0995 7D07     		jge	L94
 154:C:/Caleb/FIUNA/4to Semestre/POO/C++/Unidad12/Sobre\Fecha.cpp ****         return true;
 1524              		.loc 3 154 0
 1525 0997 B8010000 		movl	$1, %eax
 1525      00
 1526 099c EB63     		jmp	L95
 1527              	L94:
 155:C:/Caleb/FIUNA/4to Semestre/POO/C++/Unidad12/Sobre\Fecha.cpp ****     else if (this->anho == f.anho && this->mes < f.mes)
 1528              		.loc 3 155 0
 1529 099e 8B45FC   		movl	-4(%ebp), %eax
 1530 09a1 8B500C   		movl	12(%eax), %edx
 1531 09a4 8B4508   		movl	8(%ebp), %eax
 1532 09a7 8B400C   		movl	12(%eax), %eax
 1533 09aa 39C2     		cmpl	%eax, %edx
 1534 09ac 7517     		jne	L96
 1535              		.loc 3 155 0 is_stmt 0 discriminator 1
GAS LISTING C:\Users\USER\AppData\Local\Temp\ccFSuTGK.s 			page 35


 1536 09ae 8B45FC   		movl	-4(%ebp), %eax
 1537 09b1 8B5008   		movl	8(%eax), %edx
 1538 09b4 8B4508   		movl	8(%ebp), %eax
 1539 09b7 8B4008   		movl	8(%eax), %eax
 1540 09ba 39C2     		cmpl	%eax, %edx
 1541 09bc 7D07     		jge	L96
 156:C:/Caleb/FIUNA/4to Semestre/POO/C++/Unidad12/Sobre\Fecha.cpp ****         return true;
 1542              		.loc 3 156 0 is_stmt 1
 1543 09be B8010000 		movl	$1, %eax
 1543      00
 1544 09c3 EB3C     		jmp	L95
 1545              	L96:
 157:C:/Caleb/FIUNA/4to Semestre/POO/C++/Unidad12/Sobre\Fecha.cpp ****     else if (this->anho == f.anho && this->mes == f.mes
 1546              		.loc 3 157 0
 1547 09c5 8B45FC   		movl	-4(%ebp), %eax
 1548 09c8 8B500C   		movl	12(%eax), %edx
 1549 09cb 8B4508   		movl	8(%ebp), %eax
 1550 09ce 8B400C   		movl	12(%eax), %eax
 1551 09d1 39C2     		cmpl	%eax, %edx
 1552 09d3 7527     		jne	L97
 1553              		.loc 3 157 0 is_stmt 0 discriminator 1
 1554 09d5 8B45FC   		movl	-4(%ebp), %eax
 1555 09d8 8B5008   		movl	8(%eax), %edx
 1556 09db 8B4508   		movl	8(%ebp), %eax
 1557 09de 8B4008   		movl	8(%eax), %eax
 1558 09e1 39C2     		cmpl	%eax, %edx
 1559 09e3 7517     		jne	L97
 158:C:/Caleb/FIUNA/4to Semestre/POO/C++/Unidad12/Sobre\Fecha.cpp ****              && this->dia < f.dia)
 1560              		.loc 3 158 0 is_stmt 1
 1561 09e5 8B45FC   		movl	-4(%ebp), %eax
 1562 09e8 8B5004   		movl	4(%eax), %edx
 1563 09eb 8B4508   		movl	8(%ebp), %eax
 1564 09ee 8B4004   		movl	4(%eax), %eax
 1565 09f1 39C2     		cmpl	%eax, %edx
 1566 09f3 7D07     		jge	L97
 159:C:/Caleb/FIUNA/4to Semestre/POO/C++/Unidad12/Sobre\Fecha.cpp ****         return true;
 1567              		.loc 3 159 0
 1568 09f5 B8010000 		movl	$1, %eax
 1568      00
 1569 09fa EB05     		jmp	L95
 1570              	L97:
 160:C:/Caleb/FIUNA/4to Semestre/POO/C++/Unidad12/Sobre\Fecha.cpp ****     else return false;
 1571              		.loc 3 160 0
 1572 09fc B8000000 		movl	$0, %eax
 1572      00
 1573              	L95:
 161:C:/Caleb/FIUNA/4to Semestre/POO/C++/Unidad12/Sobre\Fecha.cpp **** }
 1574              		.loc 3 161 0
 1575 0a01 C9       		leave
 1576              		.cfi_restore 5
 1577              		.cfi_def_cfa 4, 4
 1578 0a02 C20400   		ret	$4
 1579              		.cfi_endproc
 1580              	LFE1087:
 1581 0a05 90       		.align 2
 1582              		.globl	__ZN5FechageERKS_
 1584              	__ZN5FechageERKS_:
GAS LISTING C:\Users\USER\AppData\Local\Temp\ccFSuTGK.s 			page 36


 1585              	LFB1088:
 162:C:/Caleb/FIUNA/4to Semestre/POO/C++/Unidad12/Sobre\Fecha.cpp **** bool Fecha::operator>=(const Fecha& f)
 163:C:/Caleb/FIUNA/4to Semestre/POO/C++/Unidad12/Sobre\Fecha.cpp **** {
 1586              		.loc 3 163 0
 1587              		.cfi_startproc
 1588 0a06 55       		pushl	%ebp
 1589              		.cfi_def_cfa_offset 8
 1590              		.cfi_offset 5, -8
 1591 0a07 89E5     		movl	%esp, %ebp
 1592              		.cfi_def_cfa_register 5
 1593 0a09 83EC04   		subl	$4, %esp
 1594 0a0c 894DFC   		movl	%ecx, -4(%ebp)
 164:C:/Caleb/FIUNA/4to Semestre/POO/C++/Unidad12/Sobre\Fecha.cpp ****     if(this->anho > f.anho)
 1595              		.loc 3 164 0
 1596 0a0f 8B45FC   		movl	-4(%ebp), %eax
 1597 0a12 8B500C   		movl	12(%eax), %edx
 1598 0a15 8B4508   		movl	8(%ebp), %eax
 1599 0a18 8B400C   		movl	12(%eax), %eax
 1600 0a1b 39C2     		cmpl	%eax, %edx
 1601 0a1d 7E07     		jle	L99
 165:C:/Caleb/FIUNA/4to Semestre/POO/C++/Unidad12/Sobre\Fecha.cpp ****         return true;
 1602              		.loc 3 165 0
 1603 0a1f B8010000 		movl	$1, %eax
 1603      00
 1604 0a24 EB63     		jmp	L100
 1605              	L99:
 166:C:/Caleb/FIUNA/4to Semestre/POO/C++/Unidad12/Sobre\Fecha.cpp ****     else if (this->anho == f.anho && this->mes > f.mes)
 1606              		.loc 3 166 0
 1607 0a26 8B45FC   		movl	-4(%ebp), %eax
 1608 0a29 8B500C   		movl	12(%eax), %edx
 1609 0a2c 8B4508   		movl	8(%ebp), %eax
 1610 0a2f 8B400C   		movl	12(%eax), %eax
 1611 0a32 39C2     		cmpl	%eax, %edx
 1612 0a34 7517     		jne	L101
 1613              		.loc 3 166 0 is_stmt 0 discriminator 1
 1614 0a36 8B45FC   		movl	-4(%ebp), %eax
 1615 0a39 8B5008   		movl	8(%eax), %edx
 1616 0a3c 8B4508   		movl	8(%ebp), %eax
 1617 0a3f 8B4008   		movl	8(%eax), %eax
 1618 0a42 39C2     		cmpl	%eax, %edx
 1619 0a44 7E07     		jle	L101
 167:C:/Caleb/FIUNA/4to Semestre/POO/C++/Unidad12/Sobre\Fecha.cpp ****         return true;
 1620              		.loc 3 167 0 is_stmt 1
 1621 0a46 B8010000 		movl	$1, %eax
 1621      00
 1622 0a4b EB3C     		jmp	L100
 1623              	L101:
 168:C:/Caleb/FIUNA/4to Semestre/POO/C++/Unidad12/Sobre\Fecha.cpp ****     else if (this->anho == f.anho && this->mes == f.mes
 1624              		.loc 3 168 0
 1625 0a4d 8B45FC   		movl	-4(%ebp), %eax
 1626 0a50 8B500C   		movl	12(%eax), %edx
 1627 0a53 8B4508   		movl	8(%ebp), %eax
 1628 0a56 8B400C   		movl	12(%eax), %eax
 1629 0a59 39C2     		cmpl	%eax, %edx
 1630 0a5b 7527     		jne	L102
 1631              		.loc 3 168 0 is_stmt 0 discriminator 1
 1632 0a5d 8B45FC   		movl	-4(%ebp), %eax
GAS LISTING C:\Users\USER\AppData\Local\Temp\ccFSuTGK.s 			page 37


 1633 0a60 8B5008   		movl	8(%eax), %edx
 1634 0a63 8B4508   		movl	8(%ebp), %eax
 1635 0a66 8B4008   		movl	8(%eax), %eax
 1636 0a69 39C2     		cmpl	%eax, %edx
 1637 0a6b 7517     		jne	L102
 169:C:/Caleb/FIUNA/4to Semestre/POO/C++/Unidad12/Sobre\Fecha.cpp ****              && this->dia >= f.dia)
 1638              		.loc 3 169 0 is_stmt 1
 1639 0a6d 8B45FC   		movl	-4(%ebp), %eax
 1640 0a70 8B5004   		movl	4(%eax), %edx
 1641 0a73 8B4508   		movl	8(%ebp), %eax
 1642 0a76 8B4004   		movl	4(%eax), %eax
 1643 0a79 39C2     		cmpl	%eax, %edx
 1644 0a7b 7C07     		jl	L102
 170:C:/Caleb/FIUNA/4to Semestre/POO/C++/Unidad12/Sobre\Fecha.cpp ****         return true;
 1645              		.loc 3 170 0
 1646 0a7d B8010000 		movl	$1, %eax
 1646      00
 1647 0a82 EB05     		jmp	L100
 1648              	L102:
 171:C:/Caleb/FIUNA/4to Semestre/POO/C++/Unidad12/Sobre\Fecha.cpp ****     else return false;
 1649              		.loc 3 171 0
 1650 0a84 B8000000 		movl	$0, %eax
 1650      00
 1651              	L100:
 172:C:/Caleb/FIUNA/4to Semestre/POO/C++/Unidad12/Sobre\Fecha.cpp **** }
 1652              		.loc 3 172 0
 1653 0a89 C9       		leave
 1654              		.cfi_restore 5
 1655              		.cfi_def_cfa 4, 4
 1656 0a8a C20400   		ret	$4
 1657              		.cfi_endproc
 1658              	LFE1088:
 1659 0a8d 90       		.align 2
 1660              		.globl	__ZN5FechaleERKS_
 1662              	__ZN5FechaleERKS_:
 1663              	LFB1089:
 173:C:/Caleb/FIUNA/4to Semestre/POO/C++/Unidad12/Sobre\Fecha.cpp **** bool Fecha::operator<=(const Fecha& f)
 174:C:/Caleb/FIUNA/4to Semestre/POO/C++/Unidad12/Sobre\Fecha.cpp **** {
 1664              		.loc 3 174 0
 1665              		.cfi_startproc
 1666 0a8e 55       		pushl	%ebp
 1667              		.cfi_def_cfa_offset 8
 1668              		.cfi_offset 5, -8
 1669 0a8f 89E5     		movl	%esp, %ebp
 1670              		.cfi_def_cfa_register 5
 1671 0a91 83EC04   		subl	$4, %esp
 1672 0a94 894DFC   		movl	%ecx, -4(%ebp)
 175:C:/Caleb/FIUNA/4to Semestre/POO/C++/Unidad12/Sobre\Fecha.cpp ****     if(this->anho < f.anho)
 1673              		.loc 3 175 0
 1674 0a97 8B45FC   		movl	-4(%ebp), %eax
 1675 0a9a 8B500C   		movl	12(%eax), %edx
 1676 0a9d 8B4508   		movl	8(%ebp), %eax
 1677 0aa0 8B400C   		movl	12(%eax), %eax
 1678 0aa3 39C2     		cmpl	%eax, %edx
 1679 0aa5 7D07     		jge	L104
 176:C:/Caleb/FIUNA/4to Semestre/POO/C++/Unidad12/Sobre\Fecha.cpp ****         return true;
 1680              		.loc 3 176 0
GAS LISTING C:\Users\USER\AppData\Local\Temp\ccFSuTGK.s 			page 38


 1681 0aa7 B8010000 		movl	$1, %eax
 1681      00
 1682 0aac EB63     		jmp	L105
 1683              	L104:
 177:C:/Caleb/FIUNA/4to Semestre/POO/C++/Unidad12/Sobre\Fecha.cpp ****     else if (this->anho == f.anho && this->mes < f.mes)
 1684              		.loc 3 177 0
 1685 0aae 8B45FC   		movl	-4(%ebp), %eax
 1686 0ab1 8B500C   		movl	12(%eax), %edx
 1687 0ab4 8B4508   		movl	8(%ebp), %eax
 1688 0ab7 8B400C   		movl	12(%eax), %eax
 1689 0aba 39C2     		cmpl	%eax, %edx
 1690 0abc 7517     		jne	L106
 1691              		.loc 3 177 0 is_stmt 0 discriminator 1
 1692 0abe 8B45FC   		movl	-4(%ebp), %eax
 1693 0ac1 8B5008   		movl	8(%eax), %edx
 1694 0ac4 8B4508   		movl	8(%ebp), %eax
 1695 0ac7 8B4008   		movl	8(%eax), %eax
 1696 0aca 39C2     		cmpl	%eax, %edx
 1697 0acc 7D07     		jge	L106
 178:C:/Caleb/FIUNA/4to Semestre/POO/C++/Unidad12/Sobre\Fecha.cpp ****         return true;
 1698              		.loc 3 178 0 is_stmt 1
 1699 0ace B8010000 		movl	$1, %eax
 1699      00
 1700 0ad3 EB3C     		jmp	L105
 1701              	L106:
 179:C:/Caleb/FIUNA/4to Semestre/POO/C++/Unidad12/Sobre\Fecha.cpp ****     else if (this->anho == f.anho && this->mes == f.mes
 1702              		.loc 3 179 0
 1703 0ad5 8B45FC   		movl	-4(%ebp), %eax
 1704 0ad8 8B500C   		movl	12(%eax), %edx
 1705 0adb 8B4508   		movl	8(%ebp), %eax
 1706 0ade 8B400C   		movl	12(%eax), %eax
 1707 0ae1 39C2     		cmpl	%eax, %edx
 1708 0ae3 7527     		jne	L107
 1709              		.loc 3 179 0 is_stmt 0 discriminator 1
 1710 0ae5 8B45FC   		movl	-4(%ebp), %eax
 1711 0ae8 8B5008   		movl	8(%eax), %edx
 1712 0aeb 8B4508   		movl	8(%ebp), %eax
 1713 0aee 8B4008   		movl	8(%eax), %eax
 1714 0af1 39C2     		cmpl	%eax, %edx
 1715 0af3 7517     		jne	L107
 180:C:/Caleb/FIUNA/4to Semestre/POO/C++/Unidad12/Sobre\Fecha.cpp ****              && this->dia <= f.dia)
 1716              		.loc 3 180 0 is_stmt 1
 1717 0af5 8B45FC   		movl	-4(%ebp), %eax
 1718 0af8 8B5004   		movl	4(%eax), %edx
 1719 0afb 8B4508   		movl	8(%ebp), %eax
 1720 0afe 8B4004   		movl	4(%eax), %eax
 1721 0b01 39C2     		cmpl	%eax, %edx
 1722 0b03 7F07     		jg	L107
 181:C:/Caleb/FIUNA/4to Semestre/POO/C++/Unidad12/Sobre\Fecha.cpp ****         return true;
 1723              		.loc 3 181 0
 1724 0b05 B8010000 		movl	$1, %eax
 1724      00
 1725 0b0a EB05     		jmp	L105
 1726              	L107:
 182:C:/Caleb/FIUNA/4to Semestre/POO/C++/Unidad12/Sobre\Fecha.cpp ****     else return false;
 1727              		.loc 3 182 0
 1728 0b0c B8000000 		movl	$0, %eax
GAS LISTING C:\Users\USER\AppData\Local\Temp\ccFSuTGK.s 			page 39


 1728      00
 1729              	L105:
 183:C:/Caleb/FIUNA/4to Semestre/POO/C++/Unidad12/Sobre\Fecha.cpp **** }
 1730              		.loc 3 183 0
 1731 0b11 C9       		leave
 1732              		.cfi_restore 5
 1733              		.cfi_def_cfa 4, 4
 1734 0b12 C20400   		ret	$4
 1735              		.cfi_endproc
 1736              	LFE1089:
 1737 0b15 90       		.align 2
 1738              		.globl	__ZN5FechappEi
 1740              	__ZN5FechappEi:
 1741              	LFB1090:
 184:C:/Caleb/FIUNA/4to Semestre/POO/C++/Unidad12/Sobre\Fecha.cpp **** Fecha Fecha::operator++(int a)
 185:C:/Caleb/FIUNA/4to Semestre/POO/C++/Unidad12/Sobre\Fecha.cpp **** {
 1742              		.loc 3 185 0
 1743              		.cfi_startproc
 1744 0b16 55       		pushl	%ebp
 1745              		.cfi_def_cfa_offset 8
 1746              		.cfi_offset 5, -8
 1747 0b17 89E5     		movl	%esp, %ebp
 1748              		.cfi_def_cfa_register 5
 1749 0b19 83EC08   		subl	$8, %esp
 1750 0b1c 894DFC   		movl	%ecx, -4(%ebp)
 186:C:/Caleb/FIUNA/4to Semestre/POO/C++/Unidad12/Sobre\Fecha.cpp ****     Fecha aux = *this;
 1751              		.loc 3 186 0
 1752 0b1f 8B45FC   		movl	-4(%ebp), %eax
 1753 0b22 8B5508   		movl	8(%ebp), %edx
 1754 0b25 891424   		movl	%edx, (%esp)
 1755 0b28 89C1     		movl	%eax, %ecx
 1756 0b2a E8000000 		call	__ZN5FechaC1ERKS_
 1756      00
 1757 0b2f 83EC04   		subl	$4, %esp
 187:C:/Caleb/FIUNA/4to Semestre/POO/C++/Unidad12/Sobre\Fecha.cpp ****     this->aumentarDias();
 1758              		.loc 3 187 0
 1759 0b32 8B4D08   		movl	8(%ebp), %ecx
 1760 0b35 E8CAF8FF 		call	__ZN5Fecha12aumentarDiasEv
 1760      FF
 188:C:/Caleb/FIUNA/4to Semestre/POO/C++/Unidad12/Sobre\Fecha.cpp ****     return aux;
 1761              		.loc 3 188 0
 1762 0b3a 90       		nop
 189:C:/Caleb/FIUNA/4to Semestre/POO/C++/Unidad12/Sobre\Fecha.cpp **** }
 1763              		.loc 3 189 0
 1764 0b3b 8B45FC   		movl	-4(%ebp), %eax
 1765 0b3e C9       		leave
 1766              		.cfi_restore 5
 1767              		.cfi_def_cfa 4, 4
 1768 0b3f C20800   		ret	$8
 1769              		.cfi_endproc
 1770              	LFE1090:
 1771              		.align 2
 1772              		.globl	__ZN5FechappEv
 1774              	__ZN5FechappEv:
 1775              	LFB1091:
 190:C:/Caleb/FIUNA/4to Semestre/POO/C++/Unidad12/Sobre\Fecha.cpp **** Fecha& Fecha::operator++()
 191:C:/Caleb/FIUNA/4to Semestre/POO/C++/Unidad12/Sobre\Fecha.cpp **** {
GAS LISTING C:\Users\USER\AppData\Local\Temp\ccFSuTGK.s 			page 40


 1776              		.loc 3 191 0
 1777              		.cfi_startproc
 1778 0b42 55       		pushl	%ebp
 1779              		.cfi_def_cfa_offset 8
 1780              		.cfi_offset 5, -8
 1781 0b43 89E5     		movl	%esp, %ebp
 1782              		.cfi_def_cfa_register 5
 1783 0b45 83EC04   		subl	$4, %esp
 1784 0b48 894DFC   		movl	%ecx, -4(%ebp)
 192:C:/Caleb/FIUNA/4to Semestre/POO/C++/Unidad12/Sobre\Fecha.cpp ****     this->aumentarDias();
 1785              		.loc 3 192 0
 1786 0b4b 8B45FC   		movl	-4(%ebp), %eax
 1787 0b4e 89C1     		movl	%eax, %ecx
 1788 0b50 E8AFF8FF 		call	__ZN5Fecha12aumentarDiasEv
 1788      FF
 193:C:/Caleb/FIUNA/4to Semestre/POO/C++/Unidad12/Sobre\Fecha.cpp ****     return *this;
 1789              		.loc 3 193 0
 1790 0b55 8B45FC   		movl	-4(%ebp), %eax
 194:C:/Caleb/FIUNA/4to Semestre/POO/C++/Unidad12/Sobre\Fecha.cpp **** }
 1791              		.loc 3 194 0
 1792 0b58 C9       		leave
 1793              		.cfi_restore 5
 1794              		.cfi_def_cfa 4, 4
 1795 0b59 C3       		ret
 1796              		.cfi_endproc
 1797              	LFE1091:
 1798              		.align 2
 1799              		.globl	__ZN5FechapLEi
 1801              	__ZN5FechapLEi:
 1802              	LFB1092:
 195:C:/Caleb/FIUNA/4to Semestre/POO/C++/Unidad12/Sobre\Fecha.cpp **** 
 196:C:/Caleb/FIUNA/4to Semestre/POO/C++/Unidad12/Sobre\Fecha.cpp **** const Fecha& Fecha::operator+=(int d)
 197:C:/Caleb/FIUNA/4to Semestre/POO/C++/Unidad12/Sobre\Fecha.cpp **** {
 1803              		.loc 3 197 0
 1804              		.cfi_startproc
 1805 0b5a 55       		pushl	%ebp
 1806              		.cfi_def_cfa_offset 8
 1807              		.cfi_offset 5, -8
 1808 0b5b 89E5     		movl	%esp, %ebp
 1809              		.cfi_def_cfa_register 5
 1810 0b5d 83EC14   		subl	$20, %esp
 1811 0b60 894DEC   		movl	%ecx, -20(%ebp)
 1812              	LBB9:
 198:C:/Caleb/FIUNA/4to Semestre/POO/C++/Unidad12/Sobre\Fecha.cpp ****     for(int i=0;i<d;i++){
 1813              		.loc 3 198 0
 1814 0b63 C745FC00 		movl	$0, -4(%ebp)
 1814      000000
 1815              	L114:
 1816              		.loc 3 198 0 is_stmt 0 discriminator 3
 1817 0b6a 8B45FC   		movl	-4(%ebp), %eax
 1818 0b6d 3B4508   		cmpl	8(%ebp), %eax
 1819 0b70 7D10     		jge	L113
 199:C:/Caleb/FIUNA/4to Semestre/POO/C++/Unidad12/Sobre\Fecha.cpp ****         aumentarDias();
 1820              		.loc 3 199 0 is_stmt 1 discriminator 2
 1821 0b72 8B45EC   		movl	-20(%ebp), %eax
 1822 0b75 89C1     		movl	%eax, %ecx
 1823 0b77 E888F8FF 		call	__ZN5Fecha12aumentarDiasEv
GAS LISTING C:\Users\USER\AppData\Local\Temp\ccFSuTGK.s 			page 41


 1823      FF
 198:C:/Caleb/FIUNA/4to Semestre/POO/C++/Unidad12/Sobre\Fecha.cpp ****     for(int i=0;i<d;i++){
 1824              		.loc 3 198 0 discriminator 2
 1825 0b7c 8345FC01 		addl	$1, -4(%ebp)
 1826 0b80 EBE8     		jmp	L114
 1827              	L113:
 1828              	LBE9:
 200:C:/Caleb/FIUNA/4to Semestre/POO/C++/Unidad12/Sobre\Fecha.cpp ****     }
 201:C:/Caleb/FIUNA/4to Semestre/POO/C++/Unidad12/Sobre\Fecha.cpp ****     return *this;
 1829              		.loc 3 201 0
 1830 0b82 8B45EC   		movl	-20(%ebp), %eax
 202:C:/Caleb/FIUNA/4to Semestre/POO/C++/Unidad12/Sobre\Fecha.cpp **** }
 1831              		.loc 3 202 0
 1832 0b85 C9       		leave
 1833              		.cfi_restore 5
 1834              		.cfi_def_cfa 4, 4
 1835 0b86 C20400   		ret	$4
 1836              		.cfi_endproc
 1837              	LFE1092:
 1838              		.globl	__ZTV5Fecha
 1839              		.section	.rdata$_ZTV5Fecha,"dr"
 1840              		.linkonce same_size
 1841              		.align 4
 1842              	__ZTV5Fecha:
 1843 0000 00000000 		.long	0
 1844 0004 00000000 		.long	__ZTI5Fecha
 1845 0008 32010000 		.long	__ZN5FechaD1Ev
 1846 000c 5C010000 		.long	__ZN5FechaD0Ev
 1847              		.globl	__ZTV13FechaNoValida
 1848              		.section	.rdata$_ZTV13FechaNoValida,"dr"
 1849              		.linkonce same_size
 1850              		.align 4
 1851              	__ZTV13FechaNoValida:
 1852 0000 00000000 		.long	0
 1853 0004 00000000 		.long	__ZTI13FechaNoValida
 1854 0008 00000000 		.long	__ZN13FechaNoValidaD1Ev
 1855 000c 00000000 		.long	__ZN13FechaNoValidaD0Ev
 1856 0010 00000000 		.long	__ZNK13FechaNoValida4whatEv
 1857              		.section	.text$_ZN13FechaNoValidaD1Ev,"x"
 1858              		.linkonce discard
 1859              		.align 2
 1860              		.globl	__ZN13FechaNoValidaD1Ev
 1862              	__ZN13FechaNoValidaD1Ev:
 1863              	LFB1208:
   7:C:/Caleb/FIUNA/4to Semestre/POO/C++/Unidad12/Sobre\FechaNoValida.h **** {
 1864              		.loc 2 7 0
 1865              		.cfi_startproc
 1866 0000 55       		pushl	%ebp
 1867              		.cfi_def_cfa_offset 8
 1868              		.cfi_offset 5, -8
 1869 0001 89E5     		movl	%esp, %ebp
 1870              		.cfi_def_cfa_register 5
 1871 0003 83EC28   		subl	$40, %esp
 1872 0006 894DF4   		movl	%ecx, -12(%ebp)
 1873              	LBB10:
   7:C:/Caleb/FIUNA/4to Semestre/POO/C++/Unidad12/Sobre\FechaNoValida.h **** {
 1874              		.loc 2 7 0
GAS LISTING C:\Users\USER\AppData\Local\Temp\ccFSuTGK.s 			page 42


 1875 0009 BA080000 		movl	$__ZTV13FechaNoValida+8, %edx
 1875      00
 1876 000e 8B45F4   		movl	-12(%ebp), %eax
 1877 0011 8910     		movl	%edx, (%eax)
 1878 0013 8B45F4   		movl	-12(%ebp), %eax
 1879 0016 89C1     		movl	%eax, %ecx
 1880 0018 E8000000 		call	__ZNSt9exceptionD2Ev
 1880      00
 1881              	LBE10:
 1882 001d B8000000 		movl	$0, %eax
 1882      00
 1883 0022 85C0     		testl	%eax, %eax
 1884 0024 740B     		je	L116
   7:C:/Caleb/FIUNA/4to Semestre/POO/C++/Unidad12/Sobre\FechaNoValida.h **** {
 1885              		.loc 2 7 0 is_stmt 0 discriminator 2
 1886 0026 8B45F4   		movl	-12(%ebp), %eax
 1887 0029 890424   		movl	%eax, (%esp)
 1888 002c E8000000 		call	__ZdlPv
 1888      00
 1889              	L116:
   7:C:/Caleb/FIUNA/4to Semestre/POO/C++/Unidad12/Sobre\FechaNoValida.h **** {
 1890              		.loc 2 7 0
 1891 0031 C9       		leave
 1892              		.cfi_restore 5
 1893              		.cfi_def_cfa 4, 4
 1894 0032 C3       		ret
 1895              		.cfi_endproc
 1896              	LFE1208:
 1897 0033 90       		.section	.text$_ZN13FechaNoValidaD0Ev,"x"
 1898              		.linkonce discard
 1899              		.align 2
 1900              		.globl	__ZN13FechaNoValidaD0Ev
 1902              	__ZN13FechaNoValidaD0Ev:
 1903              	LFB1209:
   7:C:/Caleb/FIUNA/4to Semestre/POO/C++/Unidad12/Sobre\FechaNoValida.h **** {
 1904              		.loc 2 7 0 is_stmt 1
 1905              		.cfi_startproc
 1906 0000 55       		pushl	%ebp
 1907              		.cfi_def_cfa_offset 8
 1908              		.cfi_offset 5, -8
 1909 0001 89E5     		movl	%esp, %ebp
 1910              		.cfi_def_cfa_register 5
 1911 0003 83EC28   		subl	$40, %esp
 1912 0006 894DF4   		movl	%ecx, -12(%ebp)
   7:C:/Caleb/FIUNA/4to Semestre/POO/C++/Unidad12/Sobre\FechaNoValida.h **** {
 1913              		.loc 2 7 0
 1914 0009 8B45F4   		movl	-12(%ebp), %eax
 1915 000c 89C1     		movl	%eax, %ecx
 1916 000e E8000000 		call	__ZN13FechaNoValidaD1Ev
 1916      00
 1917 0013 8B45F4   		movl	-12(%ebp), %eax
 1918 0016 890424   		movl	%eax, (%esp)
 1919 0019 E8000000 		call	__ZdlPv
 1919      00
 1920 001e C9       		leave
 1921              		.cfi_restore 5
 1922              		.cfi_def_cfa 4, 4
GAS LISTING C:\Users\USER\AppData\Local\Temp\ccFSuTGK.s 			page 43


 1923 001f C3       		ret
 1924              		.cfi_endproc
 1925              	LFE1209:
 1926              		.globl	__ZTI5Fecha
 1927              		.section	.rdata$_ZTI5Fecha,"dr"
 1928              		.linkonce same_size
 1929              		.align 4
 1930              	__ZTI5Fecha:
 1931 0000 08000000 		.long	__ZTVN10__cxxabiv117__class_type_infoE+8
 1932 0004 00000000 		.long	__ZTS5Fecha
 1933              		.globl	__ZTS5Fecha
 1934              		.section	.rdata$_ZTS5Fecha,"dr"
 1935              		.linkonce same_size
 1936              		.align 4
 1937              	__ZTS5Fecha:
 1938 0000 35466563 		.ascii "5Fecha\0"
 1938      686100
 1939              		.globl	__ZTI13FechaNoValida
 1940 0007 00       		.section	.rdata$_ZTI13FechaNoValida,"dr"
 1941              		.linkonce same_size
 1942              		.align 4
 1943              	__ZTI13FechaNoValida:
 1944 0000 08000000 		.long	__ZTVN10__cxxabiv120__si_class_type_infoE+8
 1945 0004 00000000 		.long	__ZTS13FechaNoValida
 1946 0008 00000000 		.long	__ZTISt9exception
 1947              		.globl	__ZTS13FechaNoValida
 1948              		.section	.rdata$_ZTS13FechaNoValida,"dr"
 1949              		.linkonce same_size
 1950              		.align 4
 1951              	__ZTS13FechaNoValida:
 1952 0000 31334665 		.ascii "13FechaNoValida\0"
 1952      6368614E 
 1952      6F56616C 
 1952      69646100 
 1953              		.globl	__ZTISt9exception
 1954              		.section	.rdata$_ZTISt9exception,"dr"
 1955              		.linkonce same_size
 1956              		.align 4
 1957              	__ZTISt9exception:
 1958 0000 08000000 		.long	__ZTVN10__cxxabiv117__class_type_infoE+8
 1959 0004 00000000 		.long	__ZTSSt9exception
 1960              		.globl	__ZTSSt9exception
 1961              		.section	.rdata$_ZTSSt9exception,"dr"
 1962              		.linkonce same_size
 1963              		.align 4
 1964              	__ZTSSt9exception:
 1965 0000 53743965 		.ascii "St9exception\0"
 1965      78636570 
 1965      74696F6E 
 1965      00
 1966 000d 000000   		.text
 1968              	___tcf_0:
 1969              	LFB1211:
 1970              		.file 5 "C:/TDM-GCC-32/lib/gcc/mingw32/5.1.0/include/c++/iostream"
   1:C:/TDM-GCC-32/lib/gcc/mingw32/5.1.0/include/c++\iostream **** // Standard iostream objects -*- C++ -*-
   2:C:/TDM-GCC-32/lib/gcc/mingw32/5.1.0/include/c++\iostream **** 
   3:C:/TDM-GCC-32/lib/gcc/mingw32/5.1.0/include/c++\iostream **** // Copyright (C) 1997-2015 Free Software Foundation, Inc.
GAS LISTING C:\Users\USER\AppData\Local\Temp\ccFSuTGK.s 			page 44


   4:C:/TDM-GCC-32/lib/gcc/mingw32/5.1.0/include/c++\iostream **** //
   5:C:/TDM-GCC-32/lib/gcc/mingw32/5.1.0/include/c++\iostream **** // This file is part of the GNU ISO C++ Library.  This library is free
   6:C:/TDM-GCC-32/lib/gcc/mingw32/5.1.0/include/c++\iostream **** // software; you can redistribute it and/or modify it under the
   7:C:/TDM-GCC-32/lib/gcc/mingw32/5.1.0/include/c++\iostream **** // terms of the GNU General Public License as published by the
   8:C:/TDM-GCC-32/lib/gcc/mingw32/5.1.0/include/c++\iostream **** // Free Software Foundation; either version 3, or (at your option)
   9:C:/TDM-GCC-32/lib/gcc/mingw32/5.1.0/include/c++\iostream **** // any later version.
  10:C:/TDM-GCC-32/lib/gcc/mingw32/5.1.0/include/c++\iostream **** 
  11:C:/TDM-GCC-32/lib/gcc/mingw32/5.1.0/include/c++\iostream **** // This library is distributed in the hope that it will be useful,
  12:C:/TDM-GCC-32/lib/gcc/mingw32/5.1.0/include/c++\iostream **** // but WITHOUT ANY WARRANTY; without even the implied warranty of
  13:C:/TDM-GCC-32/lib/gcc/mingw32/5.1.0/include/c++\iostream **** // MERCHANTABILITY or FITNESS FOR A PARTICULAR PURPOSE.  See the
  14:C:/TDM-GCC-32/lib/gcc/mingw32/5.1.0/include/c++\iostream **** // GNU General Public License for more details.
  15:C:/TDM-GCC-32/lib/gcc/mingw32/5.1.0/include/c++\iostream **** 
  16:C:/TDM-GCC-32/lib/gcc/mingw32/5.1.0/include/c++\iostream **** // Under Section 7 of GPL version 3, you are granted additional
  17:C:/TDM-GCC-32/lib/gcc/mingw32/5.1.0/include/c++\iostream **** // permissions described in the GCC Runtime Library Exception, version
  18:C:/TDM-GCC-32/lib/gcc/mingw32/5.1.0/include/c++\iostream **** // 3.1, as published by the Free Software Foundation.
  19:C:/TDM-GCC-32/lib/gcc/mingw32/5.1.0/include/c++\iostream **** 
  20:C:/TDM-GCC-32/lib/gcc/mingw32/5.1.0/include/c++\iostream **** // You should have received a copy of the GNU General Public License and
  21:C:/TDM-GCC-32/lib/gcc/mingw32/5.1.0/include/c++\iostream **** // a copy of the GCC Runtime Library Exception along with this program;
  22:C:/TDM-GCC-32/lib/gcc/mingw32/5.1.0/include/c++\iostream **** // see the files COPYING3 and COPYING.RUNTIME respectively.  If not, see
  23:C:/TDM-GCC-32/lib/gcc/mingw32/5.1.0/include/c++\iostream **** // <http://www.gnu.org/licenses/>.
  24:C:/TDM-GCC-32/lib/gcc/mingw32/5.1.0/include/c++\iostream **** 
  25:C:/TDM-GCC-32/lib/gcc/mingw32/5.1.0/include/c++\iostream **** /** @file include/iostream
  26:C:/TDM-GCC-32/lib/gcc/mingw32/5.1.0/include/c++\iostream ****  *  This is a Standard C++ Library header.
  27:C:/TDM-GCC-32/lib/gcc/mingw32/5.1.0/include/c++\iostream ****  */
  28:C:/TDM-GCC-32/lib/gcc/mingw32/5.1.0/include/c++\iostream **** 
  29:C:/TDM-GCC-32/lib/gcc/mingw32/5.1.0/include/c++\iostream **** //
  30:C:/TDM-GCC-32/lib/gcc/mingw32/5.1.0/include/c++\iostream **** // ISO C++ 14882: 27.3  Standard iostream objects
  31:C:/TDM-GCC-32/lib/gcc/mingw32/5.1.0/include/c++\iostream **** //
  32:C:/TDM-GCC-32/lib/gcc/mingw32/5.1.0/include/c++\iostream **** 
  33:C:/TDM-GCC-32/lib/gcc/mingw32/5.1.0/include/c++\iostream **** #ifndef _GLIBCXX_IOSTREAM
  34:C:/TDM-GCC-32/lib/gcc/mingw32/5.1.0/include/c++\iostream **** #define _GLIBCXX_IOSTREAM 1
  35:C:/TDM-GCC-32/lib/gcc/mingw32/5.1.0/include/c++\iostream **** 
  36:C:/TDM-GCC-32/lib/gcc/mingw32/5.1.0/include/c++\iostream **** #pragma GCC system_header
  37:C:/TDM-GCC-32/lib/gcc/mingw32/5.1.0/include/c++\iostream **** 
  38:C:/TDM-GCC-32/lib/gcc/mingw32/5.1.0/include/c++\iostream **** #include <bits/c++config.h>
  39:C:/TDM-GCC-32/lib/gcc/mingw32/5.1.0/include/c++\iostream **** #include <ostream>
  40:C:/TDM-GCC-32/lib/gcc/mingw32/5.1.0/include/c++\iostream **** #include <istream>
  41:C:/TDM-GCC-32/lib/gcc/mingw32/5.1.0/include/c++\iostream **** 
  42:C:/TDM-GCC-32/lib/gcc/mingw32/5.1.0/include/c++\iostream **** namespace std _GLIBCXX_VISIBILITY(default)
  43:C:/TDM-GCC-32/lib/gcc/mingw32/5.1.0/include/c++\iostream **** {
  44:C:/TDM-GCC-32/lib/gcc/mingw32/5.1.0/include/c++\iostream **** _GLIBCXX_BEGIN_NAMESPACE_VERSION
  45:C:/TDM-GCC-32/lib/gcc/mingw32/5.1.0/include/c++\iostream **** 
  46:C:/TDM-GCC-32/lib/gcc/mingw32/5.1.0/include/c++\iostream ****   /**
  47:C:/TDM-GCC-32/lib/gcc/mingw32/5.1.0/include/c++\iostream ****    *  @name Standard Stream Objects
  48:C:/TDM-GCC-32/lib/gcc/mingw32/5.1.0/include/c++\iostream ****    *
  49:C:/TDM-GCC-32/lib/gcc/mingw32/5.1.0/include/c++\iostream ****    *  The &lt;iostream&gt; header declares the eight <em>standard stream
  50:C:/TDM-GCC-32/lib/gcc/mingw32/5.1.0/include/c++\iostream ****    *  objects</em>.  For other declarations, see
  51:C:/TDM-GCC-32/lib/gcc/mingw32/5.1.0/include/c++\iostream ****    *  http://gcc.gnu.org/onlinedocs/libstdc++/manual/io.html
  52:C:/TDM-GCC-32/lib/gcc/mingw32/5.1.0/include/c++\iostream ****    *  and the @link iosfwd I/O forward declarations @endlink
  53:C:/TDM-GCC-32/lib/gcc/mingw32/5.1.0/include/c++\iostream ****    *
  54:C:/TDM-GCC-32/lib/gcc/mingw32/5.1.0/include/c++\iostream ****    *  They are required by default to cooperate with the global C
  55:C:/TDM-GCC-32/lib/gcc/mingw32/5.1.0/include/c++\iostream ****    *  library's @c FILE streams, and to be available during program
  56:C:/TDM-GCC-32/lib/gcc/mingw32/5.1.0/include/c++\iostream ****    *  startup and termination. For more information, see the section of the
  57:C:/TDM-GCC-32/lib/gcc/mingw32/5.1.0/include/c++\iostream ****    *  manual linked to above.
  58:C:/TDM-GCC-32/lib/gcc/mingw32/5.1.0/include/c++\iostream ****   */
  59:C:/TDM-GCC-32/lib/gcc/mingw32/5.1.0/include/c++\iostream ****   //@{
  60:C:/TDM-GCC-32/lib/gcc/mingw32/5.1.0/include/c++\iostream ****   extern istream cin;		/// Linked to standard input
GAS LISTING C:\Users\USER\AppData\Local\Temp\ccFSuTGK.s 			page 45


  61:C:/TDM-GCC-32/lib/gcc/mingw32/5.1.0/include/c++\iostream ****   extern ostream cout;		/// Linked to standard output
  62:C:/TDM-GCC-32/lib/gcc/mingw32/5.1.0/include/c++\iostream ****   extern ostream cerr;		/// Linked to standard error (unbuffered)
  63:C:/TDM-GCC-32/lib/gcc/mingw32/5.1.0/include/c++\iostream ****   extern ostream clog;		/// Linked to standard error (buffered)
  64:C:/TDM-GCC-32/lib/gcc/mingw32/5.1.0/include/c++\iostream **** 
  65:C:/TDM-GCC-32/lib/gcc/mingw32/5.1.0/include/c++\iostream **** #ifdef _GLIBCXX_USE_WCHAR_T
  66:C:/TDM-GCC-32/lib/gcc/mingw32/5.1.0/include/c++\iostream ****   extern wistream wcin;		/// Linked to standard input
  67:C:/TDM-GCC-32/lib/gcc/mingw32/5.1.0/include/c++\iostream ****   extern wostream wcout;	/// Linked to standard output
  68:C:/TDM-GCC-32/lib/gcc/mingw32/5.1.0/include/c++\iostream ****   extern wostream wcerr;	/// Linked to standard error (unbuffered)
  69:C:/TDM-GCC-32/lib/gcc/mingw32/5.1.0/include/c++\iostream ****   extern wostream wclog;	/// Linked to standard error (buffered)
  70:C:/TDM-GCC-32/lib/gcc/mingw32/5.1.0/include/c++\iostream **** #endif
  71:C:/TDM-GCC-32/lib/gcc/mingw32/5.1.0/include/c++\iostream ****   //@}
  72:C:/TDM-GCC-32/lib/gcc/mingw32/5.1.0/include/c++\iostream **** 
  73:C:/TDM-GCC-32/lib/gcc/mingw32/5.1.0/include/c++\iostream ****   // For construction of filebuffers for cout, cin, cerr, clog et. al.
  74:C:/TDM-GCC-32/lib/gcc/mingw32/5.1.0/include/c++\iostream ****   static ios_base::Init __ioinit;
 1971              		.loc 5 74 0
 1972              		.cfi_startproc
 1973 0b89 55       		pushl	%ebp
 1974              		.cfi_def_cfa_offset 8
 1975              		.cfi_offset 5, -8
 1976 0b8a 89E5     		movl	%esp, %ebp
 1977              		.cfi_def_cfa_register 5
 1978 0b8c 83EC08   		subl	$8, %esp
 1979              		.loc 5 74 0
 1980 0b8f B9000000 		movl	$__ZStL8__ioinit, %ecx
 1980      00
 1981 0b94 E8000000 		call	__ZNSt8ios_base4InitD1Ev
 1981      00
 1982 0b99 C9       		leave
 1983              		.cfi_restore 5
 1984              		.cfi_def_cfa 4, 4
 1985 0b9a C3       		ret
 1986              		.cfi_endproc
 1987              	LFE1211:
 1989              	__Z41__static_initialization_and_destruction_0ii:
 1990              	LFB1210:
 1991              		.loc 3 202 0
 1992              		.cfi_startproc
 1993 0b9b 55       		pushl	%ebp
 1994              		.cfi_def_cfa_offset 8
 1995              		.cfi_offset 5, -8
 1996 0b9c 89E5     		movl	%esp, %ebp
 1997              		.cfi_def_cfa_register 5
 1998 0b9e 83EC18   		subl	$24, %esp
 1999              		.loc 3 202 0
 2000 0ba1 837D0801 		cmpl	$1, 8(%ebp)
 2001 0ba5 751F     		jne	L122
 2002              		.loc 3 202 0 is_stmt 0 discriminator 1
 2003 0ba7 817D0CFF 		cmpl	$65535, 12(%ebp)
 2003      FF0000
 2004 0bae 7516     		jne	L122
 2005              		.loc 5 74 0 is_stmt 1
 2006 0bb0 B9000000 		movl	$__ZStL8__ioinit, %ecx
 2006      00
 2007 0bb5 E8000000 		call	__ZNSt8ios_base4InitC1Ev
 2007      00
 2008 0bba C7042489 		movl	$___tcf_0, (%esp)
 2008      0B0000
GAS LISTING C:\Users\USER\AppData\Local\Temp\ccFSuTGK.s 			page 46


 2009 0bc1 E8000000 		call	_atexit
 2009      00
 2010              	L122:
 2011              		.loc 3 202 0
 2012 0bc6 90       		nop
 2013 0bc7 C9       		leave
 2014              		.cfi_restore 5
 2015              		.cfi_def_cfa 4, 4
 2016 0bc8 C3       		ret
 2017              		.cfi_endproc
 2018              	LFE1210:
 2020              	__GLOBAL__sub_I__ZN5FechaC2Ev:
 2021              	LFB1212:
 2022              		.loc 3 202 0
 2023              		.cfi_startproc
 2024 0bc9 55       		pushl	%ebp
 2025              		.cfi_def_cfa_offset 8
 2026              		.cfi_offset 5, -8
 2027 0bca 89E5     		movl	%esp, %ebp
 2028              		.cfi_def_cfa_register 5
 2029 0bcc 83EC18   		subl	$24, %esp
 2030              		.loc 3 202 0
 2031 0bcf C7442404 		movl	$65535, 4(%esp)
 2031      FFFF0000 
 2032 0bd7 C7042401 		movl	$1, (%esp)
 2032      000000
 2033 0bde E8B8FFFF 		call	__Z41__static_initialization_and_destruction_0ii
 2033      FF
 2034 0be3 C9       		leave
 2035              		.cfi_restore 5
 2036              		.cfi_def_cfa 4, 4
 2037 0be4 C3       		ret
 2038              		.cfi_endproc
 2039              	LFE1212:
 2040              		.section	.ctors,"w"
 2041              		.align 4
 2042 0000 C90B0000 		.long	__GLOBAL__sub_I__ZN5FechaC2Ev
 2043              		.text
 2044              	Letext0:
 2045              		.file 6 "<built-in>"
 2046              		.file 7 "C:/TDM-GCC-32/lib/gcc/mingw32/5.1.0/include/c++/mingw32/bits/c++config.h"
 2047              		.file 8 "C:/TDM-GCC-32/lib/gcc/mingw32/5.1.0/include/c++/bits/basic_string.h"
 2048              		.file 9 "C:/TDM-GCC-32/lib/gcc/mingw32/5.1.0/include/c++/bits/basic_string.tcc"
 2049              		.file 10 "C:/TDM-GCC-32/lib/gcc/mingw32/5.1.0/include/c++/bits/stringfwd.h"
 2050              		.file 11 "C:/TDM-GCC-32/lib/gcc/mingw32/5.1.0/include/c++/cwchar"
 2051              		.file 12 "C:/TDM-GCC-32/lib/gcc/mingw32/5.1.0/include/c++/bits/char_traits.h"
 2052              		.file 13 "C:/TDM-GCC-32/lib/gcc/mingw32/5.1.0/include/c++/clocale"
 2053              		.file 14 "C:/TDM-GCC-32/lib/gcc/mingw32/5.1.0/include/c++/bits/allocator.h"
 2054              		.file 15 "C:/TDM-GCC-32/lib/gcc/mingw32/5.1.0/include/c++/bits/ios_base.h"
 2055              		.file 16 "C:/TDM-GCC-32/lib/gcc/mingw32/5.1.0/include/c++/cwctype"
 2056              		.file 17 "C:/TDM-GCC-32/lib/gcc/mingw32/5.1.0/include/c++/bits/stl_iterator_base_types.h"
 2057              		.file 18 "C:/TDM-GCC-32/lib/gcc/mingw32/5.1.0/include/c++/iosfwd"
 2058              		.file 19 "C:/TDM-GCC-32/lib/gcc/mingw32/5.1.0/include/c++/debug/debug.h"
 2059              		.file 20 "C:/TDM-GCC-32/lib/gcc/mingw32/5.1.0/include/c++/bits/predefined_ops.h"
 2060              		.file 21 "C:/TDM-GCC-32/lib/gcc/mingw32/5.1.0/include/c++/ext/new_allocator.h"
 2061              		.file 22 "C:/TDM-GCC-32/lib/gcc/mingw32/5.1.0/include/c++/ext/numeric_traits.h"
 2062              		.file 23 "C:/TDM-GCC-32/lib/gcc/mingw32/5.1.0/include/c++/ext/alloc_traits.h"
GAS LISTING C:\Users\USER\AppData\Local\Temp\ccFSuTGK.s 			page 47


 2063              		.file 24 "C:/TDM-GCC-32/lib/gcc/mingw32/5.1.0/include/c++/bits/stl_iterator.h"
 2064              		.file 25 "C:/TDM-GCC-32/lib/gcc/mingw32/5.1.0/include/stddef.h"
 2065              		.file 26 "C:/TDM-GCC-32/include/wctype.h"
 2066              		.file 27 "C:/TDM-GCC-32/include/wchar.h"
 2067              		.file 28 "C:/TDM-GCC-32/include/locale.h"
 2068              		.file 29 "C:/TDM-GCC-32/lib/gcc/mingw32/5.1.0/include/c++/mingw32/bits/atomic_word.h"
 2069              		.file 30 "C:/TDM-GCC-32/include/ctype.h"
 2070 0be5 909090   		.section	.debug_info,"dr"
 2071              	Ldebug_info0:
 2072 0000 FF810000 		.long	0x81ff
 2073 0004 0400     		.word	0x4
 2074 0006 00000000 		.secrel32	Ldebug_abbrev0
 2075 000a 04       		.byte	0x4
 2076 000b 01       		.uleb128 0x1
 2077 000c 474E5520 		.ascii "GNU C++ 5.1.0 -mtune=generic -march=pentiumpro -g -fexceptions\0"
 2077      432B2B20 
 2077      352E312E 
 2077      30202D6D 
 2077      74756E65 
 2078 004b 04       		.byte	0x4
 2079 004c 433A5C43 		.ascii "C:\\Caleb\\FIUNA\\4to Semestre\\POO\\C++\\Unidad12\\Sobre\\Fecha.cpp\0"
 2079      616C6562 
 2079      5C464955 
 2079      4E415C34 
 2079      746F2053 
 2080 0089 433A5C43 		.ascii "C:\\Caleb\\FIUNA\\4to Semestre\\POO\\C++\\Unidad12\\Sobre\0"
 2080      616C6562 
 2080      5C464955 
 2080      4E415C34 
 2080      746F2053 
 2081 00bc 00000000 		.secrel32	Ldebug_ranges0+0
 2082 00c0 00000000 		.long	0
 2083 00c4 00000000 		.secrel32	Ldebug_line0
 2084 00c8 02       		.uleb128 0x2
 2085 00c9 73746400 		.ascii "std\0"
 2086 00cd 06       		.byte	0x6
 2087 00ce 00       		.byte	0
 2088 00cf 554D0000 		.long	0x4d55
 2089 00d3 02       		.uleb128 0x2
 2090 00d4 5F5F6378 		.ascii "__cxx11\0"
 2090      78313100 
 2091 00dc 07       		.byte	0x7
 2092 00dd DA       		.byte	0xda
 2093 00de 5E3E0000 		.long	0x3e5e
 2094 00e2 03       		.uleb128 0x3
 2095 00e3 62617369 		.ascii "basic_string<char, std::char_traits<char>, std::allocator<char> >\0"
 2095      635F7374 
 2095      72696E67 
 2095      3C636861 
 2095      722C2073 
 2096 0125 18       		.byte	0x18
 2097 0126 08       		.byte	0x8
 2098 0127 47       		.byte	0x47
 2099 0128 E43D0000 		.long	0x3de4
 2100 012c 04       		.uleb128 0x4
 2101 012d A6010000 		.secrel32	LASF7
 2102 0131 04       		.byte	0x4
GAS LISTING C:\Users\USER\AppData\Local\Temp\ccFSuTGK.s 			page 48


 2103 0132 08       		.byte	0x8
 2104 0133 6A       		.byte	0x6a
 2105 0134 B5010000 		.long	0x1b5
 2106 0138 05       		.uleb128 0x5
 2107 0139 FB430000 		.long	0x43fb
 2108 013d 00       		.byte	0
 2109 013e 06       		.uleb128 0x6
 2110 013f 5F4D5F70 		.ascii "_M_p\0"
 2110      00
 2111 0144 08       		.byte	0x8
 2112 0145 6F       		.byte	0x6f
 2113 0146 B5010000 		.long	0x1b5
 2114 014a 00       		.byte	0
 2115 014b 07       		.uleb128 0x7
 2116 014c A6010000 		.secrel32	LASF7
 2117 0150 08       		.byte	0x8
 2118 0151 6C       		.byte	0x6c
 2119 0152 5F5A4E53 		.ascii "_ZNSt7__cxx1112basic_stringIcSt11char_traitsIcESaIcEE12_Alloc_hiderC4EPcRKS3_\0"
 2119      74375F5F 
 2119      63787831 
 2119      31313262 
 2119      61736963 
 2120 01a0 A4010000 		.long	0x1a4
 2121 01a4 08       		.uleb128 0x8
 2122 01a5 56700000 		.long	0x7056
 2123 01a9 09       		.uleb128 0x9
 2124 01aa B5010000 		.long	0x1b5
 2125 01ae 09       		.uleb128 0x9
 2126 01af 40700000 		.long	0x7040
 2127 01b3 00       		.byte	0
 2128 01b4 00       		.byte	0
 2129 01b5 0A       		.uleb128 0xa
 2130 01b6 F3010000 		.secrel32	LASF0
 2131 01ba 08       		.byte	0x8
 2132 01bb 56       		.byte	0x56
 2133 01bc 85510000 		.long	0x5185
 2134 01c0 01       		.byte	0x1
 2135 01c1 0B       		.uleb128 0xb
 2136 01c2 10       		.byte	0x10
 2137 01c3 08       		.byte	0x8
 2138 01c4 78       		.byte	0x78
 2139 01c5 FB010000 		.long	0x1fb
 2140 01c9 0C       		.uleb128 0xc
 2141 01ca 5F4D5F6C 		.ascii "_M_local_buf\0"
 2141      6F63616C 
 2141      5F627566 
 2141      00
 2142 01d7 08       		.byte	0x8
 2143 01d8 79       		.byte	0x79
 2144 01d9 5C700000 		.long	0x705c
 2145 01dd 0C       		.uleb128 0xc
 2146 01de 5F4D5F61 		.ascii "_M_allocated_capacity\0"
 2146      6C6C6F63 
 2146      61746564 
 2146      5F636170 
 2146      61636974 
 2147 01f4 08       		.byte	0x8
GAS LISTING C:\Users\USER\AppData\Local\Temp\ccFSuTGK.s 			page 49


 2148 01f5 7A       		.byte	0x7a
 2149 01f6 FB010000 		.long	0x1fb
 2150 01fa 00       		.byte	0
 2151 01fb 0A       		.uleb128 0xa
 2152 01fc 00000000 		.secrel32	LASF1
 2153 0200 08       		.byte	0x8
 2154 0201 52       		.byte	0x52
 2155 0202 B1510000 		.long	0x51b1
 2156 0206 01       		.byte	0x1
 2157 0207 0D       		.uleb128 0xd
 2158 0208 6E706F73 		.ascii "npos\0"
 2158      00
 2159 020d 08       		.byte	0x8
 2160 020e 5F       		.byte	0x5f
 2161 020f 14020000 		.long	0x214
 2162 0213 01       		.byte	0x1
 2163 0214 0E       		.uleb128 0xe
 2164 0215 FB010000 		.long	0x1fb
 2165 0219 06       		.uleb128 0x6
 2166 021a 5F4D5F64 		.ascii "_M_dataplus\0"
 2166      61746170 
 2166      6C757300 
 2167 0226 08       		.byte	0x8
 2168 0227 72       		.byte	0x72
 2169 0228 2C010000 		.long	0x12c
 2170 022c 00       		.byte	0
 2171 022d 06       		.uleb128 0x6
 2172 022e 5F4D5F73 		.ascii "_M_string_length\0"
 2172      7472696E 
 2172      675F6C65 
 2172      6E677468 
 2172      00
 2173 023f 08       		.byte	0x8
 2174 0240 73       		.byte	0x73
 2175 0241 FB010000 		.long	0x1fb
 2176 0245 04       		.byte	0x4
 2177 0246 0F       		.uleb128 0xf
 2178 0247 C1010000 		.long	0x1c1
 2179 024b 08       		.byte	0x8
 2180 024c 10       		.uleb128 0x10
 2181 024d 5F436861 		.ascii "_Char_alloc_type\0"
 2181      725F616C 
 2181      6C6F635F 
 2181      74797065 
 2181      00
 2182 025e 08       		.byte	0x8
 2183 025f 4A       		.byte	0x4a
 2184 0260 B8530000 		.long	0x53b8
 2185 0264 11       		.uleb128 0x11
 2186 0265 616C6C6F 		.ascii "allocator_type\0"
 2186      6361746F 
 2186      725F7479 
 2186      706500
 2187 0274 08       		.byte	0x8
 2188 0275 51       		.byte	0x51
 2189 0276 4C020000 		.long	0x24c
 2190 027a 01       		.byte	0x1
GAS LISTING C:\Users\USER\AppData\Local\Temp\ccFSuTGK.s 			page 50


 2191 027b 0A       		.uleb128 0xa
 2192 027c BE010000 		.secrel32	LASF2
 2193 0280 08       		.byte	0x8
 2194 0281 54       		.byte	0x54
 2195 0282 9B510000 		.long	0x519b
 2196 0286 01       		.byte	0x1
 2197 0287 0A       		.uleb128 0xa
 2198 0288 C8010000 		.secrel32	LASF3
 2199 028c 08       		.byte	0x8
 2200 028d 55       		.byte	0x55
 2201 028e A6510000 		.long	0x51a6
 2202 0292 01       		.byte	0x1
 2203 0293 0A       		.uleb128 0xa
 2204 0294 12000000 		.secrel32	LASF4
 2205 0298 08       		.byte	0x8
 2206 0299 57       		.byte	0x57
 2207 029a 90510000 		.long	0x5190
 2208 029e 01       		.byte	0x1
 2209 029f 11       		.uleb128 0x11
 2210 02a0 69746572 		.ascii "iterator\0"
 2210      61746F72 
 2210      00
 2211 02a9 08       		.byte	0x8
 2212 02aa 58       		.byte	0x58
 2213 02ab D9530000 		.long	0x53d9
 2214 02af 01       		.byte	0x1
 2215 02b0 11       		.uleb128 0x11
 2216 02b1 636F6E73 		.ascii "const_iterator\0"
 2216      745F6974 
 2216      65726174 
 2216      6F7200
 2217 02c0 08       		.byte	0x8
 2218 02c1 5A       		.byte	0x5a
 2219 02c2 535B0000 		.long	0x5b53
 2220 02c6 01       		.byte	0x1
 2221 02c7 11       		.uleb128 0x11
 2222 02c8 636F6E73 		.ascii "const_reverse_iterator\0"
 2222      745F7265 
 2222      76657273 
 2222      655F6974 
 2222      65726174 
 2223 02df 08       		.byte	0x8
 2224 02e0 5B       		.byte	0x5b
 2225 02e1 FA440000 		.long	0x44fa
 2226 02e5 01       		.byte	0x1
 2227 02e6 11       		.uleb128 0x11
 2228 02e7 72657665 		.ascii "reverse_iterator\0"
 2228      7273655F 
 2228      69746572 
 2228      61746F72 
 2228      00
 2229 02f8 08       		.byte	0x8
 2230 02f9 5C       		.byte	0x5c
 2231 02fa 8A450000 		.long	0x458a
 2232 02fe 01       		.byte	0x1
 2233 02ff 10       		.uleb128 0x10
 2234 0300 5F5F636F 		.ascii "__const_iterator\0"
GAS LISTING C:\Users\USER\AppData\Local\Temp\ccFSuTGK.s 			page 51


 2234      6E73745F 
 2234      69746572 
 2234      61746F72 
 2234      00
 2235 0311 08       		.byte	0x8
 2236 0312 64       		.byte	0x64
 2237 0313 9F020000 		.long	0x29f
 2238 0317 12       		.uleb128 0x12
 2239 0318 5F4D5F64 		.ascii "_M_data\0"
 2239      61746100 
 2240 0320 08       		.byte	0x8
 2241 0321 7E       		.byte	0x7e
 2242 0322 5F5A4E53 		.ascii "_ZNSt7__cxx1112basic_stringIcSt11char_traitsIcESaIcEE7_M_dataEPc\0"
 2242      74375F5F 
 2242      63787831 
 2242      31313262 
 2242      61736963 
 2243 0363 6B030000 		.long	0x36b
 2244 0367 76030000 		.long	0x376
 2245 036b 08       		.uleb128 0x8
 2246 036c 6C700000 		.long	0x706c
 2247 0370 09       		.uleb128 0x9
 2248 0371 B5010000 		.long	0x1b5
 2249 0375 00       		.byte	0
 2250 0376 12       		.uleb128 0x12
 2251 0377 5F4D5F6C 		.ascii "_M_length\0"
 2251      656E6774 
 2251      6800
 2252 0381 08       		.byte	0x8
 2253 0382 82       		.byte	0x82
 2254 0383 5F5A4E53 		.ascii "_ZNSt7__cxx1112basic_stringIcSt11char_traitsIcESaIcEE9_M_lengthEj\0"
 2254      74375F5F 
 2254      63787831 
 2254      31313262 
 2254      61736963 
 2255 03c5 CD030000 		.long	0x3cd
 2256 03c9 D8030000 		.long	0x3d8
 2257 03cd 08       		.uleb128 0x8
 2258 03ce 6C700000 		.long	0x706c
 2259 03d2 09       		.uleb128 0x9
 2260 03d3 FB010000 		.long	0x1fb
 2261 03d7 00       		.byte	0
 2262 03d8 13       		.uleb128 0x13
 2263 03d9 5F4D5F64 		.ascii "_M_data\0"
 2263      61746100 
 2264 03e1 08       		.byte	0x8
 2265 03e2 86       		.byte	0x86
 2266 03e3 5F5A4E4B 		.ascii "_ZNKSt7__cxx1112basic_stringIcSt11char_traitsIcESaIcEE7_M_dataEv\0"
 2266      5374375F 
 2266      5F637878 
 2266      31313132 
 2266      62617369 
 2267 0424 B5010000 		.long	0x1b5
 2268 0428 30040000 		.long	0x430
 2269 042c 36040000 		.long	0x436
 2270 0430 08       		.uleb128 0x8
 2271 0431 72700000 		.long	0x7072
GAS LISTING C:\Users\USER\AppData\Local\Temp\ccFSuTGK.s 			page 52


 2272 0435 00       		.byte	0
 2273 0436 14       		.uleb128 0x14
 2274 0437 2A000000 		.secrel32	LASF5
 2275 043b 08       		.byte	0x8
 2276 043c 8A       		.byte	0x8a
 2277 043d 5F5A4E53 		.ascii "_ZNSt7__cxx1112basic_stringIcSt11char_traitsIcESaIcEE13_M_local_dataEv\0"
 2277      74375F5F 
 2277      63787831 
 2277      31313262 
 2277      61736963 
 2278 0484 B5010000 		.long	0x1b5
 2279 0488 90040000 		.long	0x490
 2280 048c 96040000 		.long	0x496
 2281 0490 08       		.uleb128 0x8
 2282 0491 6C700000 		.long	0x706c
 2283 0495 00       		.byte	0
 2284 0496 14       		.uleb128 0x14
 2285 0497 2A000000 		.secrel32	LASF5
 2286 049b 08       		.byte	0x8
 2287 049c 94       		.byte	0x94
 2288 049d 5F5A4E4B 		.ascii "_ZNKSt7__cxx1112basic_stringIcSt11char_traitsIcESaIcEE13_M_local_dataEv\0"
 2288      5374375F 
 2288      5F637878 
 2288      31313132 
 2288      62617369 
 2289 04e5 93020000 		.long	0x293
 2290 04e9 F1040000 		.long	0x4f1
 2291 04ed F7040000 		.long	0x4f7
 2292 04f1 08       		.uleb128 0x8
 2293 04f2 72700000 		.long	0x7072
 2294 04f6 00       		.byte	0
 2295 04f7 12       		.uleb128 0x12
 2296 04f8 5F4D5F63 		.ascii "_M_capacity\0"
 2296      61706163 
 2296      69747900 
 2297 0504 08       		.byte	0x8
 2298 0505 9E       		.byte	0x9e
 2299 0506 5F5A4E53 		.ascii "_ZNSt7__cxx1112basic_stringIcSt11char_traitsIcESaIcEE11_M_capacityEj\0"
 2299      74375F5F 
 2299      63787831 
 2299      31313262 
 2299      61736963 
 2300 054b 53050000 		.long	0x553
 2301 054f 5E050000 		.long	0x55e
 2302 0553 08       		.uleb128 0x8
 2303 0554 6C700000 		.long	0x706c
 2304 0558 09       		.uleb128 0x9
 2305 0559 FB010000 		.long	0x1fb
 2306 055d 00       		.byte	0
 2307 055e 12       		.uleb128 0x12
 2308 055f 5F4D5F73 		.ascii "_M_set_length\0"
 2308      65745F6C 
 2308      656E6774 
 2308      6800
 2309 056d 08       		.byte	0x8
 2310 056e A2       		.byte	0xa2
 2311 056f 5F5A4E53 		.ascii "_ZNSt7__cxx1112basic_stringIcSt11char_traitsIcESaIcEE13_M_set_lengthEj\0"
GAS LISTING C:\Users\USER\AppData\Local\Temp\ccFSuTGK.s 			page 53


 2311      74375F5F 
 2311      63787831 
 2311      31313262 
 2311      61736963 
 2312 05b6 BE050000 		.long	0x5be
 2313 05ba C9050000 		.long	0x5c9
 2314 05be 08       		.uleb128 0x8
 2315 05bf 6C700000 		.long	0x706c
 2316 05c3 09       		.uleb128 0x9
 2317 05c4 FB010000 		.long	0x1fb
 2318 05c8 00       		.byte	0
 2319 05c9 13       		.uleb128 0x13
 2320 05ca 5F4D5F69 		.ascii "_M_is_local\0"
 2320      735F6C6F 
 2320      63616C00 
 2321 05d6 08       		.byte	0x8
 2322 05d7 A9       		.byte	0xa9
 2323 05d8 5F5A4E4B 		.ascii "_ZNKSt7__cxx1112basic_stringIcSt11char_traitsIcESaIcEE11_M_is_localEv\0"
 2323      5374375F 
 2323      5F637878 
 2323      31313132 
 2323      62617369 
 2324 061e 106E0000 		.long	0x6e10
 2325 0622 2A060000 		.long	0x62a
 2326 0626 30060000 		.long	0x630
 2327 062a 08       		.uleb128 0x8
 2328 062b 72700000 		.long	0x7072
 2329 062f 00       		.byte	0
 2330 0630 13       		.uleb128 0x13
 2331 0631 5F4D5F63 		.ascii "_M_create\0"
 2331      72656174 
 2331      6500
 2332 063b 09       		.byte	0x9
 2333 063c 88       		.byte	0x88
 2334 063d 5F5A4E53 		.ascii "_ZNSt7__cxx1112basic_stringIcSt11char_traitsIcESaIcEE9_M_createERjj\0"
 2334      74375F5F 
 2334      63787831 
 2334      31313262 
 2334      61736963 
 2335 0681 B5010000 		.long	0x1b5
 2336 0685 8D060000 		.long	0x68d
 2337 0689 9D060000 		.long	0x69d
 2338 068d 08       		.uleb128 0x8
 2339 068e 6C700000 		.long	0x706c
 2340 0692 09       		.uleb128 0x9
 2341 0693 78700000 		.long	0x7078
 2342 0697 09       		.uleb128 0x9
 2343 0698 FB010000 		.long	0x1fb
 2344 069c 00       		.byte	0
 2345 069d 12       		.uleb128 0x12
 2346 069e 5F4D5F64 		.ascii "_M_dispose\0"
 2346      6973706F 
 2346      736500
 2347 06a9 08       		.byte	0x8
 2348 06aa B1       		.byte	0xb1
 2349 06ab 5F5A4E53 		.ascii "_ZNSt7__cxx1112basic_stringIcSt11char_traitsIcESaIcEE10_M_disposeEv\0"
 2349      74375F5F 
GAS LISTING C:\Users\USER\AppData\Local\Temp\ccFSuTGK.s 			page 54


 2349      63787831 
 2349      31313262 
 2349      61736963 
 2350 06ef F7060000 		.long	0x6f7
 2351 06f3 FD060000 		.long	0x6fd
 2352 06f7 08       		.uleb128 0x8
 2353 06f8 6C700000 		.long	0x706c
 2354 06fc 00       		.byte	0
 2355 06fd 12       		.uleb128 0x12
 2356 06fe 5F4D5F64 		.ascii "_M_destroy\0"
 2356      65737472 
 2356      6F7900
 2357 0709 08       		.byte	0x8
 2358 070a B8       		.byte	0xb8
 2359 070b 5F5A4E53 		.ascii "_ZNSt7__cxx1112basic_stringIcSt11char_traitsIcESaIcEE10_M_destroyEj\0"
 2359      74375F5F 
 2359      63787831 
 2359      31313262 
 2359      61736963 
 2360 074f 57070000 		.long	0x757
 2361 0753 62070000 		.long	0x762
 2362 0757 08       		.uleb128 0x8
 2363 0758 6C700000 		.long	0x706c
 2364 075c 09       		.uleb128 0x9
 2365 075d FB010000 		.long	0x1fb
 2366 0761 00       		.byte	0
 2367 0762 12       		.uleb128 0x12
 2368 0763 5F4D5F63 		.ascii "_M_construct_aux_2\0"
 2368      6F6E7374 
 2368      72756374 
 2368      5F617578 
 2368      5F3200
 2369 0776 08       		.byte	0x8
 2370 0777 CE       		.byte	0xce
 2371 0778 5F5A4E53 		.ascii "_ZNSt7__cxx1112basic_stringIcSt11char_traitsIcESaIcEE18_M_construct_aux_2Ejc\0"
 2371      74375F5F 
 2371      63787831 
 2371      31313262 
 2371      61736963 
 2372 07c5 CD070000 		.long	0x7cd
 2373 07c9 DD070000 		.long	0x7dd
 2374 07cd 08       		.uleb128 0x8
 2375 07ce 6C700000 		.long	0x706c
 2376 07d2 09       		.uleb128 0x9
 2377 07d3 FB010000 		.long	0x1fb
 2378 07d7 09       		.uleb128 0x9
 2379 07d8 70640000 		.long	0x6470
 2380 07dc 00       		.byte	0
 2381 07dd 12       		.uleb128 0x12
 2382 07de 5F4D5F63 		.ascii "_M_construct\0"
 2382      6F6E7374 
 2382      72756374 
 2382      00
 2383 07eb 09       		.byte	0x9
 2384 07ec F1       		.byte	0xf1
 2385 07ed 5F5A4E53 		.ascii "_ZNSt7__cxx1112basic_stringIcSt11char_traitsIcESaIcEE12_M_constructEjc\0"
 2385      74375F5F 
GAS LISTING C:\Users\USER\AppData\Local\Temp\ccFSuTGK.s 			page 55


 2385      63787831 
 2385      31313262 
 2385      61736963 
 2386 0834 3C080000 		.long	0x83c
 2387 0838 4C080000 		.long	0x84c
 2388 083c 08       		.uleb128 0x8
 2389 083d 6C700000 		.long	0x706c
 2390 0841 09       		.uleb128 0x9
 2391 0842 FB010000 		.long	0x1fb
 2392 0846 09       		.uleb128 0x9
 2393 0847 70640000 		.long	0x6470
 2394 084b 00       		.byte	0
 2395 084c 14       		.uleb128 0x14
 2396 084d 9C000000 		.secrel32	LASF6
 2397 0851 08       		.byte	0x8
 2398 0852 EA       		.byte	0xea
 2399 0853 5F5A4E53 		.ascii "_ZNSt7__cxx1112basic_stringIcSt11char_traitsIcESaIcEE16_M_get_allocatorEv\0"
 2399      74375F5F 
 2399      63787831 
 2399      31313262 
 2399      61736963 
 2400 089d 7E700000 		.long	0x707e
 2401 08a1 A9080000 		.long	0x8a9
 2402 08a5 AF080000 		.long	0x8af
 2403 08a9 08       		.uleb128 0x8
 2404 08aa 6C700000 		.long	0x706c
 2405 08ae 00       		.byte	0
 2406 08af 14       		.uleb128 0x14
 2407 08b0 9C000000 		.secrel32	LASF6
 2408 08b4 08       		.byte	0x8
 2409 08b5 EE       		.byte	0xee
 2410 08b6 5F5A4E4B 		.ascii "_ZNKSt7__cxx1112basic_stringIcSt11char_traitsIcESaIcEE16_M_get_allocatorEv\0"
 2410      5374375F 
 2410      5F637878 
 2410      31313132 
 2410      62617369 
 2411 0901 84700000 		.long	0x7084
 2412 0905 0D090000 		.long	0x90d
 2413 0909 13090000 		.long	0x913
 2414 090d 08       		.uleb128 0x8
 2415 090e 72700000 		.long	0x7072
 2416 0912 00       		.byte	0
 2417 0913 0E       		.uleb128 0xe
 2418 0914 64020000 		.long	0x264
 2419 0918 15       		.uleb128 0x15
 2420 0919 5F4D5F63 		.ascii "_M_check\0"
 2420      6865636B 
 2420      00
 2421 0922 08       		.byte	0x8
 2422 0923 0201     		.word	0x102
 2423 0925 5F5A4E4B 		.ascii "_ZNKSt7__cxx1112basic_stringIcSt11char_traitsIcESaIcEE8_M_checkEjPKc\0"
 2423      5374375F 
 2423      5F637878 
 2423      31313132 
 2423      62617369 
 2424 096a FB010000 		.long	0x1fb
 2425 096e 76090000 		.long	0x976
GAS LISTING C:\Users\USER\AppData\Local\Temp\ccFSuTGK.s 			page 56


 2426 0972 86090000 		.long	0x986
 2427 0976 08       		.uleb128 0x8
 2428 0977 72700000 		.long	0x7072
 2429 097b 09       		.uleb128 0x9
 2430 097c FB010000 		.long	0x1fb
 2431 0980 09       		.uleb128 0x9
 2432 0981 BE670000 		.long	0x67be
 2433 0985 00       		.byte	0
 2434 0986 16       		.uleb128 0x16
 2435 0987 5F4D5F63 		.ascii "_M_check_length\0"
 2435      6865636B 
 2435      5F6C656E 
 2435      67746800 
 2436 0997 08       		.byte	0x8
 2437 0998 0C01     		.word	0x10c
 2438 099a 5F5A4E4B 		.ascii "_ZNKSt7__cxx1112basic_stringIcSt11char_traitsIcESaIcEE15_M_check_lengthEjjPKc\0"
 2438      5374375F 
 2438      5F637878 
 2438      31313132 
 2438      62617369 
 2439 09e8 F0090000 		.long	0x9f0
 2440 09ec 050A0000 		.long	0xa05
 2441 09f0 08       		.uleb128 0x8
 2442 09f1 72700000 		.long	0x7072
 2443 09f5 09       		.uleb128 0x9
 2444 09f6 FB010000 		.long	0x1fb
 2445 09fa 09       		.uleb128 0x9
 2446 09fb FB010000 		.long	0x1fb
 2447 09ff 09       		.uleb128 0x9
 2448 0a00 BE670000 		.long	0x67be
 2449 0a04 00       		.byte	0
 2450 0a05 15       		.uleb128 0x15
 2451 0a06 5F4D5F6C 		.ascii "_M_limit\0"
 2451      696D6974 
 2451      00
 2452 0a0f 08       		.byte	0x8
 2453 0a10 1501     		.word	0x115
 2454 0a12 5F5A4E4B 		.ascii "_ZNKSt7__cxx1112basic_stringIcSt11char_traitsIcESaIcEE8_M_limitEjj\0"
 2454      5374375F 
 2454      5F637878 
 2454      31313132 
 2454      62617369 
 2455 0a55 FB010000 		.long	0x1fb
 2456 0a59 610A0000 		.long	0xa61
 2457 0a5d 710A0000 		.long	0xa71
 2458 0a61 08       		.uleb128 0x8
 2459 0a62 72700000 		.long	0x7072
 2460 0a66 09       		.uleb128 0x9
 2461 0a67 FB010000 		.long	0x1fb
 2462 0a6b 09       		.uleb128 0x9
 2463 0a6c FB010000 		.long	0x1fb
 2464 0a70 00       		.byte	0
 2465 0a71 15       		.uleb128 0x15
 2466 0a72 5F4D5F64 		.ascii "_M_disjunct\0"
 2466      69736A75 
 2466      6E637400 
 2467 0a7e 08       		.byte	0x8
GAS LISTING C:\Users\USER\AppData\Local\Temp\ccFSuTGK.s 			page 57


 2468 0a7f 1D01     		.word	0x11d
 2469 0a81 5F5A4E4B 		.ascii "_ZNKSt7__cxx1112basic_stringIcSt11char_traitsIcESaIcEE11_M_disjunctEPKc\0"
 2469      5374375F 
 2469      5F637878 
 2469      31313132 
 2469      62617369 
 2470 0ac9 106E0000 		.long	0x6e10
 2471 0acd D50A0000 		.long	0xad5
 2472 0ad1 E00A0000 		.long	0xae0
 2473 0ad5 08       		.uleb128 0x8
 2474 0ad6 72700000 		.long	0x7072
 2475 0ada 09       		.uleb128 0x9
 2476 0adb BE670000 		.long	0x67be
 2477 0adf 00       		.byte	0
 2478 0ae0 17       		.uleb128 0x17
 2479 0ae1 5F535F63 		.ascii "_S_copy\0"
 2479      6F707900 
 2480 0ae9 08       		.byte	0x8
 2481 0aea 2601     		.word	0x126
 2482 0aec 5F5A4E53 		.ascii "_ZNSt7__cxx1112basic_stringIcSt11char_traitsIcESaIcEE7_S_copyEPcPKcj\0"
 2482      74375F5F 
 2482      63787831 
 2482      31313262 
 2482      61736963 
 2483 0b31 450B0000 		.long	0xb45
 2484 0b35 09       		.uleb128 0x9
 2485 0b36 5C650000 		.long	0x655c
 2486 0b3a 09       		.uleb128 0x9
 2487 0b3b BE670000 		.long	0x67be
 2488 0b3f 09       		.uleb128 0x9
 2489 0b40 FB010000 		.long	0x1fb
 2490 0b44 00       		.byte	0
 2491 0b45 17       		.uleb128 0x17
 2492 0b46 5F535F6D 		.ascii "_S_move\0"
 2492      6F766500 
 2493 0b4e 08       		.byte	0x8
 2494 0b4f 2F01     		.word	0x12f
 2495 0b51 5F5A4E53 		.ascii "_ZNSt7__cxx1112basic_stringIcSt11char_traitsIcESaIcEE7_S_moveEPcPKcj\0"
 2495      74375F5F 
 2495      63787831 
 2495      31313262 
 2495      61736963 
 2496 0b96 AA0B0000 		.long	0xbaa
 2497 0b9a 09       		.uleb128 0x9
 2498 0b9b 5C650000 		.long	0x655c
 2499 0b9f 09       		.uleb128 0x9
 2500 0ba0 BE670000 		.long	0x67be
 2501 0ba4 09       		.uleb128 0x9
 2502 0ba5 FB010000 		.long	0x1fb
 2503 0ba9 00       		.byte	0
 2504 0baa 17       		.uleb128 0x17
 2505 0bab 5F535F61 		.ascii "_S_assign\0"
 2505      73736967 
 2505      6E00
 2506 0bb5 08       		.byte	0x8
 2507 0bb6 3801     		.word	0x138
 2508 0bb8 5F5A4E53 		.ascii "_ZNSt7__cxx1112basic_stringIcSt11char_traitsIcESaIcEE9_S_assignEPcjc\0"
GAS LISTING C:\Users\USER\AppData\Local\Temp\ccFSuTGK.s 			page 58


 2508      74375F5F 
 2508      63787831 
 2508      31313262 
 2508      61736963 
 2509 0bfd 110C0000 		.long	0xc11
 2510 0c01 09       		.uleb128 0x9
 2511 0c02 5C650000 		.long	0x655c
 2512 0c06 09       		.uleb128 0x9
 2513 0c07 FB010000 		.long	0x1fb
 2514 0c0b 09       		.uleb128 0x9
 2515 0c0c 70640000 		.long	0x6470
 2516 0c10 00       		.byte	0
 2517 0c11 18       		.uleb128 0x18
 2518 0c12 92010000 		.secrel32	LASF8
 2519 0c16 08       		.byte	0x8
 2520 0c17 4C01     		.word	0x14c
 2521 0c19 5F5A4E53 		.ascii "_ZNSt7__cxx1112basic_stringIcSt11char_traitsIcESaIcEE13_S_copy_charsEPcN9__gnu_cxx17__norm
 2521      74375F5F 
 2521      63787831 
 2521      31313262 
 2521      61736963 
 2522 0c8b 9F0C0000 		.long	0xc9f
 2523 0c8f 09       		.uleb128 0x9
 2524 0c90 5C650000 		.long	0x655c
 2525 0c94 09       		.uleb128 0x9
 2526 0c95 9F020000 		.long	0x29f
 2527 0c99 09       		.uleb128 0x9
 2528 0c9a 9F020000 		.long	0x29f
 2529 0c9e 00       		.byte	0
 2530 0c9f 18       		.uleb128 0x18
 2531 0ca0 92010000 		.secrel32	LASF8
 2532 0ca4 08       		.byte	0x8
 2533 0ca5 5001     		.word	0x150
 2534 0ca7 5F5A4E53 		.ascii "_ZNSt7__cxx1112basic_stringIcSt11char_traitsIcESaIcEE13_S_copy_charsEPcN9__gnu_cxx17__norm
 2534      74375F5F 
 2534      63787831 
 2534      31313262 
 2534      61736963 
 2535 0d19 2D0D0000 		.long	0xd2d
 2536 0d1d 09       		.uleb128 0x9
 2537 0d1e 5C650000 		.long	0x655c
 2538 0d22 09       		.uleb128 0x9
 2539 0d23 B0020000 		.long	0x2b0
 2540 0d27 09       		.uleb128 0x9
 2541 0d28 B0020000 		.long	0x2b0
 2542 0d2c 00       		.byte	0
 2543 0d2d 18       		.uleb128 0x18
 2544 0d2e 92010000 		.secrel32	LASF8
 2545 0d32 08       		.byte	0x8
 2546 0d33 5501     		.word	0x155
 2547 0d35 5F5A4E53 		.ascii "_ZNSt7__cxx1112basic_stringIcSt11char_traitsIcESaIcEE13_S_copy_charsEPcS5_S5_\0"
 2547      74375F5F 
 2547      63787831 
 2547      31313262 
 2547      61736963 
 2548 0d83 970D0000 		.long	0xd97
 2549 0d87 09       		.uleb128 0x9
GAS LISTING C:\Users\USER\AppData\Local\Temp\ccFSuTGK.s 			page 59


 2550 0d88 5C650000 		.long	0x655c
 2551 0d8c 09       		.uleb128 0x9
 2552 0d8d 5C650000 		.long	0x655c
 2553 0d91 09       		.uleb128 0x9
 2554 0d92 5C650000 		.long	0x655c
 2555 0d96 00       		.byte	0
 2556 0d97 18       		.uleb128 0x18
 2557 0d98 92010000 		.secrel32	LASF8
 2558 0d9c 08       		.byte	0x8
 2559 0d9d 5901     		.word	0x159
 2560 0d9f 5F5A4E53 		.ascii "_ZNSt7__cxx1112basic_stringIcSt11char_traitsIcESaIcEE13_S_copy_charsEPcPKcS7_\0"
 2560      74375F5F 
 2560      63787831 
 2560      31313262 
 2560      61736963 
 2561 0ded 010E0000 		.long	0xe01
 2562 0df1 09       		.uleb128 0x9
 2563 0df2 5C650000 		.long	0x655c
 2564 0df6 09       		.uleb128 0x9
 2565 0df7 BE670000 		.long	0x67be
 2566 0dfb 09       		.uleb128 0x9
 2567 0dfc BE670000 		.long	0x67be
 2568 0e00 00       		.byte	0
 2569 0e01 19       		.uleb128 0x19
 2570 0e02 5F535F63 		.ascii "_S_compare\0"
 2570      6F6D7061 
 2570      726500
 2571 0e0d 08       		.byte	0x8
 2572 0e0e 5E01     		.word	0x15e
 2573 0e10 5F5A4E53 		.ascii "_ZNSt7__cxx1112basic_stringIcSt11char_traitsIcESaIcEE10_S_compareEjj\0"
 2573      74375F5F 
 2573      63787831 
 2573      31313262 
 2573      61736963 
 2574 0e55 A4640000 		.long	0x64a4
 2575 0e59 680E0000 		.long	0xe68
 2576 0e5d 09       		.uleb128 0x9
 2577 0e5e FB010000 		.long	0x1fb
 2578 0e62 09       		.uleb128 0x9
 2579 0e63 FB010000 		.long	0x1fb
 2580 0e67 00       		.byte	0
 2581 0e68 16       		.uleb128 0x16
 2582 0e69 5F4D5F61 		.ascii "_M_assign\0"
 2582      73736967 
 2582      6E00
 2583 0e73 09       		.byte	0x9
 2584 0e74 0201     		.word	0x102
 2585 0e76 5F5A4E53 		.ascii "_ZNSt7__cxx1112basic_stringIcSt11char_traitsIcESaIcEE9_M_assignERKS4_\0"
 2585      74375F5F 
 2585      63787831 
 2585      31313262 
 2585      61736963 
 2586 0ebc C40E0000 		.long	0xec4
 2587 0ec0 CF0E0000 		.long	0xecf
 2588 0ec4 08       		.uleb128 0x8
 2589 0ec5 6C700000 		.long	0x706c
 2590 0ec9 09       		.uleb128 0x9
GAS LISTING C:\Users\USER\AppData\Local\Temp\ccFSuTGK.s 			page 60


 2591 0eca 8A700000 		.long	0x708a
 2592 0ece 00       		.byte	0
 2593 0ecf 16       		.uleb128 0x16
 2594 0ed0 5F4D5F6D 		.ascii "_M_mutate\0"
 2594      75746174 
 2594      6500
 2595 0eda 09       		.byte	0x9
 2596 0edb 3A01     		.word	0x13a
 2597 0edd 5F5A4E53 		.ascii "_ZNSt7__cxx1112basic_stringIcSt11char_traitsIcESaIcEE9_M_mutateEjjPKcj\0"
 2597      74375F5F 
 2597      63787831 
 2597      31313262 
 2597      61736963 
 2598 0f24 2C0F0000 		.long	0xf2c
 2599 0f28 460F0000 		.long	0xf46
 2600 0f2c 08       		.uleb128 0x8
 2601 0f2d 6C700000 		.long	0x706c
 2602 0f31 09       		.uleb128 0x9
 2603 0f32 FB010000 		.long	0x1fb
 2604 0f36 09       		.uleb128 0x9
 2605 0f37 FB010000 		.long	0x1fb
 2606 0f3b 09       		.uleb128 0x9
 2607 0f3c BE670000 		.long	0x67be
 2608 0f40 09       		.uleb128 0x9
 2609 0f41 FB010000 		.long	0x1fb
 2610 0f45 00       		.byte	0
 2611 0f46 16       		.uleb128 0x16
 2612 0f47 5F4D5F65 		.ascii "_M_erase\0"
 2612      72617365 
 2612      00
 2613 0f50 09       		.byte	0x9
 2614 0f51 5201     		.word	0x152
 2615 0f53 5F5A4E53 		.ascii "_ZNSt7__cxx1112basic_stringIcSt11char_traitsIcESaIcEE8_M_eraseEjj\0"
 2615      74375F5F 
 2615      63787831 
 2615      31313262 
 2615      61736963 
 2616 0f95 9D0F0000 		.long	0xf9d
 2617 0f99 AD0F0000 		.long	0xfad
 2618 0f9d 08       		.uleb128 0x8
 2619 0f9e 6C700000 		.long	0x706c
 2620 0fa2 09       		.uleb128 0x9
 2621 0fa3 FB010000 		.long	0x1fb
 2622 0fa7 09       		.uleb128 0x9
 2623 0fa8 FB010000 		.long	0x1fb
 2624 0fac 00       		.byte	0
 2625 0fad 1A       		.uleb128 0x1a
 2626 0fae 85000000 		.secrel32	LASF9
 2627 0fb2 08       		.byte	0x8
 2628 0fb3 7C01     		.word	0x17c
 2629 0fb5 5F5A4E53 		.ascii "_ZNSt7__cxx1112basic_stringIcSt11char_traitsIcESaIcEEC4Ev\0"
 2629      74375F5F 
 2629      63787831 
 2629      31313262 
 2629      61736963 
 2630 0fef 01       		.byte	0x1
 2631 0ff0 F80F0000 		.long	0xff8
GAS LISTING C:\Users\USER\AppData\Local\Temp\ccFSuTGK.s 			page 61


 2632 0ff4 FE0F0000 		.long	0xffe
 2633 0ff8 08       		.uleb128 0x8
 2634 0ff9 6C700000 		.long	0x706c
 2635 0ffd 00       		.byte	0
 2636 0ffe 1B       		.uleb128 0x1b
 2637 0fff 85000000 		.secrel32	LASF9
 2638 1003 08       		.byte	0x8
 2639 1004 8401     		.word	0x184
 2640 1006 5F5A4E53 		.ascii "_ZNSt7__cxx1112basic_stringIcSt11char_traitsIcESaIcEEC4ERKS3_\0"
 2640      74375F5F 
 2640      63787831 
 2640      31313262 
 2640      61736963 
 2641 1044 01       		.byte	0x1
 2642 1045 4D100000 		.long	0x104d
 2643 1049 58100000 		.long	0x1058
 2644 104d 08       		.uleb128 0x8
 2645 104e 6C700000 		.long	0x706c
 2646 1052 09       		.uleb128 0x9
 2647 1053 40700000 		.long	0x7040
 2648 1057 00       		.byte	0
 2649 1058 1A       		.uleb128 0x1a
 2650 1059 85000000 		.secrel32	LASF9
 2651 105d 08       		.byte	0x8
 2652 105e 8C01     		.word	0x18c
 2653 1060 5F5A4E53 		.ascii "_ZNSt7__cxx1112basic_stringIcSt11char_traitsIcESaIcEEC4ERKS4_\0"
 2653      74375F5F 
 2653      63787831 
 2653      31313262 
 2653      61736963 
 2654 109e 01       		.byte	0x1
 2655 109f A7100000 		.long	0x10a7
 2656 10a3 B2100000 		.long	0x10b2
 2657 10a7 08       		.uleb128 0x8
 2658 10a8 6C700000 		.long	0x706c
 2659 10ac 09       		.uleb128 0x9
 2660 10ad 8A700000 		.long	0x708a
 2661 10b1 00       		.byte	0
 2662 10b2 1A       		.uleb128 0x1a
 2663 10b3 85000000 		.secrel32	LASF9
 2664 10b7 08       		.byte	0x8
 2665 10b8 9801     		.word	0x198
 2666 10ba 5F5A4E53 		.ascii "_ZNSt7__cxx1112basic_stringIcSt11char_traitsIcESaIcEEC4ERKS4_jj\0"
 2666      74375F5F 
 2666      63787831 
 2666      31313262 
 2666      61736963 
 2667 10fa 01       		.byte	0x1
 2668 10fb 03110000 		.long	0x1103
 2669 10ff 18110000 		.long	0x1118
 2670 1103 08       		.uleb128 0x8
 2671 1104 6C700000 		.long	0x706c
 2672 1108 09       		.uleb128 0x9
 2673 1109 8A700000 		.long	0x708a
 2674 110d 09       		.uleb128 0x9
 2675 110e FB010000 		.long	0x1fb
 2676 1112 09       		.uleb128 0x9
GAS LISTING C:\Users\USER\AppData\Local\Temp\ccFSuTGK.s 			page 62


 2677 1113 FB010000 		.long	0x1fb
 2678 1117 00       		.byte	0
 2679 1118 1A       		.uleb128 0x1a
 2680 1119 85000000 		.secrel32	LASF9
 2681 111d 08       		.byte	0x8
 2682 111e A801     		.word	0x1a8
 2683 1120 5F5A4E53 		.ascii "_ZNSt7__cxx1112basic_stringIcSt11char_traitsIcESaIcEEC4ERKS4_jjRKS3_\0"
 2683      74375F5F 
 2683      63787831 
 2683      31313262 
 2683      61736963 
 2684 1165 01       		.byte	0x1
 2685 1166 6E110000 		.long	0x116e
 2686 116a 88110000 		.long	0x1188
 2687 116e 08       		.uleb128 0x8
 2688 116f 6C700000 		.long	0x706c
 2689 1173 09       		.uleb128 0x9
 2690 1174 8A700000 		.long	0x708a
 2691 1178 09       		.uleb128 0x9
 2692 1179 FB010000 		.long	0x1fb
 2693 117d 09       		.uleb128 0x9
 2694 117e FB010000 		.long	0x1fb
 2695 1182 09       		.uleb128 0x9
 2696 1183 40700000 		.long	0x7040
 2697 1187 00       		.byte	0
 2698 1188 1A       		.uleb128 0x1a
 2699 1189 85000000 		.secrel32	LASF9
 2700 118d 08       		.byte	0x8
 2701 118e BA01     		.word	0x1ba
 2702 1190 5F5A4E53 		.ascii "_ZNSt7__cxx1112basic_stringIcSt11char_traitsIcESaIcEEC4EPKcjRKS3_\0"
 2702      74375F5F 
 2702      63787831 
 2702      31313262 
 2702      61736963 
 2703 11d2 01       		.byte	0x1
 2704 11d3 DB110000 		.long	0x11db
 2705 11d7 F0110000 		.long	0x11f0
 2706 11db 08       		.uleb128 0x8
 2707 11dc 6C700000 		.long	0x706c
 2708 11e0 09       		.uleb128 0x9
 2709 11e1 BE670000 		.long	0x67be
 2710 11e5 09       		.uleb128 0x9
 2711 11e6 FB010000 		.long	0x1fb
 2712 11ea 09       		.uleb128 0x9
 2713 11eb 40700000 		.long	0x7040
 2714 11ef 00       		.byte	0
 2715 11f0 1A       		.uleb128 0x1a
 2716 11f1 85000000 		.secrel32	LASF9
 2717 11f5 08       		.byte	0x8
 2718 11f6 C401     		.word	0x1c4
 2719 11f8 5F5A4E53 		.ascii "_ZNSt7__cxx1112basic_stringIcSt11char_traitsIcESaIcEEC4EPKcRKS3_\0"
 2719      74375F5F 
 2719      63787831 
 2719      31313262 
 2719      61736963 
 2720 1239 01       		.byte	0x1
 2721 123a 42120000 		.long	0x1242
GAS LISTING C:\Users\USER\AppData\Local\Temp\ccFSuTGK.s 			page 63


 2722 123e 52120000 		.long	0x1252
 2723 1242 08       		.uleb128 0x8
 2724 1243 6C700000 		.long	0x706c
 2725 1247 09       		.uleb128 0x9
 2726 1248 BE670000 		.long	0x67be
 2727 124c 09       		.uleb128 0x9
 2728 124d 40700000 		.long	0x7040
 2729 1251 00       		.byte	0
 2730 1252 1A       		.uleb128 0x1a
 2731 1253 85000000 		.secrel32	LASF9
 2732 1257 08       		.byte	0x8
 2733 1258 CE01     		.word	0x1ce
 2734 125a 5F5A4E53 		.ascii "_ZNSt7__cxx1112basic_stringIcSt11char_traitsIcESaIcEEC4EjcRKS3_\0"
 2734      74375F5F 
 2734      63787831 
 2734      31313262 
 2734      61736963 
 2735 129a 01       		.byte	0x1
 2736 129b A3120000 		.long	0x12a3
 2737 129f B8120000 		.long	0x12b8
 2738 12a3 08       		.uleb128 0x8
 2739 12a4 6C700000 		.long	0x706c
 2740 12a8 09       		.uleb128 0x9
 2741 12a9 FB010000 		.long	0x1fb
 2742 12ad 09       		.uleb128 0x9
 2743 12ae 70640000 		.long	0x6470
 2744 12b2 09       		.uleb128 0x9
 2745 12b3 40700000 		.long	0x7040
 2746 12b7 00       		.byte	0
 2747 12b8 1C       		.uleb128 0x1c
 2748 12b9 7E626173 		.ascii "~basic_string\0"
 2748      69635F73 
 2748      7472696E 
 2748      6700
 2749 12c7 08       		.byte	0x8
 2750 12c8 1C02     		.word	0x21c
 2751 12ca 5F5A4E53 		.ascii "_ZNSt7__cxx1112basic_stringIcSt11char_traitsIcESaIcEED4Ev\0"
 2751      74375F5F 
 2751      63787831 
 2751      31313262 
 2751      61736963 
 2752 1304 01       		.byte	0x1
 2753 1305 0D130000 		.long	0x130d
 2754 1309 18130000 		.long	0x1318
 2755 130d 08       		.uleb128 0x8
 2756 130e 6C700000 		.long	0x706c
 2757 1312 08       		.uleb128 0x8
 2758 1313 A4640000 		.long	0x64a4
 2759 1317 00       		.byte	0
 2760 1318 1D       		.uleb128 0x1d
 2761 1319 FF000000 		.secrel32	LASF10
 2762 131d 08       		.byte	0x8
 2763 131e 2402     		.word	0x224
 2764 1320 5F5A4E53 		.ascii "_ZNSt7__cxx1112basic_stringIcSt11char_traitsIcESaIcEEaSERKS4_\0"
 2764      74375F5F 
 2764      63787831 
 2764      31313262 
GAS LISTING C:\Users\USER\AppData\Local\Temp\ccFSuTGK.s 			page 64


 2764      61736963 
 2765 135e 90700000 		.long	0x7090
 2766 1362 01       		.byte	0x1
 2767 1363 6B130000 		.long	0x136b
 2768 1367 76130000 		.long	0x1376
 2769 136b 08       		.uleb128 0x8
 2770 136c 6C700000 		.long	0x706c
 2771 1370 09       		.uleb128 0x9
 2772 1371 8A700000 		.long	0x708a
 2773 1375 00       		.byte	0
 2774 1376 1D       		.uleb128 0x1d
 2775 1377 FF000000 		.secrel32	LASF10
 2776 137b 08       		.byte	0x8
 2777 137c 2C02     		.word	0x22c
 2778 137e 5F5A4E53 		.ascii "_ZNSt7__cxx1112basic_stringIcSt11char_traitsIcESaIcEEaSEPKc\0"
 2778      74375F5F 
 2778      63787831 
 2778      31313262 
 2778      61736963 
 2779 13ba 90700000 		.long	0x7090
 2780 13be 01       		.byte	0x1
 2781 13bf C7130000 		.long	0x13c7
 2782 13c3 D2130000 		.long	0x13d2
 2783 13c7 08       		.uleb128 0x8
 2784 13c8 6C700000 		.long	0x706c
 2785 13cc 09       		.uleb128 0x9
 2786 13cd BE670000 		.long	0x67be
 2787 13d1 00       		.byte	0
 2788 13d2 1D       		.uleb128 0x1d
 2789 13d3 FF000000 		.secrel32	LASF10
 2790 13d7 08       		.byte	0x8
 2791 13d8 3702     		.word	0x237
 2792 13da 5F5A4E53 		.ascii "_ZNSt7__cxx1112basic_stringIcSt11char_traitsIcESaIcEEaSEc\0"
 2792      74375F5F 
 2792      63787831 
 2792      31313262 
 2792      61736963 
 2793 1414 90700000 		.long	0x7090
 2794 1418 01       		.byte	0x1
 2795 1419 21140000 		.long	0x1421
 2796 141d 2C140000 		.long	0x142c
 2797 1421 08       		.uleb128 0x8
 2798 1422 6C700000 		.long	0x706c
 2799 1426 09       		.uleb128 0x9
 2800 1427 70640000 		.long	0x6470
 2801 142b 00       		.byte	0
 2802 142c 1E       		.uleb128 0x1e
 2803 142d 62656769 		.ascii "begin\0"
 2803      6E00
 2804 1433 08       		.byte	0x8
 2805 1434 6102     		.word	0x261
 2806 1436 5F5A4E53 		.ascii "_ZNSt7__cxx1112basic_stringIcSt11char_traitsIcESaIcEE5beginEv\0"
 2806      74375F5F 
 2806      63787831 
 2806      31313262 
 2806      61736963 
 2807 1474 9F020000 		.long	0x29f
GAS LISTING C:\Users\USER\AppData\Local\Temp\ccFSuTGK.s 			page 65


 2808 1478 01       		.byte	0x1
 2809 1479 81140000 		.long	0x1481
 2810 147d 87140000 		.long	0x1487
 2811 1481 08       		.uleb128 0x8
 2812 1482 6C700000 		.long	0x706c
 2813 1486 00       		.byte	0
 2814 1487 1E       		.uleb128 0x1e
 2815 1488 62656769 		.ascii "begin\0"
 2815      6E00
 2816 148e 08       		.byte	0x8
 2817 148f 6902     		.word	0x269
 2818 1491 5F5A4E4B 		.ascii "_ZNKSt7__cxx1112basic_stringIcSt11char_traitsIcESaIcEE5beginEv\0"
 2818      5374375F 
 2818      5F637878 
 2818      31313132 
 2818      62617369 
 2819 14d0 B0020000 		.long	0x2b0
 2820 14d4 01       		.byte	0x1
 2821 14d5 DD140000 		.long	0x14dd
 2822 14d9 E3140000 		.long	0x14e3
 2823 14dd 08       		.uleb128 0x8
 2824 14de 72700000 		.long	0x7072
 2825 14e2 00       		.byte	0
 2826 14e3 1E       		.uleb128 0x1e
 2827 14e4 656E6400 		.ascii "end\0"
 2828 14e8 08       		.byte	0x8
 2829 14e9 7102     		.word	0x271
 2830 14eb 5F5A4E53 		.ascii "_ZNSt7__cxx1112basic_stringIcSt11char_traitsIcESaIcEE3endEv\0"
 2830      74375F5F 
 2830      63787831 
 2830      31313262 
 2830      61736963 
 2831 1527 9F020000 		.long	0x29f
 2832 152b 01       		.byte	0x1
 2833 152c 34150000 		.long	0x1534
 2834 1530 3A150000 		.long	0x153a
 2835 1534 08       		.uleb128 0x8
 2836 1535 6C700000 		.long	0x706c
 2837 1539 00       		.byte	0
 2838 153a 1E       		.uleb128 0x1e
 2839 153b 656E6400 		.ascii "end\0"
 2840 153f 08       		.byte	0x8
 2841 1540 7902     		.word	0x279
 2842 1542 5F5A4E4B 		.ascii "_ZNKSt7__cxx1112basic_stringIcSt11char_traitsIcESaIcEE3endEv\0"
 2842      5374375F 
 2842      5F637878 
 2842      31313132 
 2842      62617369 
 2843 157f B0020000 		.long	0x2b0
 2844 1583 01       		.byte	0x1
 2845 1584 8C150000 		.long	0x158c
 2846 1588 92150000 		.long	0x1592
 2847 158c 08       		.uleb128 0x8
 2848 158d 72700000 		.long	0x7072
 2849 1591 00       		.byte	0
 2850 1592 1E       		.uleb128 0x1e
 2851 1593 72626567 		.ascii "rbegin\0"
GAS LISTING C:\Users\USER\AppData\Local\Temp\ccFSuTGK.s 			page 66


 2851      696E00
 2852 159a 08       		.byte	0x8
 2853 159b 8202     		.word	0x282
 2854 159d 5F5A4E53 		.ascii "_ZNSt7__cxx1112basic_stringIcSt11char_traitsIcESaIcEE6rbeginEv\0"
 2854      74375F5F 
 2854      63787831 
 2854      31313262 
 2854      61736963 
 2855 15dc E6020000 		.long	0x2e6
 2856 15e0 01       		.byte	0x1
 2857 15e1 E9150000 		.long	0x15e9
 2858 15e5 EF150000 		.long	0x15ef
 2859 15e9 08       		.uleb128 0x8
 2860 15ea 6C700000 		.long	0x706c
 2861 15ee 00       		.byte	0
 2862 15ef 1E       		.uleb128 0x1e
 2863 15f0 72626567 		.ascii "rbegin\0"
 2863      696E00
 2864 15f7 08       		.byte	0x8
 2865 15f8 8B02     		.word	0x28b
 2866 15fa 5F5A4E4B 		.ascii "_ZNKSt7__cxx1112basic_stringIcSt11char_traitsIcESaIcEE6rbeginEv\0"
 2866      5374375F 
 2866      5F637878 
 2866      31313132 
 2866      62617369 
 2867 163a C7020000 		.long	0x2c7
 2868 163e 01       		.byte	0x1
 2869 163f 47160000 		.long	0x1647
 2870 1643 4D160000 		.long	0x164d
 2871 1647 08       		.uleb128 0x8
 2872 1648 72700000 		.long	0x7072
 2873 164c 00       		.byte	0
 2874 164d 1E       		.uleb128 0x1e
 2875 164e 72656E64 		.ascii "rend\0"
 2875      00
 2876 1653 08       		.byte	0x8
 2877 1654 9402     		.word	0x294
 2878 1656 5F5A4E53 		.ascii "_ZNSt7__cxx1112basic_stringIcSt11char_traitsIcESaIcEE4rendEv\0"
 2878      74375F5F 
 2878      63787831 
 2878      31313262 
 2878      61736963 
 2879 1693 E6020000 		.long	0x2e6
 2880 1697 01       		.byte	0x1
 2881 1698 A0160000 		.long	0x16a0
 2882 169c A6160000 		.long	0x16a6
 2883 16a0 08       		.uleb128 0x8
 2884 16a1 6C700000 		.long	0x706c
 2885 16a5 00       		.byte	0
 2886 16a6 1E       		.uleb128 0x1e
 2887 16a7 72656E64 		.ascii "rend\0"
 2887      00
 2888 16ac 08       		.byte	0x8
 2889 16ad 9D02     		.word	0x29d
 2890 16af 5F5A4E4B 		.ascii "_ZNKSt7__cxx1112basic_stringIcSt11char_traitsIcESaIcEE4rendEv\0"
 2890      5374375F 
 2890      5F637878 
GAS LISTING C:\Users\USER\AppData\Local\Temp\ccFSuTGK.s 			page 67


 2890      31313132 
 2890      62617369 
 2891 16ed C7020000 		.long	0x2c7
 2892 16f1 01       		.byte	0x1
 2893 16f2 FA160000 		.long	0x16fa
 2894 16f6 00170000 		.long	0x1700
 2895 16fa 08       		.uleb128 0x8
 2896 16fb 72700000 		.long	0x7072
 2897 16ff 00       		.byte	0
 2898 1700 1E       		.uleb128 0x1e
 2899 1701 73697A65 		.ascii "size\0"
 2899      00
 2900 1706 08       		.byte	0x8
 2901 1707 C902     		.word	0x2c9
 2902 1709 5F5A4E4B 		.ascii "_ZNKSt7__cxx1112basic_stringIcSt11char_traitsIcESaIcEE4sizeEv\0"
 2902      5374375F 
 2902      5F637878 
 2902      31313132 
 2902      62617369 
 2903 1747 FB010000 		.long	0x1fb
 2904 174b 01       		.byte	0x1
 2905 174c 54170000 		.long	0x1754
 2906 1750 5A170000 		.long	0x175a
 2907 1754 08       		.uleb128 0x8
 2908 1755 72700000 		.long	0x7072
 2909 1759 00       		.byte	0
 2910 175a 1E       		.uleb128 0x1e
 2911 175b 6C656E67 		.ascii "length\0"
 2911      746800
 2912 1762 08       		.byte	0x8
 2913 1763 CF02     		.word	0x2cf
 2914 1765 5F5A4E4B 		.ascii "_ZNKSt7__cxx1112basic_stringIcSt11char_traitsIcESaIcEE6lengthEv\0"
 2914      5374375F 
 2914      5F637878 
 2914      31313132 
 2914      62617369 
 2915 17a5 FB010000 		.long	0x1fb
 2916 17a9 01       		.byte	0x1
 2917 17aa B2170000 		.long	0x17b2
 2918 17ae B8170000 		.long	0x17b8
 2919 17b2 08       		.uleb128 0x8
 2920 17b3 72700000 		.long	0x7072
 2921 17b7 00       		.byte	0
 2922 17b8 1D       		.uleb128 0x1d
 2923 17b9 1D020000 		.secrel32	LASF11
 2924 17bd 08       		.byte	0x8
 2925 17be D402     		.word	0x2d4
 2926 17c0 5F5A4E4B 		.ascii "_ZNKSt7__cxx1112basic_stringIcSt11char_traitsIcESaIcEE8max_sizeEv\0"
 2926      5374375F 
 2926      5F637878 
 2926      31313132 
 2926      62617369 
 2927 1802 FB010000 		.long	0x1fb
 2928 1806 01       		.byte	0x1
 2929 1807 0F180000 		.long	0x180f
 2930 180b 15180000 		.long	0x1815
 2931 180f 08       		.uleb128 0x8
GAS LISTING C:\Users\USER\AppData\Local\Temp\ccFSuTGK.s 			page 68


 2932 1810 72700000 		.long	0x7072
 2933 1814 00       		.byte	0
 2934 1815 1C       		.uleb128 0x1c
 2935 1816 72657369 		.ascii "resize\0"
 2935      7A6500
 2936 181d 09       		.byte	0x9
 2937 181e 5F01     		.word	0x15f
 2938 1820 5F5A4E53 		.ascii "_ZNSt7__cxx1112basic_stringIcSt11char_traitsIcESaIcEE6resizeEjc\0"
 2938      74375F5F 
 2938      63787831 
 2938      31313262 
 2938      61736963 
 2939 1860 01       		.byte	0x1
 2940 1861 69180000 		.long	0x1869
 2941 1865 79180000 		.long	0x1879
 2942 1869 08       		.uleb128 0x8
 2943 186a 6C700000 		.long	0x706c
 2944 186e 09       		.uleb128 0x9
 2945 186f FB010000 		.long	0x1fb
 2946 1873 09       		.uleb128 0x9
 2947 1874 70640000 		.long	0x6470
 2948 1878 00       		.byte	0
 2949 1879 1C       		.uleb128 0x1c
 2950 187a 72657369 		.ascii "resize\0"
 2950      7A6500
 2951 1881 08       		.byte	0x8
 2952 1882 EF02     		.word	0x2ef
 2953 1884 5F5A4E53 		.ascii "_ZNSt7__cxx1112basic_stringIcSt11char_traitsIcESaIcEE6resizeEj\0"
 2953      74375F5F 
 2953      63787831 
 2953      31313262 
 2953      61736963 
 2954 18c3 01       		.byte	0x1
 2955 18c4 CC180000 		.long	0x18cc
 2956 18c8 D7180000 		.long	0x18d7
 2957 18cc 08       		.uleb128 0x8
 2958 18cd 6C700000 		.long	0x706c
 2959 18d1 09       		.uleb128 0x9
 2960 18d2 FB010000 		.long	0x1fb
 2961 18d6 00       		.byte	0
 2962 18d7 1E       		.uleb128 0x1e
 2963 18d8 63617061 		.ascii "capacity\0"
 2963      63697479 
 2963      00
 2964 18e1 08       		.byte	0x8
 2965 18e2 0603     		.word	0x306
 2966 18e4 5F5A4E4B 		.ascii "_ZNKSt7__cxx1112basic_stringIcSt11char_traitsIcESaIcEE8capacityEv\0"
 2966      5374375F 
 2966      5F637878 
 2966      31313132 
 2966      62617369 
 2967 1926 FB010000 		.long	0x1fb
 2968 192a 01       		.byte	0x1
 2969 192b 33190000 		.long	0x1933
 2970 192f 39190000 		.long	0x1939
 2971 1933 08       		.uleb128 0x8
 2972 1934 72700000 		.long	0x7072
GAS LISTING C:\Users\USER\AppData\Local\Temp\ccFSuTGK.s 			page 69


 2973 1938 00       		.byte	0
 2974 1939 1C       		.uleb128 0x1c
 2975 193a 72657365 		.ascii "reserve\0"
 2975      72766500 
 2976 1942 09       		.byte	0x9
 2977 1943 1C01     		.word	0x11c
 2978 1945 5F5A4E53 		.ascii "_ZNSt7__cxx1112basic_stringIcSt11char_traitsIcESaIcEE7reserveEj\0"
 2978      74375F5F 
 2978      63787831 
 2978      31313262 
 2978      61736963 
 2979 1985 01       		.byte	0x1
 2980 1986 8E190000 		.long	0x198e
 2981 198a 99190000 		.long	0x1999
 2982 198e 08       		.uleb128 0x8
 2983 198f 6C700000 		.long	0x706c
 2984 1993 09       		.uleb128 0x9
 2985 1994 FB010000 		.long	0x1fb
 2986 1998 00       		.byte	0
 2987 1999 1C       		.uleb128 0x1c
 2988 199a 636C6561 		.ascii "clear\0"
 2988      7200
 2989 19a0 08       		.byte	0x8
 2990 19a1 2403     		.word	0x324
 2991 19a3 5F5A4E53 		.ascii "_ZNSt7__cxx1112basic_stringIcSt11char_traitsIcESaIcEE5clearEv\0"
 2991      74375F5F 
 2991      63787831 
 2991      31313262 
 2991      61736963 
 2992 19e1 01       		.byte	0x1
 2993 19e2 EA190000 		.long	0x19ea
 2994 19e6 F0190000 		.long	0x19f0
 2995 19ea 08       		.uleb128 0x8
 2996 19eb 6C700000 		.long	0x706c
 2997 19ef 00       		.byte	0
 2998 19f0 1E       		.uleb128 0x1e
 2999 19f1 656D7074 		.ascii "empty\0"
 2999      7900
 3000 19f7 08       		.byte	0x8
 3001 19f8 2C03     		.word	0x32c
 3002 19fa 5F5A4E4B 		.ascii "_ZNKSt7__cxx1112basic_stringIcSt11char_traitsIcESaIcEE5emptyEv\0"
 3002      5374375F 
 3002      5F637878 
 3002      31313132 
 3002      62617369 
 3003 1a39 106E0000 		.long	0x6e10
 3004 1a3d 01       		.byte	0x1
 3005 1a3e 461A0000 		.long	0x1a46
 3006 1a42 4C1A0000 		.long	0x1a4c
 3007 1a46 08       		.uleb128 0x8
 3008 1a47 72700000 		.long	0x7072
 3009 1a4b 00       		.byte	0
 3010 1a4c 1D       		.uleb128 0x1d
 3011 1a4d 4D010000 		.secrel32	LASF12
 3012 1a51 08       		.byte	0x8
 3013 1a52 3B03     		.word	0x33b
 3014 1a54 5F5A4E4B 		.ascii "_ZNKSt7__cxx1112basic_stringIcSt11char_traitsIcESaIcEEixEj\0"
GAS LISTING C:\Users\USER\AppData\Local\Temp\ccFSuTGK.s 			page 70


 3014      5374375F 
 3014      5F637878 
 3014      31313132 
 3014      62617369 
 3015 1a8f 87020000 		.long	0x287
 3016 1a93 01       		.byte	0x1
 3017 1a94 9C1A0000 		.long	0x1a9c
 3018 1a98 A71A0000 		.long	0x1aa7
 3019 1a9c 08       		.uleb128 0x8
 3020 1a9d 72700000 		.long	0x7072
 3021 1aa1 09       		.uleb128 0x9
 3022 1aa2 FB010000 		.long	0x1fb
 3023 1aa6 00       		.byte	0
 3024 1aa7 1D       		.uleb128 0x1d
 3025 1aa8 4D010000 		.secrel32	LASF12
 3026 1aac 08       		.byte	0x8
 3027 1aad 4C03     		.word	0x34c
 3028 1aaf 5F5A4E53 		.ascii "_ZNSt7__cxx1112basic_stringIcSt11char_traitsIcESaIcEEixEj\0"
 3028      74375F5F 
 3028      63787831 
 3028      31313262 
 3028      61736963 
 3029 1ae9 7B020000 		.long	0x27b
 3030 1aed 01       		.byte	0x1
 3031 1aee F61A0000 		.long	0x1af6
 3032 1af2 011B0000 		.long	0x1b01
 3033 1af6 08       		.uleb128 0x8
 3034 1af7 6C700000 		.long	0x706c
 3035 1afb 09       		.uleb128 0x9
 3036 1afc FB010000 		.long	0x1fb
 3037 1b00 00       		.byte	0
 3038 1b01 1E       		.uleb128 0x1e
 3039 1b02 617400   		.ascii "at\0"
 3040 1b05 08       		.byte	0x8
 3041 1b06 6103     		.word	0x361
 3042 1b08 5F5A4E4B 		.ascii "_ZNKSt7__cxx1112basic_stringIcSt11char_traitsIcESaIcEE2atEj\0"
 3042      5374375F 
 3042      5F637878 
 3042      31313132 
 3042      62617369 
 3043 1b44 87020000 		.long	0x287
 3044 1b48 01       		.byte	0x1
 3045 1b49 511B0000 		.long	0x1b51
 3046 1b4d 5C1B0000 		.long	0x1b5c
 3047 1b51 08       		.uleb128 0x8
 3048 1b52 72700000 		.long	0x7072
 3049 1b56 09       		.uleb128 0x9
 3050 1b57 FB010000 		.long	0x1fb
 3051 1b5b 00       		.byte	0
 3052 1b5c 1E       		.uleb128 0x1e
 3053 1b5d 617400   		.ascii "at\0"
 3054 1b60 08       		.byte	0x8
 3055 1b61 7603     		.word	0x376
 3056 1b63 5F5A4E53 		.ascii "_ZNSt7__cxx1112basic_stringIcSt11char_traitsIcESaIcEE2atEj\0"
 3056      74375F5F 
 3056      63787831 
 3056      31313262 
GAS LISTING C:\Users\USER\AppData\Local\Temp\ccFSuTGK.s 			page 71


 3056      61736963 
 3057 1b9e 7B020000 		.long	0x27b
 3058 1ba2 01       		.byte	0x1
 3059 1ba3 AB1B0000 		.long	0x1bab
 3060 1ba7 B61B0000 		.long	0x1bb6
 3061 1bab 08       		.uleb128 0x8
 3062 1bac 6C700000 		.long	0x706c
 3063 1bb0 09       		.uleb128 0x9
 3064 1bb1 FB010000 		.long	0x1fb
 3065 1bb5 00       		.byte	0
 3066 1bb6 1D       		.uleb128 0x1d
 3067 1bb7 87010000 		.secrel32	LASF13
 3068 1bbb 08       		.byte	0x8
 3069 1bbc A903     		.word	0x3a9
 3070 1bbe 5F5A4E53 		.ascii "_ZNSt7__cxx1112basic_stringIcSt11char_traitsIcESaIcEEpLERKS4_\0"
 3070      74375F5F 
 3070      63787831 
 3070      31313262 
 3070      61736963 
 3071 1bfc 90700000 		.long	0x7090
 3072 1c00 01       		.byte	0x1
 3073 1c01 091C0000 		.long	0x1c09
 3074 1c05 141C0000 		.long	0x1c14
 3075 1c09 08       		.uleb128 0x8
 3076 1c0a 6C700000 		.long	0x706c
 3077 1c0e 09       		.uleb128 0x9
 3078 1c0f 8A700000 		.long	0x708a
 3079 1c13 00       		.byte	0
 3080 1c14 1D       		.uleb128 0x1d
 3081 1c15 87010000 		.secrel32	LASF13
 3082 1c19 08       		.byte	0x8
 3083 1c1a B203     		.word	0x3b2
 3084 1c1c 5F5A4E53 		.ascii "_ZNSt7__cxx1112basic_stringIcSt11char_traitsIcESaIcEEpLEPKc\0"
 3084      74375F5F 
 3084      63787831 
 3084      31313262 
 3084      61736963 
 3085 1c58 90700000 		.long	0x7090
 3086 1c5c 01       		.byte	0x1
 3087 1c5d 651C0000 		.long	0x1c65
 3088 1c61 701C0000 		.long	0x1c70
 3089 1c65 08       		.uleb128 0x8
 3090 1c66 6C700000 		.long	0x706c
 3091 1c6a 09       		.uleb128 0x9
 3092 1c6b BE670000 		.long	0x67be
 3093 1c6f 00       		.byte	0
 3094 1c70 1D       		.uleb128 0x1d
 3095 1c71 87010000 		.secrel32	LASF13
 3096 1c75 08       		.byte	0x8
 3097 1c76 BB03     		.word	0x3bb
 3098 1c78 5F5A4E53 		.ascii "_ZNSt7__cxx1112basic_stringIcSt11char_traitsIcESaIcEEpLEc\0"
 3098      74375F5F 
 3098      63787831 
 3098      31313262 
 3098      61736963 
 3099 1cb2 90700000 		.long	0x7090
 3100 1cb6 01       		.byte	0x1
GAS LISTING C:\Users\USER\AppData\Local\Temp\ccFSuTGK.s 			page 72


 3101 1cb7 BF1C0000 		.long	0x1cbf
 3102 1cbb CA1C0000 		.long	0x1cca
 3103 1cbf 08       		.uleb128 0x8
 3104 1cc0 6C700000 		.long	0x706c
 3105 1cc4 09       		.uleb128 0x9
 3106 1cc5 70640000 		.long	0x6470
 3107 1cc9 00       		.byte	0
 3108 1cca 1D       		.uleb128 0x1d
 3109 1ccb 63010000 		.secrel32	LASF14
 3110 1ccf 08       		.byte	0x8
 3111 1cd0 D203     		.word	0x3d2
 3112 1cd2 5F5A4E53 		.ascii "_ZNSt7__cxx1112basic_stringIcSt11char_traitsIcESaIcEE6appendERKS4_\0"
 3112      74375F5F 
 3112      63787831 
 3112      31313262 
 3112      61736963 
 3113 1d15 90700000 		.long	0x7090
 3114 1d19 01       		.byte	0x1
 3115 1d1a 221D0000 		.long	0x1d22
 3116 1d1e 2D1D0000 		.long	0x1d2d
 3117 1d22 08       		.uleb128 0x8
 3118 1d23 6C700000 		.long	0x706c
 3119 1d27 09       		.uleb128 0x9
 3120 1d28 8A700000 		.long	0x708a
 3121 1d2c 00       		.byte	0
 3122 1d2d 1D       		.uleb128 0x1d
 3123 1d2e 63010000 		.secrel32	LASF14
 3124 1d32 08       		.byte	0x8
 3125 1d33 E303     		.word	0x3e3
 3126 1d35 5F5A4E53 		.ascii "_ZNSt7__cxx1112basic_stringIcSt11char_traitsIcESaIcEE6appendERKS4_jj\0"
 3126      74375F5F 
 3126      63787831 
 3126      31313262 
 3126      61736963 
 3127 1d7a 90700000 		.long	0x7090
 3128 1d7e 01       		.byte	0x1
 3129 1d7f 871D0000 		.long	0x1d87
 3130 1d83 9C1D0000 		.long	0x1d9c
 3131 1d87 08       		.uleb128 0x8
 3132 1d88 6C700000 		.long	0x706c
 3133 1d8c 09       		.uleb128 0x9
 3134 1d8d 8A700000 		.long	0x708a
 3135 1d91 09       		.uleb128 0x9
 3136 1d92 FB010000 		.long	0x1fb
 3137 1d96 09       		.uleb128 0x9
 3138 1d97 FB010000 		.long	0x1fb
 3139 1d9b 00       		.byte	0
 3140 1d9c 1D       		.uleb128 0x1d
 3141 1d9d 63010000 		.secrel32	LASF14
 3142 1da1 08       		.byte	0x8
 3143 1da2 EF03     		.word	0x3ef
 3144 1da4 5F5A4E53 		.ascii "_ZNSt7__cxx1112basic_stringIcSt11char_traitsIcESaIcEE6appendEPKcj\0"
 3144      74375F5F 
 3144      63787831 
 3144      31313262 
 3144      61736963 
 3145 1de6 90700000 		.long	0x7090
GAS LISTING C:\Users\USER\AppData\Local\Temp\ccFSuTGK.s 			page 73


 3146 1dea 01       		.byte	0x1
 3147 1deb F31D0000 		.long	0x1df3
 3148 1def 031E0000 		.long	0x1e03
 3149 1df3 08       		.uleb128 0x8
 3150 1df4 6C700000 		.long	0x706c
 3151 1df8 09       		.uleb128 0x9
 3152 1df9 BE670000 		.long	0x67be
 3153 1dfd 09       		.uleb128 0x9
 3154 1dfe FB010000 		.long	0x1fb
 3155 1e02 00       		.byte	0
 3156 1e03 1D       		.uleb128 0x1d
 3157 1e04 63010000 		.secrel32	LASF14
 3158 1e08 08       		.byte	0x8
 3159 1e09 FC03     		.word	0x3fc
 3160 1e0b 5F5A4E53 		.ascii "_ZNSt7__cxx1112basic_stringIcSt11char_traitsIcESaIcEE6appendEPKc\0"
 3160      74375F5F 
 3160      63787831 
 3160      31313262 
 3160      61736963 
 3161 1e4c 90700000 		.long	0x7090
 3162 1e50 01       		.byte	0x1
 3163 1e51 591E0000 		.long	0x1e59
 3164 1e55 641E0000 		.long	0x1e64
 3165 1e59 08       		.uleb128 0x8
 3166 1e5a 6C700000 		.long	0x706c
 3167 1e5e 09       		.uleb128 0x9
 3168 1e5f BE670000 		.long	0x67be
 3169 1e63 00       		.byte	0
 3170 1e64 1D       		.uleb128 0x1d
 3171 1e65 63010000 		.secrel32	LASF14
 3172 1e69 08       		.byte	0x8
 3173 1e6a 0D04     		.word	0x40d
 3174 1e6c 5F5A4E53 		.ascii "_ZNSt7__cxx1112basic_stringIcSt11char_traitsIcESaIcEE6appendEjc\0"
 3174      74375F5F 
 3174      63787831 
 3174      31313262 
 3174      61736963 
 3175 1eac 90700000 		.long	0x7090
 3176 1eb0 01       		.byte	0x1
 3177 1eb1 B91E0000 		.long	0x1eb9
 3178 1eb5 C91E0000 		.long	0x1ec9
 3179 1eb9 08       		.uleb128 0x8
 3180 1eba 6C700000 		.long	0x706c
 3181 1ebe 09       		.uleb128 0x9
 3182 1ebf FB010000 		.long	0x1fb
 3183 1ec3 09       		.uleb128 0x9
 3184 1ec4 70640000 		.long	0x6470
 3185 1ec8 00       		.byte	0
 3186 1ec9 1C       		.uleb128 0x1c
 3187 1eca 70757368 		.ascii "push_back\0"
 3187      5F626163 
 3187      6B00
 3188 1ed4 08       		.byte	0x8
 3189 1ed5 3204     		.word	0x432
 3190 1ed7 5F5A4E53 		.ascii "_ZNSt7__cxx1112basic_stringIcSt11char_traitsIcESaIcEE9push_backEc\0"
 3190      74375F5F 
 3190      63787831 
GAS LISTING C:\Users\USER\AppData\Local\Temp\ccFSuTGK.s 			page 74


 3190      31313262 
 3190      61736963 
 3191 1f19 01       		.byte	0x1
 3192 1f1a 221F0000 		.long	0x1f22
 3193 1f1e 2D1F0000 		.long	0x1f2d
 3194 1f22 08       		.uleb128 0x8
 3195 1f23 6C700000 		.long	0x706c
 3196 1f27 09       		.uleb128 0x9
 3197 1f28 70640000 		.long	0x6470
 3198 1f2c 00       		.byte	0
 3199 1f2d 1D       		.uleb128 0x1d
 3200 1f2e 09010000 		.secrel32	LASF15
 3201 1f32 08       		.byte	0x8
 3202 1f33 4104     		.word	0x441
 3203 1f35 5F5A4E53 		.ascii "_ZNSt7__cxx1112basic_stringIcSt11char_traitsIcESaIcEE6assignERKS4_\0"
 3203      74375F5F 
 3203      63787831 
 3203      31313262 
 3203      61736963 
 3204 1f78 90700000 		.long	0x7090
 3205 1f7c 01       		.byte	0x1
 3206 1f7d 851F0000 		.long	0x1f85
 3207 1f81 901F0000 		.long	0x1f90
 3208 1f85 08       		.uleb128 0x8
 3209 1f86 6C700000 		.long	0x706c
 3210 1f8a 09       		.uleb128 0x9
 3211 1f8b 8A700000 		.long	0x708a
 3212 1f8f 00       		.byte	0
 3213 1f90 1D       		.uleb128 0x1d
 3214 1f91 09010000 		.secrel32	LASF15
 3215 1f95 08       		.byte	0x8
 3216 1f96 6704     		.word	0x467
 3217 1f98 5F5A4E53 		.ascii "_ZNSt7__cxx1112basic_stringIcSt11char_traitsIcESaIcEE6assignERKS4_jj\0"
 3217      74375F5F 
 3217      63787831 
 3217      31313262 
 3217      61736963 
 3218 1fdd 90700000 		.long	0x7090
 3219 1fe1 01       		.byte	0x1
 3220 1fe2 EA1F0000 		.long	0x1fea
 3221 1fe6 FF1F0000 		.long	0x1fff
 3222 1fea 08       		.uleb128 0x8
 3223 1feb 6C700000 		.long	0x706c
 3224 1fef 09       		.uleb128 0x9
 3225 1ff0 8A700000 		.long	0x708a
 3226 1ff4 09       		.uleb128 0x9
 3227 1ff5 FB010000 		.long	0x1fb
 3228 1ff9 09       		.uleb128 0x9
 3229 1ffa FB010000 		.long	0x1fb
 3230 1ffe 00       		.byte	0
 3231 1fff 1D       		.uleb128 0x1d
 3232 2000 09010000 		.secrel32	LASF15
 3233 2004 08       		.byte	0x8
 3234 2005 7704     		.word	0x477
 3235 2007 5F5A4E53 		.ascii "_ZNSt7__cxx1112basic_stringIcSt11char_traitsIcESaIcEE6assignEPKcj\0"
 3235      74375F5F 
 3235      63787831 
GAS LISTING C:\Users\USER\AppData\Local\Temp\ccFSuTGK.s 			page 75


 3235      31313262 
 3235      61736963 
 3236 2049 90700000 		.long	0x7090
 3237 204d 01       		.byte	0x1
 3238 204e 56200000 		.long	0x2056
 3239 2052 66200000 		.long	0x2066
 3240 2056 08       		.uleb128 0x8
 3241 2057 6C700000 		.long	0x706c
 3242 205b 09       		.uleb128 0x9
 3243 205c BE670000 		.long	0x67be
 3244 2060 09       		.uleb128 0x9
 3245 2061 FB010000 		.long	0x1fb
 3246 2065 00       		.byte	0
 3247 2066 1D       		.uleb128 0x1d
 3248 2067 09010000 		.secrel32	LASF15
 3249 206b 08       		.byte	0x8
 3250 206c 8704     		.word	0x487
 3251 206e 5F5A4E53 		.ascii "_ZNSt7__cxx1112basic_stringIcSt11char_traitsIcESaIcEE6assignEPKc\0"
 3251      74375F5F 
 3251      63787831 
 3251      31313262 
 3251      61736963 
 3252 20af 90700000 		.long	0x7090
 3253 20b3 01       		.byte	0x1
 3254 20b4 BC200000 		.long	0x20bc
 3255 20b8 C7200000 		.long	0x20c7
 3256 20bc 08       		.uleb128 0x8
 3257 20bd 6C700000 		.long	0x706c
 3258 20c1 09       		.uleb128 0x9
 3259 20c2 BE670000 		.long	0x67be
 3260 20c6 00       		.byte	0
 3261 20c7 1D       		.uleb128 0x1d
 3262 20c8 09010000 		.secrel32	LASF15
 3263 20cc 08       		.byte	0x8
 3264 20cd 9804     		.word	0x498
 3265 20cf 5F5A4E53 		.ascii "_ZNSt7__cxx1112basic_stringIcSt11char_traitsIcESaIcEE6assignEjc\0"
 3265      74375F5F 
 3265      63787831 
 3265      31313262 
 3265      61736963 
 3266 210f 90700000 		.long	0x7090
 3267 2113 01       		.byte	0x1
 3268 2114 1C210000 		.long	0x211c
 3269 2118 2C210000 		.long	0x212c
 3270 211c 08       		.uleb128 0x8
 3271 211d 6C700000 		.long	0x706c
 3272 2121 09       		.uleb128 0x9
 3273 2122 FB010000 		.long	0x1fb
 3274 2126 09       		.uleb128 0x9
 3275 2127 70640000 		.long	0x6470
 3276 212b 00       		.byte	0
 3277 212c 1A       		.uleb128 0x1a
 3278 212d 7B010000 		.secrel32	LASF16
 3279 2131 08       		.byte	0x8
 3280 2132 DF04     		.word	0x4df
 3281 2134 5F5A4E53 		.ascii "_ZNSt7__cxx1112basic_stringIcSt11char_traitsIcESaIcEE6insertEN9__gnu_cxx17__normal_iterato
 3281      74375F5F 
GAS LISTING C:\Users\USER\AppData\Local\Temp\ccFSuTGK.s 			page 76


 3281      63787831 
 3281      31313262 
 3281      61736963 
 3282 219a 01       		.byte	0x1
 3283 219b A3210000 		.long	0x21a3
 3284 219f B8210000 		.long	0x21b8
 3285 21a3 08       		.uleb128 0x8
 3286 21a4 6C700000 		.long	0x706c
 3287 21a8 09       		.uleb128 0x9
 3288 21a9 9F020000 		.long	0x29f
 3289 21ad 09       		.uleb128 0x9
 3290 21ae FB010000 		.long	0x1fb
 3291 21b2 09       		.uleb128 0x9
 3292 21b3 70640000 		.long	0x6470
 3293 21b7 00       		.byte	0
 3294 21b8 1D       		.uleb128 0x1d
 3295 21b9 7B010000 		.secrel32	LASF16
 3296 21bd 08       		.byte	0x8
 3297 21be 2B05     		.word	0x52b
 3298 21c0 5F5A4E53 		.ascii "_ZNSt7__cxx1112basic_stringIcSt11char_traitsIcESaIcEE6insertEjRKS4_\0"
 3298      74375F5F 
 3298      63787831 
 3298      31313262 
 3298      61736963 
 3299 2204 90700000 		.long	0x7090
 3300 2208 01       		.byte	0x1
 3301 2209 11220000 		.long	0x2211
 3302 220d 21220000 		.long	0x2221
 3303 2211 08       		.uleb128 0x8
 3304 2212 6C700000 		.long	0x706c
 3305 2216 09       		.uleb128 0x9
 3306 2217 FB010000 		.long	0x1fb
 3307 221b 09       		.uleb128 0x9
 3308 221c 8A700000 		.long	0x708a
 3309 2220 00       		.byte	0
 3310 2221 1D       		.uleb128 0x1d
 3311 2222 7B010000 		.secrel32	LASF16
 3312 2226 08       		.byte	0x8
 3313 2227 4205     		.word	0x542
 3314 2229 5F5A4E53 		.ascii "_ZNSt7__cxx1112basic_stringIcSt11char_traitsIcESaIcEE6insertEjRKS4_jj\0"
 3314      74375F5F 
 3314      63787831 
 3314      31313262 
 3314      61736963 
 3315 226f 90700000 		.long	0x7090
 3316 2273 01       		.byte	0x1
 3317 2274 7C220000 		.long	0x227c
 3318 2278 96220000 		.long	0x2296
 3319 227c 08       		.uleb128 0x8
 3320 227d 6C700000 		.long	0x706c
 3321 2281 09       		.uleb128 0x9
 3322 2282 FB010000 		.long	0x1fb
 3323 2286 09       		.uleb128 0x9
 3324 2287 8A700000 		.long	0x708a
 3325 228b 09       		.uleb128 0x9
 3326 228c FB010000 		.long	0x1fb
 3327 2290 09       		.uleb128 0x9
GAS LISTING C:\Users\USER\AppData\Local\Temp\ccFSuTGK.s 			page 77


 3328 2291 FB010000 		.long	0x1fb
 3329 2295 00       		.byte	0
 3330 2296 1D       		.uleb128 0x1d
 3331 2297 7B010000 		.secrel32	LASF16
 3332 229b 08       		.byte	0x8
 3333 229c 5905     		.word	0x559
 3334 229e 5F5A4E53 		.ascii "_ZNSt7__cxx1112basic_stringIcSt11char_traitsIcESaIcEE6insertEjPKcj\0"
 3334      74375F5F 
 3334      63787831 
 3334      31313262 
 3334      61736963 
 3335 22e1 90700000 		.long	0x7090
 3336 22e5 01       		.byte	0x1
 3337 22e6 EE220000 		.long	0x22ee
 3338 22ea 03230000 		.long	0x2303
 3339 22ee 08       		.uleb128 0x8
 3340 22ef 6C700000 		.long	0x706c
 3341 22f3 09       		.uleb128 0x9
 3342 22f4 FB010000 		.long	0x1fb
 3343 22f8 09       		.uleb128 0x9
 3344 22f9 BE670000 		.long	0x67be
 3345 22fd 09       		.uleb128 0x9
 3346 22fe FB010000 		.long	0x1fb
 3347 2302 00       		.byte	0
 3348 2303 1D       		.uleb128 0x1d
 3349 2304 7B010000 		.secrel32	LASF16
 3350 2308 08       		.byte	0x8
 3351 2309 6C05     		.word	0x56c
 3352 230b 5F5A4E53 		.ascii "_ZNSt7__cxx1112basic_stringIcSt11char_traitsIcESaIcEE6insertEjPKc\0"
 3352      74375F5F 
 3352      63787831 
 3352      31313262 
 3352      61736963 
 3353 234d 90700000 		.long	0x7090
 3354 2351 01       		.byte	0x1
 3355 2352 5A230000 		.long	0x235a
 3356 2356 6A230000 		.long	0x236a
 3357 235a 08       		.uleb128 0x8
 3358 235b 6C700000 		.long	0x706c
 3359 235f 09       		.uleb128 0x9
 3360 2360 FB010000 		.long	0x1fb
 3361 2364 09       		.uleb128 0x9
 3362 2365 BE670000 		.long	0x67be
 3363 2369 00       		.byte	0
 3364 236a 1D       		.uleb128 0x1d
 3365 236b 7B010000 		.secrel32	LASF16
 3366 236f 08       		.byte	0x8
 3367 2370 8405     		.word	0x584
 3368 2372 5F5A4E53 		.ascii "_ZNSt7__cxx1112basic_stringIcSt11char_traitsIcESaIcEE6insertEjjc\0"
 3368      74375F5F 
 3368      63787831 
 3368      31313262 
 3368      61736963 
 3369 23b3 90700000 		.long	0x7090
 3370 23b7 01       		.byte	0x1
 3371 23b8 C0230000 		.long	0x23c0
 3372 23bc D5230000 		.long	0x23d5
GAS LISTING C:\Users\USER\AppData\Local\Temp\ccFSuTGK.s 			page 78


 3373 23c0 08       		.uleb128 0x8
 3374 23c1 6C700000 		.long	0x706c
 3375 23c5 09       		.uleb128 0x9
 3376 23c6 FB010000 		.long	0x1fb
 3377 23ca 09       		.uleb128 0x9
 3378 23cb FB010000 		.long	0x1fb
 3379 23cf 09       		.uleb128 0x9
 3380 23d0 70640000 		.long	0x6470
 3381 23d4 00       		.byte	0
 3382 23d5 1D       		.uleb128 0x1d
 3383 23d6 7B010000 		.secrel32	LASF16
 3384 23da 08       		.byte	0x8
 3385 23db 9605     		.word	0x596
 3386 23dd 5F5A4E53 		.ascii "_ZNSt7__cxx1112basic_stringIcSt11char_traitsIcESaIcEE6insertEN9__gnu_cxx17__normal_iterato
 3386      74375F5F 
 3386      63787831 
 3386      31313262 
 3386      61736963 
 3387 2442 9F020000 		.long	0x29f
 3388 2446 01       		.byte	0x1
 3389 2447 4F240000 		.long	0x244f
 3390 244b 5F240000 		.long	0x245f
 3391 244f 08       		.uleb128 0x8
 3392 2450 6C700000 		.long	0x706c
 3393 2454 09       		.uleb128 0x9
 3394 2455 FF020000 		.long	0x2ff
 3395 2459 09       		.uleb128 0x9
 3396 245a 70640000 		.long	0x6470
 3397 245e 00       		.byte	0
 3398 245f 1E       		.uleb128 0x1e
 3399 2460 65726173 		.ascii "erase\0"
 3399      6500
 3400 2466 08       		.byte	0x8
 3401 2467 AE05     		.word	0x5ae
 3402 2469 5F5A4E53 		.ascii "_ZNSt7__cxx1112basic_stringIcSt11char_traitsIcESaIcEE5eraseEjj\0"
 3402      74375F5F 
 3402      63787831 
 3402      31313262 
 3402      61736963 
 3403 24a8 90700000 		.long	0x7090
 3404 24ac 01       		.byte	0x1
 3405 24ad B5240000 		.long	0x24b5
 3406 24b1 C5240000 		.long	0x24c5
 3407 24b5 08       		.uleb128 0x8
 3408 24b6 6C700000 		.long	0x706c
 3409 24ba 09       		.uleb128 0x9
 3410 24bb FB010000 		.long	0x1fb
 3411 24bf 09       		.uleb128 0x9
 3412 24c0 FB010000 		.long	0x1fb
 3413 24c4 00       		.byte	0
 3414 24c5 1E       		.uleb128 0x1e
 3415 24c6 65726173 		.ascii "erase\0"
 3415      6500
 3416 24cc 08       		.byte	0x8
 3417 24cd BE05     		.word	0x5be
 3418 24cf 5F5A4E53 		.ascii "_ZNSt7__cxx1112basic_stringIcSt11char_traitsIcESaIcEE5eraseEN9__gnu_cxx17__normal_iterator
 3418      74375F5F 
GAS LISTING C:\Users\USER\AppData\Local\Temp\ccFSuTGK.s 			page 79


 3418      63787831 
 3418      31313262 
 3418      61736963 
 3419 2532 9F020000 		.long	0x29f
 3420 2536 01       		.byte	0x1
 3421 2537 3F250000 		.long	0x253f
 3422 253b 4A250000 		.long	0x254a
 3423 253f 08       		.uleb128 0x8
 3424 2540 6C700000 		.long	0x706c
 3425 2544 09       		.uleb128 0x9
 3426 2545 FF020000 		.long	0x2ff
 3427 2549 00       		.byte	0
 3428 254a 1E       		.uleb128 0x1e
 3429 254b 65726173 		.ascii "erase\0"
 3429      6500
 3430 2551 08       		.byte	0x8
 3431 2552 D105     		.word	0x5d1
 3432 2554 5F5A4E53 		.ascii "_ZNSt7__cxx1112basic_stringIcSt11char_traitsIcESaIcEE5eraseEN9__gnu_cxx17__normal_iterator
 3432      74375F5F 
 3432      63787831 
 3432      31313262 
 3432      61736963 
 3433 25ba 9F020000 		.long	0x29f
 3434 25be 01       		.byte	0x1
 3435 25bf C7250000 		.long	0x25c7
 3436 25c3 D7250000 		.long	0x25d7
 3437 25c7 08       		.uleb128 0x8
 3438 25c8 6C700000 		.long	0x706c
 3439 25cc 09       		.uleb128 0x9
 3440 25cd FF020000 		.long	0x2ff
 3441 25d1 09       		.uleb128 0x9
 3442 25d2 FF020000 		.long	0x2ff
 3443 25d6 00       		.byte	0
 3444 25d7 1D       		.uleb128 0x1d
 3445 25d8 0A000000 		.secrel32	LASF17
 3446 25dc 08       		.byte	0x8
 3447 25dd F705     		.word	0x5f7
 3448 25df 5F5A4E53 		.ascii "_ZNSt7__cxx1112basic_stringIcSt11char_traitsIcESaIcEE7replaceEjjRKS4_\0"
 3448      74375F5F 
 3448      63787831 
 3448      31313262 
 3448      61736963 
 3449 2625 90700000 		.long	0x7090
 3450 2629 01       		.byte	0x1
 3451 262a 32260000 		.long	0x2632
 3452 262e 47260000 		.long	0x2647
 3453 2632 08       		.uleb128 0x8
 3454 2633 6C700000 		.long	0x706c
 3455 2637 09       		.uleb128 0x9
 3456 2638 FB010000 		.long	0x1fb
 3457 263c 09       		.uleb128 0x9
 3458 263d FB010000 		.long	0x1fb
 3459 2641 09       		.uleb128 0x9
 3460 2642 8A700000 		.long	0x708a
 3461 2646 00       		.byte	0
 3462 2647 1D       		.uleb128 0x1d
 3463 2648 0A000000 		.secrel32	LASF17
GAS LISTING C:\Users\USER\AppData\Local\Temp\ccFSuTGK.s 			page 80


 3464 264c 08       		.byte	0x8
 3465 264d 0D06     		.word	0x60d
 3466 264f 5F5A4E53 		.ascii "_ZNSt7__cxx1112basic_stringIcSt11char_traitsIcESaIcEE7replaceEjjRKS4_jj\0"
 3466      74375F5F 
 3466      63787831 
 3466      31313262 
 3466      61736963 
 3467 2697 90700000 		.long	0x7090
 3468 269b 01       		.byte	0x1
 3469 269c A4260000 		.long	0x26a4
 3470 26a0 C3260000 		.long	0x26c3
 3471 26a4 08       		.uleb128 0x8
 3472 26a5 6C700000 		.long	0x706c
 3473 26a9 09       		.uleb128 0x9
 3474 26aa FB010000 		.long	0x1fb
 3475 26ae 09       		.uleb128 0x9
 3476 26af FB010000 		.long	0x1fb
 3477 26b3 09       		.uleb128 0x9
 3478 26b4 8A700000 		.long	0x708a
 3479 26b8 09       		.uleb128 0x9
 3480 26b9 FB010000 		.long	0x1fb
 3481 26bd 09       		.uleb128 0x9
 3482 26be FB010000 		.long	0x1fb
 3483 26c2 00       		.byte	0
 3484 26c3 1D       		.uleb128 0x1d
 3485 26c4 0A000000 		.secrel32	LASF17
 3486 26c8 08       		.byte	0x8
 3487 26c9 2606     		.word	0x626
 3488 26cb 5F5A4E53 		.ascii "_ZNSt7__cxx1112basic_stringIcSt11char_traitsIcESaIcEE7replaceEjjPKcj\0"
 3488      74375F5F 
 3488      63787831 
 3488      31313262 
 3488      61736963 
 3489 2710 90700000 		.long	0x7090
 3490 2714 01       		.byte	0x1
 3491 2715 1D270000 		.long	0x271d
 3492 2719 37270000 		.long	0x2737
 3493 271d 08       		.uleb128 0x8
 3494 271e 6C700000 		.long	0x706c
 3495 2722 09       		.uleb128 0x9
 3496 2723 FB010000 		.long	0x1fb
 3497 2727 09       		.uleb128 0x9
 3498 2728 FB010000 		.long	0x1fb
 3499 272c 09       		.uleb128 0x9
 3500 272d BE670000 		.long	0x67be
 3501 2731 09       		.uleb128 0x9
 3502 2732 FB010000 		.long	0x1fb
 3503 2736 00       		.byte	0
 3504 2737 1D       		.uleb128 0x1d
 3505 2738 0A000000 		.secrel32	LASF17
 3506 273c 08       		.byte	0x8
 3507 273d 3F06     		.word	0x63f
 3508 273f 5F5A4E53 		.ascii "_ZNSt7__cxx1112basic_stringIcSt11char_traitsIcESaIcEE7replaceEjjPKc\0"
 3508      74375F5F 
 3508      63787831 
 3508      31313262 
 3508      61736963 
GAS LISTING C:\Users\USER\AppData\Local\Temp\ccFSuTGK.s 			page 81


 3509 2783 90700000 		.long	0x7090
 3510 2787 01       		.byte	0x1
 3511 2788 90270000 		.long	0x2790
 3512 278c A5270000 		.long	0x27a5
 3513 2790 08       		.uleb128 0x8
 3514 2791 6C700000 		.long	0x706c
 3515 2795 09       		.uleb128 0x9
 3516 2796 FB010000 		.long	0x1fb
 3517 279a 09       		.uleb128 0x9
 3518 279b FB010000 		.long	0x1fb
 3519 279f 09       		.uleb128 0x9
 3520 27a0 BE670000 		.long	0x67be
 3521 27a4 00       		.byte	0
 3522 27a5 1D       		.uleb128 0x1d
 3523 27a6 0A000000 		.secrel32	LASF17
 3524 27aa 08       		.byte	0x8
 3525 27ab 5706     		.word	0x657
 3526 27ad 5F5A4E53 		.ascii "_ZNSt7__cxx1112basic_stringIcSt11char_traitsIcESaIcEE7replaceEjjjc\0"
 3526      74375F5F 
 3526      63787831 
 3526      31313262 
 3526      61736963 
 3527 27f0 90700000 		.long	0x7090
 3528 27f4 01       		.byte	0x1
 3529 27f5 FD270000 		.long	0x27fd
 3530 27f9 17280000 		.long	0x2817
 3531 27fd 08       		.uleb128 0x8
 3532 27fe 6C700000 		.long	0x706c
 3533 2802 09       		.uleb128 0x9
 3534 2803 FB010000 		.long	0x1fb
 3535 2807 09       		.uleb128 0x9
 3536 2808 FB010000 		.long	0x1fb
 3537 280c 09       		.uleb128 0x9
 3538 280d FB010000 		.long	0x1fb
 3539 2811 09       		.uleb128 0x9
 3540 2812 70640000 		.long	0x6470
 3541 2816 00       		.byte	0
 3542 2817 1D       		.uleb128 0x1d
 3543 2818 0A000000 		.secrel32	LASF17
 3544 281c 08       		.byte	0x8
 3545 281d 6906     		.word	0x669
 3546 281f 5F5A4E53 		.ascii "_ZNSt7__cxx1112basic_stringIcSt11char_traitsIcESaIcEE7replaceEN9__gnu_cxx17__normal_iterat
 3546      74375F5F 
 3546      63787831 
 3546      31313262 
 3546      61736963 
 3547 288c 90700000 		.long	0x7090
 3548 2890 01       		.byte	0x1
 3549 2891 99280000 		.long	0x2899
 3550 2895 AE280000 		.long	0x28ae
 3551 2899 08       		.uleb128 0x8
 3552 289a 6C700000 		.long	0x706c
 3553 289e 09       		.uleb128 0x9
 3554 289f FF020000 		.long	0x2ff
 3555 28a3 09       		.uleb128 0x9
 3556 28a4 FF020000 		.long	0x2ff
 3557 28a8 09       		.uleb128 0x9
GAS LISTING C:\Users\USER\AppData\Local\Temp\ccFSuTGK.s 			page 82


 3558 28a9 8A700000 		.long	0x708a
 3559 28ad 00       		.byte	0
 3560 28ae 1D       		.uleb128 0x1d
 3561 28af 0A000000 		.secrel32	LASF17
 3562 28b3 08       		.byte	0x8
 3563 28b4 7D06     		.word	0x67d
 3564 28b6 5F5A4E53 		.ascii "_ZNSt7__cxx1112basic_stringIcSt11char_traitsIcESaIcEE7replaceEN9__gnu_cxx17__normal_iterat
 3564      74375F5F 
 3564      63787831 
 3564      31313262 
 3564      61736963 
 3565 2922 90700000 		.long	0x7090
 3566 2926 01       		.byte	0x1
 3567 2927 2F290000 		.long	0x292f
 3568 292b 49290000 		.long	0x2949
 3569 292f 08       		.uleb128 0x8
 3570 2930 6C700000 		.long	0x706c
 3571 2934 09       		.uleb128 0x9
 3572 2935 FF020000 		.long	0x2ff
 3573 2939 09       		.uleb128 0x9
 3574 293a FF020000 		.long	0x2ff
 3575 293e 09       		.uleb128 0x9
 3576 293f BE670000 		.long	0x67be
 3577 2943 09       		.uleb128 0x9
 3578 2944 FB010000 		.long	0x1fb
 3579 2948 00       		.byte	0
 3580 2949 1D       		.uleb128 0x1d
 3581 294a 0A000000 		.secrel32	LASF17
 3582 294e 08       		.byte	0x8
 3583 294f 9306     		.word	0x693
 3584 2951 5F5A4E53 		.ascii "_ZNSt7__cxx1112basic_stringIcSt11char_traitsIcESaIcEE7replaceEN9__gnu_cxx17__normal_iterat
 3584      74375F5F 
 3584      63787831 
 3584      31313262 
 3584      61736963 
 3585 29bc 90700000 		.long	0x7090
 3586 29c0 01       		.byte	0x1
 3587 29c1 C9290000 		.long	0x29c9
 3588 29c5 DE290000 		.long	0x29de
 3589 29c9 08       		.uleb128 0x8
 3590 29ca 6C700000 		.long	0x706c
 3591 29ce 09       		.uleb128 0x9
 3592 29cf FF020000 		.long	0x2ff
 3593 29d3 09       		.uleb128 0x9
 3594 29d4 FF020000 		.long	0x2ff
 3595 29d8 09       		.uleb128 0x9
 3596 29d9 BE670000 		.long	0x67be
 3597 29dd 00       		.byte	0
 3598 29de 1D       		.uleb128 0x1d
 3599 29df 0A000000 		.secrel32	LASF17
 3600 29e3 08       		.byte	0x8
 3601 29e4 A806     		.word	0x6a8
 3602 29e6 5F5A4E53 		.ascii "_ZNSt7__cxx1112basic_stringIcSt11char_traitsIcESaIcEE7replaceEN9__gnu_cxx17__normal_iterat
 3602      74375F5F 
 3602      63787831 
 3602      31313262 
 3602      61736963 
GAS LISTING C:\Users\USER\AppData\Local\Temp\ccFSuTGK.s 			page 83


 3603 2a50 90700000 		.long	0x7090
 3604 2a54 01       		.byte	0x1
 3605 2a55 5D2A0000 		.long	0x2a5d
 3606 2a59 772A0000 		.long	0x2a77
 3607 2a5d 08       		.uleb128 0x8
 3608 2a5e 6C700000 		.long	0x706c
 3609 2a62 09       		.uleb128 0x9
 3610 2a63 FF020000 		.long	0x2ff
 3611 2a67 09       		.uleb128 0x9
 3612 2a68 FF020000 		.long	0x2ff
 3613 2a6c 09       		.uleb128 0x9
 3614 2a6d FB010000 		.long	0x1fb
 3615 2a71 09       		.uleb128 0x9
 3616 2a72 70640000 		.long	0x6470
 3617 2a76 00       		.byte	0
 3618 2a77 1D       		.uleb128 0x1d
 3619 2a78 0A000000 		.secrel32	LASF17
 3620 2a7c 08       		.byte	0x8
 3621 2a7d E106     		.word	0x6e1
 3622 2a7f 5F5A4E53 		.ascii "_ZNSt7__cxx1112basic_stringIcSt11char_traitsIcESaIcEE7replaceEN9__gnu_cxx17__normal_iterat
 3622      74375F5F 
 3622      63787831 
 3622      31313262 
 3622      61736963 
 3623 2aed 90700000 		.long	0x7090
 3624 2af1 01       		.byte	0x1
 3625 2af2 FA2A0000 		.long	0x2afa
 3626 2af6 142B0000 		.long	0x2b14
 3627 2afa 08       		.uleb128 0x8
 3628 2afb 6C700000 		.long	0x706c
 3629 2aff 09       		.uleb128 0x9
 3630 2b00 FF020000 		.long	0x2ff
 3631 2b04 09       		.uleb128 0x9
 3632 2b05 FF020000 		.long	0x2ff
 3633 2b09 09       		.uleb128 0x9
 3634 2b0a 5C650000 		.long	0x655c
 3635 2b0e 09       		.uleb128 0x9
 3636 2b0f 5C650000 		.long	0x655c
 3637 2b13 00       		.byte	0
 3638 2b14 1D       		.uleb128 0x1d
 3639 2b15 0A000000 		.secrel32	LASF17
 3640 2b19 08       		.byte	0x8
 3641 2b1a EC06     		.word	0x6ec
 3642 2b1c 5F5A4E53 		.ascii "_ZNSt7__cxx1112basic_stringIcSt11char_traitsIcESaIcEE7replaceEN9__gnu_cxx17__normal_iterat
 3642      74375F5F 
 3642      63787831 
 3642      31313262 
 3642      61736963 
 3643 2b8a 90700000 		.long	0x7090
 3644 2b8e 01       		.byte	0x1
 3645 2b8f 972B0000 		.long	0x2b97
 3646 2b93 B12B0000 		.long	0x2bb1
 3647 2b97 08       		.uleb128 0x8
 3648 2b98 6C700000 		.long	0x706c
 3649 2b9c 09       		.uleb128 0x9
 3650 2b9d FF020000 		.long	0x2ff
 3651 2ba1 09       		.uleb128 0x9
GAS LISTING C:\Users\USER\AppData\Local\Temp\ccFSuTGK.s 			page 84


 3652 2ba2 FF020000 		.long	0x2ff
 3653 2ba6 09       		.uleb128 0x9
 3654 2ba7 BE670000 		.long	0x67be
 3655 2bab 09       		.uleb128 0x9
 3656 2bac BE670000 		.long	0x67be
 3657 2bb0 00       		.byte	0
 3658 2bb1 1D       		.uleb128 0x1d
 3659 2bb2 0A000000 		.secrel32	LASF17
 3660 2bb6 08       		.byte	0x8
 3661 2bb7 F706     		.word	0x6f7
 3662 2bb9 5F5A4E53 		.ascii "_ZNSt7__cxx1112basic_stringIcSt11char_traitsIcESaIcEE7replaceEN9__gnu_cxx17__normal_iterat
 3662      74375F5F 
 3662      63787831 
 3662      31313262 
 3662      61736963 
 3663 2c27 90700000 		.long	0x7090
 3664 2c2b 01       		.byte	0x1
 3665 2c2c 342C0000 		.long	0x2c34
 3666 2c30 4E2C0000 		.long	0x2c4e
 3667 2c34 08       		.uleb128 0x8
 3668 2c35 6C700000 		.long	0x706c
 3669 2c39 09       		.uleb128 0x9
 3670 2c3a FF020000 		.long	0x2ff
 3671 2c3e 09       		.uleb128 0x9
 3672 2c3f FF020000 		.long	0x2ff
 3673 2c43 09       		.uleb128 0x9
 3674 2c44 9F020000 		.long	0x29f
 3675 2c48 09       		.uleb128 0x9
 3676 2c49 9F020000 		.long	0x29f
 3677 2c4d 00       		.byte	0
 3678 2c4e 1D       		.uleb128 0x1d
 3679 2c4f 0A000000 		.secrel32	LASF17
 3680 2c53 08       		.byte	0x8
 3681 2c54 0207     		.word	0x702
 3682 2c56 5F5A4E53 		.ascii "_ZNSt7__cxx1112basic_stringIcSt11char_traitsIcESaIcEE7replaceEN9__gnu_cxx17__normal_iterat
 3682      74375F5F 
 3682      63787831 
 3682      31313262 
 3682      61736963 
 3683 2cce 90700000 		.long	0x7090
 3684 2cd2 01       		.byte	0x1
 3685 2cd3 DB2C0000 		.long	0x2cdb
 3686 2cd7 F52C0000 		.long	0x2cf5
 3687 2cdb 08       		.uleb128 0x8
 3688 2cdc 6C700000 		.long	0x706c
 3689 2ce0 09       		.uleb128 0x9
 3690 2ce1 FF020000 		.long	0x2ff
 3691 2ce5 09       		.uleb128 0x9
 3692 2ce6 FF020000 		.long	0x2ff
 3693 2cea 09       		.uleb128 0x9
 3694 2ceb B0020000 		.long	0x2b0
 3695 2cef 09       		.uleb128 0x9
 3696 2cf0 B0020000 		.long	0x2b0
 3697 2cf4 00       		.byte	0
 3698 2cf5 15       		.uleb128 0x15
 3699 2cf6 5F4D5F72 		.ascii "_M_replace_aux\0"
 3699      65706C61 
GAS LISTING C:\Users\USER\AppData\Local\Temp\ccFSuTGK.s 			page 85


 3699      63655F61 
 3699      757800
 3700 2d05 09       		.byte	0x9
 3701 2d06 8C01     		.word	0x18c
 3702 2d08 5F5A4E53 		.ascii "_ZNSt7__cxx1112basic_stringIcSt11char_traitsIcESaIcEE14_M_replace_auxEjjjc\0"
 3702      74375F5F 
 3702      63787831 
 3702      31313262 
 3702      61736963 
 3703 2d53 90700000 		.long	0x7090
 3704 2d57 5F2D0000 		.long	0x2d5f
 3705 2d5b 792D0000 		.long	0x2d79
 3706 2d5f 08       		.uleb128 0x8
 3707 2d60 6C700000 		.long	0x706c
 3708 2d64 09       		.uleb128 0x9
 3709 2d65 FB010000 		.long	0x1fb
 3710 2d69 09       		.uleb128 0x9
 3711 2d6a FB010000 		.long	0x1fb
 3712 2d6e 09       		.uleb128 0x9
 3713 2d6f FB010000 		.long	0x1fb
 3714 2d73 09       		.uleb128 0x9
 3715 2d74 70640000 		.long	0x6470
 3716 2d78 00       		.byte	0
 3717 2d79 15       		.uleb128 0x15
 3718 2d7a 5F4D5F72 		.ascii "_M_replace\0"
 3718      65706C61 
 3718      636500
 3719 2d85 09       		.byte	0x9
 3720 2d86 A901     		.word	0x1a9
 3721 2d88 5F5A4E53 		.ascii "_ZNSt7__cxx1112basic_stringIcSt11char_traitsIcESaIcEE10_M_replaceEjjPKcj\0"
 3721      74375F5F 
 3721      63787831 
 3721      31313262 
 3721      61736963 
 3722 2dd1 90700000 		.long	0x7090
 3723 2dd5 DD2D0000 		.long	0x2ddd
 3724 2dd9 F72D0000 		.long	0x2df7
 3725 2ddd 08       		.uleb128 0x8
 3726 2dde 6C700000 		.long	0x706c
 3727 2de2 09       		.uleb128 0x9
 3728 2de3 FB010000 		.long	0x1fb
 3729 2de7 09       		.uleb128 0x9
 3730 2de8 FB010000 		.long	0x1fb
 3731 2dec 09       		.uleb128 0x9
 3732 2ded BE670000 		.long	0x67be
 3733 2df1 09       		.uleb128 0x9
 3734 2df2 FB010000 		.long	0x1fb
 3735 2df6 00       		.byte	0
 3736 2df7 15       		.uleb128 0x15
 3737 2df8 5F4D5F61 		.ascii "_M_append\0"
 3737      7070656E 
 3737      6400
 3738 2e02 09       		.byte	0x9
 3739 2e03 6B01     		.word	0x16b
 3740 2e05 5F5A4E53 		.ascii "_ZNSt7__cxx1112basic_stringIcSt11char_traitsIcESaIcEE9_M_appendEPKcj\0"
 3740      74375F5F 
 3740      63787831 
GAS LISTING C:\Users\USER\AppData\Local\Temp\ccFSuTGK.s 			page 86


 3740      31313262 
 3740      61736963 
 3741 2e4a 90700000 		.long	0x7090
 3742 2e4e 562E0000 		.long	0x2e56
 3743 2e52 662E0000 		.long	0x2e66
 3744 2e56 08       		.uleb128 0x8
 3745 2e57 6C700000 		.long	0x706c
 3746 2e5b 09       		.uleb128 0x9
 3747 2e5c BE670000 		.long	0x67be
 3748 2e60 09       		.uleb128 0x9
 3749 2e61 FB010000 		.long	0x1fb
 3750 2e65 00       		.byte	0
 3751 2e66 1E       		.uleb128 0x1e
 3752 2e67 636F7079 		.ascii "copy\0"
 3752      00
 3753 2e6c 09       		.byte	0x9
 3754 2e6d DE01     		.word	0x1de
 3755 2e6f 5F5A4E4B 		.ascii "_ZNKSt7__cxx1112basic_stringIcSt11char_traitsIcESaIcEE4copyEPcjj\0"
 3755      5374375F 
 3755      5F637878 
 3755      31313132 
 3755      62617369 
 3756 2eb0 FB010000 		.long	0x1fb
 3757 2eb4 01       		.byte	0x1
 3758 2eb5 BD2E0000 		.long	0x2ebd
 3759 2eb9 D22E0000 		.long	0x2ed2
 3760 2ebd 08       		.uleb128 0x8
 3761 2ebe 72700000 		.long	0x7072
 3762 2ec2 09       		.uleb128 0x9
 3763 2ec3 5C650000 		.long	0x655c
 3764 2ec7 09       		.uleb128 0x9
 3765 2ec8 FB010000 		.long	0x1fb
 3766 2ecc 09       		.uleb128 0x9
 3767 2ecd FB010000 		.long	0x1fb
 3768 2ed1 00       		.byte	0
 3769 2ed2 1F       		.uleb128 0x1f
 3770 2ed3 73776170 		.ascii "swap\0"
 3770      00
 3771 2ed8 09       		.byte	0x9
 3772 2ed9 3A       		.byte	0x3a
 3773 2eda 5F5A4E53 		.ascii "_ZNSt7__cxx1112basic_stringIcSt11char_traitsIcESaIcEE4swapERS4_\0"
 3773      74375F5F 
 3773      63787831 
 3773      31313262 
 3773      61736963 
 3774 2f1a 01       		.byte	0x1
 3775 2f1b 232F0000 		.long	0x2f23
 3776 2f1f 2E2F0000 		.long	0x2f2e
 3777 2f23 08       		.uleb128 0x8
 3778 2f24 6C700000 		.long	0x706c
 3779 2f28 09       		.uleb128 0x9
 3780 2f29 90700000 		.long	0x7090
 3781 2f2d 00       		.byte	0
 3782 2f2e 1E       		.uleb128 0x1e
 3783 2f2f 635F7374 		.ascii "c_str\0"
 3783      7200
 3784 2f35 08       		.byte	0x8
GAS LISTING C:\Users\USER\AppData\Local\Temp\ccFSuTGK.s 			page 87


 3785 2f36 5B07     		.word	0x75b
 3786 2f38 5F5A4E4B 		.ascii "_ZNKSt7__cxx1112basic_stringIcSt11char_traitsIcESaIcEE5c_strEv\0"
 3786      5374375F 
 3786      5F637878 
 3786      31313132 
 3786      62617369 
 3787 2f77 BE670000 		.long	0x67be
 3788 2f7b 01       		.byte	0x1
 3789 2f7c 842F0000 		.long	0x2f84
 3790 2f80 8A2F0000 		.long	0x2f8a
 3791 2f84 08       		.uleb128 0x8
 3792 2f85 72700000 		.long	0x7072
 3793 2f89 00       		.byte	0
 3794 2f8a 1E       		.uleb128 0x1e
 3795 2f8b 64617461 		.ascii "data\0"
 3795      00
 3796 2f90 08       		.byte	0x8
 3797 2f91 6507     		.word	0x765
 3798 2f93 5F5A4E4B 		.ascii "_ZNKSt7__cxx1112basic_stringIcSt11char_traitsIcESaIcEE4dataEv\0"
 3798      5374375F 
 3798      5F637878 
 3798      31313132 
 3798      62617369 
 3799 2fd1 BE670000 		.long	0x67be
 3800 2fd5 01       		.byte	0x1
 3801 2fd6 DE2F0000 		.long	0x2fde
 3802 2fda E42F0000 		.long	0x2fe4
 3803 2fde 08       		.uleb128 0x8
 3804 2fdf 72700000 		.long	0x7072
 3805 2fe3 00       		.byte	0
 3806 2fe4 1E       		.uleb128 0x1e
 3807 2fe5 6765745F 		.ascii "get_allocator\0"
 3807      616C6C6F 
 3807      6361746F 
 3807      7200
 3808 2ff3 08       		.byte	0x8
 3809 2ff4 6C07     		.word	0x76c
 3810 2ff6 5F5A4E4B 		.ascii "_ZNKSt7__cxx1112basic_stringIcSt11char_traitsIcESaIcEE13get_allocatorEv\0"
 3810      5374375F 
 3810      5F637878 
 3810      31313132 
 3810      62617369 
 3811 303e 64020000 		.long	0x264
 3812 3042 01       		.byte	0x1
 3813 3043 4B300000 		.long	0x304b
 3814 3047 51300000 		.long	0x3051
 3815 304b 08       		.uleb128 0x8
 3816 304c 72700000 		.long	0x7072
 3817 3050 00       		.byte	0
 3818 3051 1E       		.uleb128 0x1e
 3819 3052 66696E64 		.ascii "find\0"
 3819      00
 3820 3057 09       		.byte	0x9
 3821 3058 9D04     		.word	0x49d
 3822 305a 5F5A4E4B 		.ascii "_ZNKSt7__cxx1112basic_stringIcSt11char_traitsIcESaIcEE4findEPKcjj\0"
 3822      5374375F 
 3822      5F637878 
GAS LISTING C:\Users\USER\AppData\Local\Temp\ccFSuTGK.s 			page 88


 3822      31313132 
 3822      62617369 
 3823 309c FB010000 		.long	0x1fb
 3824 30a0 01       		.byte	0x1
 3825 30a1 A9300000 		.long	0x30a9
 3826 30a5 BE300000 		.long	0x30be
 3827 30a9 08       		.uleb128 0x8
 3828 30aa 72700000 		.long	0x7072
 3829 30ae 09       		.uleb128 0x9
 3830 30af BE670000 		.long	0x67be
 3831 30b3 09       		.uleb128 0x9
 3832 30b4 FB010000 		.long	0x1fb
 3833 30b8 09       		.uleb128 0x9
 3834 30b9 FB010000 		.long	0x1fb
 3835 30bd 00       		.byte	0
 3836 30be 1E       		.uleb128 0x1e
 3837 30bf 66696E64 		.ascii "find\0"
 3837      00
 3838 30c4 08       		.byte	0x8
 3839 30c5 8907     		.word	0x789
 3840 30c7 5F5A4E4B 		.ascii "_ZNKSt7__cxx1112basic_stringIcSt11char_traitsIcESaIcEE4findERKS4_j\0"
 3840      5374375F 
 3840      5F637878 
 3840      31313132 
 3840      62617369 
 3841 310a FB010000 		.long	0x1fb
 3842 310e 01       		.byte	0x1
 3843 310f 17310000 		.long	0x3117
 3844 3113 27310000 		.long	0x3127
 3845 3117 08       		.uleb128 0x8
 3846 3118 72700000 		.long	0x7072
 3847 311c 09       		.uleb128 0x9
 3848 311d 8A700000 		.long	0x708a
 3849 3121 09       		.uleb128 0x9
 3850 3122 FB010000 		.long	0x1fb
 3851 3126 00       		.byte	0
 3852 3127 1E       		.uleb128 0x1e
 3853 3128 66696E64 		.ascii "find\0"
 3853      00
 3854 312d 08       		.byte	0x8
 3855 312e 9807     		.word	0x798
 3856 3130 5F5A4E4B 		.ascii "_ZNKSt7__cxx1112basic_stringIcSt11char_traitsIcESaIcEE4findEPKcj\0"
 3856      5374375F 
 3856      5F637878 
 3856      31313132 
 3856      62617369 
 3857 3171 FB010000 		.long	0x1fb
 3858 3175 01       		.byte	0x1
 3859 3176 7E310000 		.long	0x317e
 3860 317a 8E310000 		.long	0x318e
 3861 317e 08       		.uleb128 0x8
 3862 317f 72700000 		.long	0x7072
 3863 3183 09       		.uleb128 0x9
 3864 3184 BE670000 		.long	0x67be
 3865 3188 09       		.uleb128 0x9
 3866 3189 FB010000 		.long	0x1fb
 3867 318d 00       		.byte	0
GAS LISTING C:\Users\USER\AppData\Local\Temp\ccFSuTGK.s 			page 89


 3868 318e 1E       		.uleb128 0x1e
 3869 318f 66696E64 		.ascii "find\0"
 3869      00
 3870 3194 09       		.byte	0x9
 3871 3195 B404     		.word	0x4b4
 3872 3197 5F5A4E4B 		.ascii "_ZNKSt7__cxx1112basic_stringIcSt11char_traitsIcESaIcEE4findEcj\0"
 3872      5374375F 
 3872      5F637878 
 3872      31313132 
 3872      62617369 
 3873 31d6 FB010000 		.long	0x1fb
 3874 31da 01       		.byte	0x1
 3875 31db E3310000 		.long	0x31e3
 3876 31df F3310000 		.long	0x31f3
 3877 31e3 08       		.uleb128 0x8
 3878 31e4 72700000 		.long	0x7072
 3879 31e8 09       		.uleb128 0x9
 3880 31e9 70640000 		.long	0x6470
 3881 31ed 09       		.uleb128 0x9
 3882 31ee FB010000 		.long	0x1fb
 3883 31f2 00       		.byte	0
 3884 31f3 1D       		.uleb128 0x1d
 3885 31f4 2C010000 		.secrel32	LASF18
 3886 31f8 08       		.byte	0x8
 3887 31f9 B607     		.word	0x7b6
 3888 31fb 5F5A4E4B 		.ascii "_ZNKSt7__cxx1112basic_stringIcSt11char_traitsIcESaIcEE5rfindERKS4_j\0"
 3888      5374375F 
 3888      5F637878 
 3888      31313132 
 3888      62617369 
 3889 323f FB010000 		.long	0x1fb
 3890 3243 01       		.byte	0x1
 3891 3244 4C320000 		.long	0x324c
 3892 3248 5C320000 		.long	0x325c
 3893 324c 08       		.uleb128 0x8
 3894 324d 72700000 		.long	0x7072
 3895 3251 09       		.uleb128 0x9
 3896 3252 8A700000 		.long	0x708a
 3897 3256 09       		.uleb128 0x9
 3898 3257 FB010000 		.long	0x1fb
 3899 325b 00       		.byte	0
 3900 325c 1D       		.uleb128 0x1d
 3901 325d 2C010000 		.secrel32	LASF18
 3902 3261 09       		.byte	0x9
 3903 3262 C604     		.word	0x4c6
 3904 3264 5F5A4E4B 		.ascii "_ZNKSt7__cxx1112basic_stringIcSt11char_traitsIcESaIcEE5rfindEPKcjj\0"
 3904      5374375F 
 3904      5F637878 
 3904      31313132 
 3904      62617369 
 3905 32a7 FB010000 		.long	0x1fb
 3906 32ab 01       		.byte	0x1
 3907 32ac B4320000 		.long	0x32b4
 3908 32b0 C9320000 		.long	0x32c9
 3909 32b4 08       		.uleb128 0x8
 3910 32b5 72700000 		.long	0x7072
 3911 32b9 09       		.uleb128 0x9
GAS LISTING C:\Users\USER\AppData\Local\Temp\ccFSuTGK.s 			page 90


 3912 32ba BE670000 		.long	0x67be
 3913 32be 09       		.uleb128 0x9
 3914 32bf FB010000 		.long	0x1fb
 3915 32c3 09       		.uleb128 0x9
 3916 32c4 FB010000 		.long	0x1fb
 3917 32c8 00       		.byte	0
 3918 32c9 1D       		.uleb128 0x1d
 3919 32ca 2C010000 		.secrel32	LASF18
 3920 32ce 08       		.byte	0x8
 3921 32cf D407     		.word	0x7d4
 3922 32d1 5F5A4E4B 		.ascii "_ZNKSt7__cxx1112basic_stringIcSt11char_traitsIcESaIcEE5rfindEPKcj\0"
 3922      5374375F 
 3922      5F637878 
 3922      31313132 
 3922      62617369 
 3923 3313 FB010000 		.long	0x1fb
 3924 3317 01       		.byte	0x1
 3925 3318 20330000 		.long	0x3320
 3926 331c 30330000 		.long	0x3330
 3927 3320 08       		.uleb128 0x8
 3928 3321 72700000 		.long	0x7072
 3929 3325 09       		.uleb128 0x9
 3930 3326 BE670000 		.long	0x67be
 3931 332a 09       		.uleb128 0x9
 3932 332b FB010000 		.long	0x1fb
 3933 332f 00       		.byte	0
 3934 3330 1D       		.uleb128 0x1d
 3935 3331 2C010000 		.secrel32	LASF18
 3936 3335 09       		.byte	0x9
 3937 3336 DB04     		.word	0x4db
 3938 3338 5F5A4E4B 		.ascii "_ZNKSt7__cxx1112basic_stringIcSt11char_traitsIcESaIcEE5rfindEcj\0"
 3938      5374375F 
 3938      5F637878 
 3938      31313132 
 3938      62617369 
 3939 3378 FB010000 		.long	0x1fb
 3940 337c 01       		.byte	0x1
 3941 337d 85330000 		.long	0x3385
 3942 3381 95330000 		.long	0x3395
 3943 3385 08       		.uleb128 0x8
 3944 3386 72700000 		.long	0x7072
 3945 338a 09       		.uleb128 0x9
 3946 338b 70640000 		.long	0x6470
 3947 338f 09       		.uleb128 0x9
 3948 3390 FB010000 		.long	0x1fb
 3949 3394 00       		.byte	0
 3950 3395 1D       		.uleb128 0x1d
 3951 3396 1E010000 		.secrel32	LASF19
 3952 339a 08       		.byte	0x8
 3953 339b F307     		.word	0x7f3
 3954 339d 5F5A4E4B 		.ascii "_ZNKSt7__cxx1112basic_stringIcSt11char_traitsIcESaIcEE13find_first_ofERKS4_j\0"
 3954      5374375F 
 3954      5F637878 
 3954      31313132 
 3954      62617369 
 3955 33ea FB010000 		.long	0x1fb
 3956 33ee 01       		.byte	0x1
GAS LISTING C:\Users\USER\AppData\Local\Temp\ccFSuTGK.s 			page 91


 3957 33ef F7330000 		.long	0x33f7
 3958 33f3 07340000 		.long	0x3407
 3959 33f7 08       		.uleb128 0x8
 3960 33f8 72700000 		.long	0x7072
 3961 33fc 09       		.uleb128 0x9
 3962 33fd 8A700000 		.long	0x708a
 3963 3401 09       		.uleb128 0x9
 3964 3402 FB010000 		.long	0x1fb
 3965 3406 00       		.byte	0
 3966 3407 1D       		.uleb128 0x1d
 3967 3408 1E010000 		.secrel32	LASF19
 3968 340c 09       		.byte	0x9
 3969 340d EC04     		.word	0x4ec
 3970 340f 5F5A4E4B 		.ascii "_ZNKSt7__cxx1112basic_stringIcSt11char_traitsIcESaIcEE13find_first_ofEPKcjj\0"
 3970      5374375F 
 3970      5F637878 
 3970      31313132 
 3970      62617369 
 3971 345b FB010000 		.long	0x1fb
 3972 345f 01       		.byte	0x1
 3973 3460 68340000 		.long	0x3468
 3974 3464 7D340000 		.long	0x347d
 3975 3468 08       		.uleb128 0x8
 3976 3469 72700000 		.long	0x7072
 3977 346d 09       		.uleb128 0x9
 3978 346e BE670000 		.long	0x67be
 3979 3472 09       		.uleb128 0x9
 3980 3473 FB010000 		.long	0x1fb
 3981 3477 09       		.uleb128 0x9
 3982 3478 FB010000 		.long	0x1fb
 3983 347c 00       		.byte	0
 3984 347d 1D       		.uleb128 0x1d
 3985 347e 1E010000 		.secrel32	LASF19
 3986 3482 08       		.byte	0x8
 3987 3483 1108     		.word	0x811
 3988 3485 5F5A4E4B 		.ascii "_ZNKSt7__cxx1112basic_stringIcSt11char_traitsIcESaIcEE13find_first_ofEPKcj\0"
 3988      5374375F 
 3988      5F637878 
 3988      31313132 
 3988      62617369 
 3989 34d0 FB010000 		.long	0x1fb
 3990 34d4 01       		.byte	0x1
 3991 34d5 DD340000 		.long	0x34dd
 3992 34d9 ED340000 		.long	0x34ed
 3993 34dd 08       		.uleb128 0x8
 3994 34de 72700000 		.long	0x7072
 3995 34e2 09       		.uleb128 0x9
 3996 34e3 BE670000 		.long	0x67be
 3997 34e7 09       		.uleb128 0x9
 3998 34e8 FB010000 		.long	0x1fb
 3999 34ec 00       		.byte	0
 4000 34ed 1D       		.uleb128 0x1d
 4001 34ee 1E010000 		.secrel32	LASF19
 4002 34f2 08       		.byte	0x8
 4003 34f3 2408     		.word	0x824
 4004 34f5 5F5A4E4B 		.ascii "_ZNKSt7__cxx1112basic_stringIcSt11char_traitsIcESaIcEE13find_first_ofEcj\0"
 4004      5374375F 
GAS LISTING C:\Users\USER\AppData\Local\Temp\ccFSuTGK.s 			page 92


 4004      5F637878 
 4004      31313132 
 4004      62617369 
 4005 353e FB010000 		.long	0x1fb
 4006 3542 01       		.byte	0x1
 4007 3543 4B350000 		.long	0x354b
 4008 3547 5B350000 		.long	0x355b
 4009 354b 08       		.uleb128 0x8
 4010 354c 72700000 		.long	0x7072
 4011 3550 09       		.uleb128 0x9
 4012 3551 70640000 		.long	0x6470
 4013 3555 09       		.uleb128 0x9
 4014 3556 FB010000 		.long	0x1fb
 4015 355a 00       		.byte	0
 4016 355b 1D       		.uleb128 0x1d
 4017 355c 26020000 		.secrel32	LASF20
 4018 3560 08       		.byte	0x8
 4019 3561 3308     		.word	0x833
 4020 3563 5F5A4E4B 		.ascii "_ZNKSt7__cxx1112basic_stringIcSt11char_traitsIcESaIcEE12find_last_ofERKS4_j\0"
 4020      5374375F 
 4020      5F637878 
 4020      31313132 
 4020      62617369 
 4021 35af FB010000 		.long	0x1fb
 4022 35b3 01       		.byte	0x1
 4023 35b4 BC350000 		.long	0x35bc
 4024 35b8 CC350000 		.long	0x35cc
 4025 35bc 08       		.uleb128 0x8
 4026 35bd 72700000 		.long	0x7072
 4027 35c1 09       		.uleb128 0x9
 4028 35c2 8A700000 		.long	0x708a
 4029 35c6 09       		.uleb128 0x9
 4030 35c7 FB010000 		.long	0x1fb
 4031 35cb 00       		.byte	0
 4032 35cc 1D       		.uleb128 0x1d
 4033 35cd 26020000 		.secrel32	LASF20
 4034 35d1 09       		.byte	0x9
 4035 35d2 FB04     		.word	0x4fb
 4036 35d4 5F5A4E4B 		.ascii "_ZNKSt7__cxx1112basic_stringIcSt11char_traitsIcESaIcEE12find_last_ofEPKcjj\0"
 4036      5374375F 
 4036      5F637878 
 4036      31313132 
 4036      62617369 
 4037 361f FB010000 		.long	0x1fb
 4038 3623 01       		.byte	0x1
 4039 3624 2C360000 		.long	0x362c
 4040 3628 41360000 		.long	0x3641
 4041 362c 08       		.uleb128 0x8
 4042 362d 72700000 		.long	0x7072
 4043 3631 09       		.uleb128 0x9
 4044 3632 BE670000 		.long	0x67be
 4045 3636 09       		.uleb128 0x9
 4046 3637 FB010000 		.long	0x1fb
 4047 363b 09       		.uleb128 0x9
 4048 363c FB010000 		.long	0x1fb
 4049 3640 00       		.byte	0
 4050 3641 1D       		.uleb128 0x1d
GAS LISTING C:\Users\USER\AppData\Local\Temp\ccFSuTGK.s 			page 93


 4051 3642 26020000 		.secrel32	LASF20
 4052 3646 08       		.byte	0x8
 4053 3647 5108     		.word	0x851
 4054 3649 5F5A4E4B 		.ascii "_ZNKSt7__cxx1112basic_stringIcSt11char_traitsIcESaIcEE12find_last_ofEPKcj\0"
 4054      5374375F 
 4054      5F637878 
 4054      31313132 
 4054      62617369 
 4055 3693 FB010000 		.long	0x1fb
 4056 3697 01       		.byte	0x1
 4057 3698 A0360000 		.long	0x36a0
 4058 369c B0360000 		.long	0x36b0
 4059 36a0 08       		.uleb128 0x8
 4060 36a1 72700000 		.long	0x7072
 4061 36a5 09       		.uleb128 0x9
 4062 36a6 BE670000 		.long	0x67be
 4063 36aa 09       		.uleb128 0x9
 4064 36ab FB010000 		.long	0x1fb
 4065 36af 00       		.byte	0
 4066 36b0 1D       		.uleb128 0x1d
 4067 36b1 26020000 		.secrel32	LASF20
 4068 36b5 08       		.byte	0x8
 4069 36b6 6408     		.word	0x864
 4070 36b8 5F5A4E4B 		.ascii "_ZNKSt7__cxx1112basic_stringIcSt11char_traitsIcESaIcEE12find_last_ofEcj\0"
 4070      5374375F 
 4070      5F637878 
 4070      31313132 
 4070      62617369 
 4071 3700 FB010000 		.long	0x1fb
 4072 3704 01       		.byte	0x1
 4073 3705 0D370000 		.long	0x370d
 4074 3709 1D370000 		.long	0x371d
 4075 370d 08       		.uleb128 0x8
 4076 370e 72700000 		.long	0x7072
 4077 3712 09       		.uleb128 0x9
 4078 3713 70640000 		.long	0x6470
 4079 3717 09       		.uleb128 0x9
 4080 3718 FB010000 		.long	0x1fb
 4081 371c 00       		.byte	0
 4082 371d 1D       		.uleb128 0x1d
 4083 371e 0B020000 		.secrel32	LASF21
 4084 3722 08       		.byte	0x8
 4085 3723 7208     		.word	0x872
 4086 3725 5F5A4E4B 		.ascii "_ZNKSt7__cxx1112basic_stringIcSt11char_traitsIcESaIcEE17find_first_not_ofERKS4_j\0"
 4086      5374375F 
 4086      5F637878 
 4086      31313132 
 4086      62617369 
 4087 3776 FB010000 		.long	0x1fb
 4088 377a 01       		.byte	0x1
 4089 377b 83370000 		.long	0x3783
 4090 377f 93370000 		.long	0x3793
 4091 3783 08       		.uleb128 0x8
 4092 3784 72700000 		.long	0x7072
 4093 3788 09       		.uleb128 0x9
 4094 3789 8A700000 		.long	0x708a
 4095 378d 09       		.uleb128 0x9
GAS LISTING C:\Users\USER\AppData\Local\Temp\ccFSuTGK.s 			page 94


 4096 378e FB010000 		.long	0x1fb
 4097 3792 00       		.byte	0
 4098 3793 1D       		.uleb128 0x1d
 4099 3794 0B020000 		.secrel32	LASF21
 4100 3798 09       		.byte	0x9
 4101 3799 1005     		.word	0x510
 4102 379b 5F5A4E4B 		.ascii "_ZNKSt7__cxx1112basic_stringIcSt11char_traitsIcESaIcEE17find_first_not_ofEPKcjj\0"
 4102      5374375F 
 4102      5F637878 
 4102      31313132 
 4102      62617369 
 4103 37eb FB010000 		.long	0x1fb
 4104 37ef 01       		.byte	0x1
 4105 37f0 F8370000 		.long	0x37f8
 4106 37f4 0D380000 		.long	0x380d
 4107 37f8 08       		.uleb128 0x8
 4108 37f9 72700000 		.long	0x7072
 4109 37fd 09       		.uleb128 0x9
 4110 37fe BE670000 		.long	0x67be
 4111 3802 09       		.uleb128 0x9
 4112 3803 FB010000 		.long	0x1fb
 4113 3807 09       		.uleb128 0x9
 4114 3808 FB010000 		.long	0x1fb
 4115 380c 00       		.byte	0
 4116 380d 1D       		.uleb128 0x1d
 4117 380e 0B020000 		.secrel32	LASF21
 4118 3812 08       		.byte	0x8
 4119 3813 9108     		.word	0x891
 4120 3815 5F5A4E4B 		.ascii "_ZNKSt7__cxx1112basic_stringIcSt11char_traitsIcESaIcEE17find_first_not_ofEPKcj\0"
 4120      5374375F 
 4120      5F637878 
 4120      31313132 
 4120      62617369 
 4121 3864 FB010000 		.long	0x1fb
 4122 3868 01       		.byte	0x1
 4123 3869 71380000 		.long	0x3871
 4124 386d 81380000 		.long	0x3881
 4125 3871 08       		.uleb128 0x8
 4126 3872 72700000 		.long	0x7072
 4127 3876 09       		.uleb128 0x9
 4128 3877 BE670000 		.long	0x67be
 4129 387b 09       		.uleb128 0x9
 4130 387c FB010000 		.long	0x1fb
 4131 3880 00       		.byte	0
 4132 3881 1D       		.uleb128 0x1d
 4133 3882 0B020000 		.secrel32	LASF21
 4134 3886 09       		.byte	0x9
 4135 3887 1C05     		.word	0x51c
 4136 3889 5F5A4E4B 		.ascii "_ZNKSt7__cxx1112basic_stringIcSt11char_traitsIcESaIcEE17find_first_not_ofEcj\0"
 4136      5374375F 
 4136      5F637878 
 4136      31313132 
 4136      62617369 
 4137 38d6 FB010000 		.long	0x1fb
 4138 38da 01       		.byte	0x1
 4139 38db E3380000 		.long	0x38e3
 4140 38df F3380000 		.long	0x38f3
GAS LISTING C:\Users\USER\AppData\Local\Temp\ccFSuTGK.s 			page 95


 4141 38e3 08       		.uleb128 0x8
 4142 38e4 72700000 		.long	0x7072
 4143 38e8 09       		.uleb128 0x9
 4144 38e9 70640000 		.long	0x6470
 4145 38ed 09       		.uleb128 0x9
 4146 38ee FB010000 		.long	0x1fb
 4147 38f2 00       		.byte	0
 4148 38f3 1D       		.uleb128 0x1d
 4149 38f4 54000000 		.secrel32	LASF22
 4150 38f8 08       		.byte	0x8
 4151 38f9 B108     		.word	0x8b1
 4152 38fb 5F5A4E4B 		.ascii "_ZNKSt7__cxx1112basic_stringIcSt11char_traitsIcESaIcEE16find_last_not_ofERKS4_j\0"
 4152      5374375F 
 4152      5F637878 
 4152      31313132 
 4152      62617369 
 4153 394b FB010000 		.long	0x1fb
 4154 394f 01       		.byte	0x1
 4155 3950 58390000 		.long	0x3958
 4156 3954 68390000 		.long	0x3968
 4157 3958 08       		.uleb128 0x8
 4158 3959 72700000 		.long	0x7072
 4159 395d 09       		.uleb128 0x9
 4160 395e 8A700000 		.long	0x708a
 4161 3962 09       		.uleb128 0x9
 4162 3963 FB010000 		.long	0x1fb
 4163 3967 00       		.byte	0
 4164 3968 1D       		.uleb128 0x1d
 4165 3969 54000000 		.secrel32	LASF22
 4166 396d 09       		.byte	0x9
 4167 396e 2705     		.word	0x527
 4168 3970 5F5A4E4B 		.ascii "_ZNKSt7__cxx1112basic_stringIcSt11char_traitsIcESaIcEE16find_last_not_ofEPKcjj\0"
 4168      5374375F 
 4168      5F637878 
 4168      31313132 
 4168      62617369 
 4169 39bf FB010000 		.long	0x1fb
 4170 39c3 01       		.byte	0x1
 4171 39c4 CC390000 		.long	0x39cc
 4172 39c8 E1390000 		.long	0x39e1
 4173 39cc 08       		.uleb128 0x8
 4174 39cd 72700000 		.long	0x7072
 4175 39d1 09       		.uleb128 0x9
 4176 39d2 BE670000 		.long	0x67be
 4177 39d6 09       		.uleb128 0x9
 4178 39d7 FB010000 		.long	0x1fb
 4179 39db 09       		.uleb128 0x9
 4180 39dc FB010000 		.long	0x1fb
 4181 39e0 00       		.byte	0
 4182 39e1 1D       		.uleb128 0x1d
 4183 39e2 54000000 		.secrel32	LASF22
 4184 39e6 08       		.byte	0x8
 4185 39e7 D008     		.word	0x8d0
 4186 39e9 5F5A4E4B 		.ascii "_ZNKSt7__cxx1112basic_stringIcSt11char_traitsIcESaIcEE16find_last_not_ofEPKcj\0"
 4186      5374375F 
 4186      5F637878 
 4186      31313132 
GAS LISTING C:\Users\USER\AppData\Local\Temp\ccFSuTGK.s 			page 96


 4186      62617369 
 4187 3a37 FB010000 		.long	0x1fb
 4188 3a3b 01       		.byte	0x1
 4189 3a3c 443A0000 		.long	0x3a44
 4190 3a40 543A0000 		.long	0x3a54
 4191 3a44 08       		.uleb128 0x8
 4192 3a45 72700000 		.long	0x7072
 4193 3a49 09       		.uleb128 0x9
 4194 3a4a BE670000 		.long	0x67be
 4195 3a4e 09       		.uleb128 0x9
 4196 3a4f FB010000 		.long	0x1fb
 4197 3a53 00       		.byte	0
 4198 3a54 1D       		.uleb128 0x1d
 4199 3a55 54000000 		.secrel32	LASF22
 4200 3a59 09       		.byte	0x9
 4201 3a5a 3C05     		.word	0x53c
 4202 3a5c 5F5A4E4B 		.ascii "_ZNKSt7__cxx1112basic_stringIcSt11char_traitsIcESaIcEE16find_last_not_ofEcj\0"
 4202      5374375F 
 4202      5F637878 
 4202      31313132 
 4202      62617369 
 4203 3aa8 FB010000 		.long	0x1fb
 4204 3aac 01       		.byte	0x1
 4205 3aad B53A0000 		.long	0x3ab5
 4206 3ab1 C53A0000 		.long	0x3ac5
 4207 3ab5 08       		.uleb128 0x8
 4208 3ab6 72700000 		.long	0x7072
 4209 3aba 09       		.uleb128 0x9
 4210 3abb 70640000 		.long	0x6470
 4211 3abf 09       		.uleb128 0x9
 4212 3ac0 FB010000 		.long	0x1fb
 4213 3ac4 00       		.byte	0
 4214 3ac5 1E       		.uleb128 0x1e
 4215 3ac6 73756273 		.ascii "substr\0"
 4215      747200
 4216 3acd 08       		.byte	0x8
 4217 3ace F108     		.word	0x8f1
 4218 3ad0 5F5A4E4B 		.ascii "_ZNKSt7__cxx1112basic_stringIcSt11char_traitsIcESaIcEE6substrEjj\0"
 4218      5374375F 
 4218      5F637878 
 4218      31313132 
 4218      62617369 
 4219 3b11 E2000000 		.long	0xe2
 4220 3b15 01       		.byte	0x1
 4221 3b16 1E3B0000 		.long	0x3b1e
 4222 3b1a 2E3B0000 		.long	0x3b2e
 4223 3b1e 08       		.uleb128 0x8
 4224 3b1f 72700000 		.long	0x7072
 4225 3b23 09       		.uleb128 0x9
 4226 3b24 FB010000 		.long	0x1fb
 4227 3b28 09       		.uleb128 0x9
 4228 3b29 FB010000 		.long	0x1fb
 4229 3b2d 00       		.byte	0
 4230 3b2e 1D       		.uleb128 0x1d
 4231 3b2f D8010000 		.secrel32	LASF23
 4232 3b33 08       		.byte	0x8
 4233 3b34 0409     		.word	0x904
GAS LISTING C:\Users\USER\AppData\Local\Temp\ccFSuTGK.s 			page 97


 4234 3b36 5F5A4E4B 		.ascii "_ZNKSt7__cxx1112basic_stringIcSt11char_traitsIcESaIcEE7compareERKS4_\0"
 4234      5374375F 
 4234      5F637878 
 4234      31313132 
 4234      62617369 
 4235 3b7b A4640000 		.long	0x64a4
 4236 3b7f 01       		.byte	0x1
 4237 3b80 883B0000 		.long	0x3b88
 4238 3b84 933B0000 		.long	0x3b93
 4239 3b88 08       		.uleb128 0x8
 4240 3b89 72700000 		.long	0x7072
 4241 3b8d 09       		.uleb128 0x9
 4242 3b8e 8A700000 		.long	0x708a
 4243 3b92 00       		.byte	0
 4244 3b93 1D       		.uleb128 0x1d
 4245 3b94 D8010000 		.secrel32	LASF23
 4246 3b98 09       		.byte	0x9
 4247 3b99 5005     		.word	0x550
 4248 3b9b 5F5A4E4B 		.ascii "_ZNKSt7__cxx1112basic_stringIcSt11char_traitsIcESaIcEE7compareEjjRKS4_\0"
 4248      5374375F 
 4248      5F637878 
 4248      31313132 
 4248      62617369 
 4249 3be2 A4640000 		.long	0x64a4
 4250 3be6 01       		.byte	0x1
 4251 3be7 EF3B0000 		.long	0x3bef
 4252 3beb 043C0000 		.long	0x3c04
 4253 3bef 08       		.uleb128 0x8
 4254 3bf0 72700000 		.long	0x7072
 4255 3bf4 09       		.uleb128 0x9
 4256 3bf5 FB010000 		.long	0x1fb
 4257 3bf9 09       		.uleb128 0x9
 4258 3bfa FB010000 		.long	0x1fb
 4259 3bfe 09       		.uleb128 0x9
 4260 3bff 8A700000 		.long	0x708a
 4261 3c03 00       		.byte	0
 4262 3c04 1D       		.uleb128 0x1d
 4263 3c05 D8010000 		.secrel32	LASF23
 4264 3c09 09       		.byte	0x9
 4265 3c0a 5F05     		.word	0x55f
 4266 3c0c 5F5A4E4B 		.ascii "_ZNKSt7__cxx1112basic_stringIcSt11char_traitsIcESaIcEE7compareEjjRKS4_jj\0"
 4266      5374375F 
 4266      5F637878 
 4266      31313132 
 4266      62617369 
 4267 3c55 A4640000 		.long	0x64a4
 4268 3c59 01       		.byte	0x1
 4269 3c5a 623C0000 		.long	0x3c62
 4270 3c5e 813C0000 		.long	0x3c81
 4271 3c62 08       		.uleb128 0x8
 4272 3c63 72700000 		.long	0x7072
 4273 3c67 09       		.uleb128 0x9
 4274 3c68 FB010000 		.long	0x1fb
 4275 3c6c 09       		.uleb128 0x9
 4276 3c6d FB010000 		.long	0x1fb
 4277 3c71 09       		.uleb128 0x9
 4278 3c72 8A700000 		.long	0x708a
GAS LISTING C:\Users\USER\AppData\Local\Temp\ccFSuTGK.s 			page 98


 4279 3c76 09       		.uleb128 0x9
 4280 3c77 FB010000 		.long	0x1fb
 4281 3c7b 09       		.uleb128 0x9
 4282 3c7c FB010000 		.long	0x1fb
 4283 3c80 00       		.byte	0
 4284 3c81 1D       		.uleb128 0x1d
 4285 3c82 D8010000 		.secrel32	LASF23
 4286 3c86 09       		.byte	0x9
 4287 3c87 7105     		.word	0x571
 4288 3c89 5F5A4E4B 		.ascii "_ZNKSt7__cxx1112basic_stringIcSt11char_traitsIcESaIcEE7compareEPKc\0"
 4288      5374375F 
 4288      5F637878 
 4288      31313132 
 4288      62617369 
 4289 3ccc A4640000 		.long	0x64a4
 4290 3cd0 01       		.byte	0x1
 4291 3cd1 D93C0000 		.long	0x3cd9
 4292 3cd5 E43C0000 		.long	0x3ce4
 4293 3cd9 08       		.uleb128 0x8
 4294 3cda 72700000 		.long	0x7072
 4295 3cde 09       		.uleb128 0x9
 4296 3cdf BE670000 		.long	0x67be
 4297 3ce3 00       		.byte	0
 4298 3ce4 1D       		.uleb128 0x1d
 4299 3ce5 D8010000 		.secrel32	LASF23
 4300 3ce9 09       		.byte	0x9
 4301 3cea 8005     		.word	0x580
 4302 3cec 5F5A4E4B 		.ascii "_ZNKSt7__cxx1112basic_stringIcSt11char_traitsIcESaIcEE7compareEjjPKc\0"
 4302      5374375F 
 4302      5F637878 
 4302      31313132 
 4302      62617369 
 4303 3d31 A4640000 		.long	0x64a4
 4304 3d35 01       		.byte	0x1
 4305 3d36 3E3D0000 		.long	0x3d3e
 4306 3d3a 533D0000 		.long	0x3d53
 4307 3d3e 08       		.uleb128 0x8
 4308 3d3f 72700000 		.long	0x7072
 4309 3d43 09       		.uleb128 0x9
 4310 3d44 FB010000 		.long	0x1fb
 4311 3d48 09       		.uleb128 0x9
 4312 3d49 FB010000 		.long	0x1fb
 4313 3d4d 09       		.uleb128 0x9
 4314 3d4e BE670000 		.long	0x67be
 4315 3d52 00       		.byte	0
 4316 3d53 1D       		.uleb128 0x1d
 4317 3d54 D8010000 		.secrel32	LASF23
 4318 3d58 09       		.byte	0x9
 4319 3d59 9005     		.word	0x590
 4320 3d5b 5F5A4E4B 		.ascii "_ZNKSt7__cxx1112basic_stringIcSt11char_traitsIcESaIcEE7compareEjjPKcj\0"
 4320      5374375F 
 4320      5F637878 
 4320      31313132 
 4320      62617369 
 4321 3da1 A4640000 		.long	0x64a4
 4322 3da5 01       		.byte	0x1
 4323 3da6 AE3D0000 		.long	0x3dae
GAS LISTING C:\Users\USER\AppData\Local\Temp\ccFSuTGK.s 			page 99


 4324 3daa C83D0000 		.long	0x3dc8
 4325 3dae 08       		.uleb128 0x8
 4326 3daf 72700000 		.long	0x7072
 4327 3db3 09       		.uleb128 0x9
 4328 3db4 FB010000 		.long	0x1fb
 4329 3db8 09       		.uleb128 0x9
 4330 3db9 FB010000 		.long	0x1fb
 4331 3dbd 09       		.uleb128 0x9
 4332 3dbe BE670000 		.long	0x67be
 4333 3dc2 09       		.uleb128 0x9
 4334 3dc3 FB010000 		.long	0x1fb
 4335 3dc7 00       		.byte	0
 4336 3dc8 20       		.uleb128 0x20
 4337 3dc9 6A010000 		.secrel32	LASF26
 4338 3dcd 70640000 		.long	0x6470
 4339 3dd1 21       		.uleb128 0x21
 4340 3dd2 C7000000 		.secrel32	LASF24
 4341 3dd6 10400000 		.long	0x4010
 4342 3dda 21       		.uleb128 0x21
 4343 3ddb 3C020000 		.secrel32	LASF25
 4344 3ddf FB430000 		.long	0x43fb
 4345 3de3 00       		.byte	0
 4346 3de4 0E       		.uleb128 0xe
 4347 3de5 E2000000 		.long	0xe2
 4348 3de9 10       		.uleb128 0x10
 4349 3dea 73747269 		.ascii "string\0"
 4349      6E6700
 4350 3df1 0A       		.byte	0xa
 4351 3df2 4A       		.byte	0x4a
 4352 3df3 E2000000 		.long	0xe2
 4353 3df7 22       		.uleb128 0x22
 4354 3df8 62617369 		.ascii "basic_ostringstream<char, std::char_traits<char>, std::allocator<char> >\0"
 4354      635F6F73 
 4354      7472696E 
 4354      67737472 
 4354      65616D3C 
 4355 3e41 20       		.uleb128 0x20
 4356 3e42 6A010000 		.secrel32	LASF26
 4357 3e46 70640000 		.long	0x6470
 4358 3e4a 21       		.uleb128 0x21
 4359 3e4b C7000000 		.secrel32	LASF24
 4360 3e4f 10400000 		.long	0x4010
 4361 3e53 21       		.uleb128 0x21
 4362 3e54 3C020000 		.secrel32	LASF25
 4363 3e58 FB430000 		.long	0x43fb
 4364 3e5c 00       		.byte	0
 4365 3e5d 00       		.byte	0
 4366 3e5e 23       		.uleb128 0x23
 4367 3e5f 07       		.byte	0x7
 4368 3e60 DA       		.byte	0xda
 4369 3e61 D3000000 		.long	0xd3
 4370 3e65 24       		.uleb128 0x24
 4371 3e66 0B       		.byte	0xb
 4372 3e67 40       		.byte	0x40
 4373 3e68 08660000 		.long	0x6608
 4374 3e6c 24       		.uleb128 0x24
 4375 3e6d 0B       		.byte	0xb
GAS LISTING C:\Users\USER\AppData\Local\Temp\ccFSuTGK.s 			page 100


 4376 3e6e 8B       		.byte	0x8b
 4377 3e6f 33640000 		.long	0x6433
 4378 3e73 24       		.uleb128 0x24
 4379 3e74 0B       		.byte	0xb
 4380 3e75 8D       		.byte	0x8d
 4381 3e76 75660000 		.long	0x6675
 4382 3e7a 24       		.uleb128 0x24
 4383 3e7b 0B       		.byte	0xb
 4384 3e7c 8E       		.byte	0x8e
 4385 3e7d 8D660000 		.long	0x668d
 4386 3e81 24       		.uleb128 0x24
 4387 3e82 0B       		.byte	0xb
 4388 3e83 8F       		.byte	0x8f
 4389 3e84 AB660000 		.long	0x66ab
 4390 3e88 24       		.uleb128 0x24
 4391 3e89 0B       		.byte	0xb
 4392 3e8a 90       		.byte	0x90
 4393 3e8b D3660000 		.long	0x66d3
 4394 3e8f 24       		.uleb128 0x24
 4395 3e90 0B       		.byte	0xb
 4396 3e91 91       		.byte	0x91
 4397 3e92 F0660000 		.long	0x66f0
 4398 3e96 24       		.uleb128 0x24
 4399 3e97 0B       		.byte	0xb
 4400 3e98 92       		.byte	0x92
 4401 3e99 18670000 		.long	0x6718
 4402 3e9d 24       		.uleb128 0x24
 4403 3e9e 0B       		.byte	0xb
 4404 3e9f 93       		.byte	0x93
 4405 3ea0 35670000 		.long	0x6735
 4406 3ea4 24       		.uleb128 0x24
 4407 3ea5 0B       		.byte	0xb
 4408 3ea6 94       		.byte	0x94
 4409 3ea7 55670000 		.long	0x6755
 4410 3eab 24       		.uleb128 0x24
 4411 3eac 0B       		.byte	0xb
 4412 3ead 95       		.byte	0x95
 4413 3eae 74670000 		.long	0x6774
 4414 3eb2 24       		.uleb128 0x24
 4415 3eb3 0B       		.byte	0xb
 4416 3eb4 96       		.byte	0x96
 4417 3eb5 8B670000 		.long	0x678b
 4418 3eb9 24       		.uleb128 0x24
 4419 3eba 0B       		.byte	0xb
 4420 3ebb 97       		.byte	0x97
 4421 3ebc 9B670000 		.long	0x679b
 4422 3ec0 24       		.uleb128 0x24
 4423 3ec1 0B       		.byte	0xb
 4424 3ec2 98       		.byte	0x98
 4425 3ec3 CF670000 		.long	0x67cf
 4426 3ec7 24       		.uleb128 0x24
 4427 3ec8 0B       		.byte	0xb
 4428 3ec9 99       		.byte	0x99
 4429 3eca F8670000 		.long	0x67f8
 4430 3ece 24       		.uleb128 0x24
 4431 3ecf 0B       		.byte	0xb
 4432 3ed0 9A       		.byte	0x9a
GAS LISTING C:\Users\USER\AppData\Local\Temp\ccFSuTGK.s 			page 101


 4433 3ed1 1D680000 		.long	0x681d
 4434 3ed5 24       		.uleb128 0x24
 4435 3ed6 0B       		.byte	0xb
 4436 3ed7 9B       		.byte	0x9b
 4437 3ed8 4E680000 		.long	0x684e
 4438 3edc 24       		.uleb128 0x24
 4439 3edd 0B       		.byte	0xb
 4440 3ede 9C       		.byte	0x9c
 4441 3edf 6A680000 		.long	0x686a
 4442 3ee3 24       		.uleb128 0x24
 4443 3ee4 0B       		.byte	0xb
 4444 3ee5 A0       		.byte	0xa0
 4445 3ee6 84680000 		.long	0x6884
 4446 3eea 24       		.uleb128 0x24
 4447 3eeb 0B       		.byte	0xb
 4448 3eec A1       		.byte	0xa1
 4449 3eed A3680000 		.long	0x68a3
 4450 3ef1 24       		.uleb128 0x24
 4451 3ef2 0B       		.byte	0xb
 4452 3ef3 A2       		.byte	0xa2
 4453 3ef4 C1680000 		.long	0x68c1
 4454 3ef8 24       		.uleb128 0x24
 4455 3ef9 0B       		.byte	0xb
 4456 3efa A4       		.byte	0xa4
 4457 3efb E6680000 		.long	0x68e6
 4458 3eff 24       		.uleb128 0x24
 4459 3f00 0B       		.byte	0xb
 4460 3f01 AA       		.byte	0xaa
 4461 3f02 0A690000 		.long	0x690a
 4462 3f06 24       		.uleb128 0x24
 4463 3f07 0B       		.byte	0xb
 4464 3f08 AC       		.byte	0xac
 4465 3f09 2E690000 		.long	0x692e
 4466 3f0d 24       		.uleb128 0x24
 4467 3f0e 0B       		.byte	0xb
 4468 3f0f AE       		.byte	0xae
 4469 3f10 4D690000 		.long	0x694d
 4470 3f14 24       		.uleb128 0x24
 4471 3f15 0B       		.byte	0xb
 4472 3f16 B0       		.byte	0xb0
 4473 3f17 6B690000 		.long	0x696b
 4474 3f1b 24       		.uleb128 0x24
 4475 3f1c 0B       		.byte	0xb
 4476 3f1d B1       		.byte	0xb1
 4477 3f1e 8F690000 		.long	0x698f
 4478 3f22 24       		.uleb128 0x24
 4479 3f23 0B       		.byte	0xb
 4480 3f24 B2       		.byte	0xb2
 4481 3f25 AC690000 		.long	0x69ac
 4482 3f29 24       		.uleb128 0x24
 4483 3f2a 0B       		.byte	0xb
 4484 3f2b B3       		.byte	0xb3
 4485 3f2c C9690000 		.long	0x69c9
 4486 3f30 24       		.uleb128 0x24
 4487 3f31 0B       		.byte	0xb
 4488 3f32 B4       		.byte	0xb4
 4489 3f33 E7690000 		.long	0x69e7
GAS LISTING C:\Users\USER\AppData\Local\Temp\ccFSuTGK.s 			page 102


 4490 3f37 24       		.uleb128 0x24
 4491 3f38 0B       		.byte	0xb
 4492 3f39 B5       		.byte	0xb5
 4493 3f3a 046A0000 		.long	0x6a04
 4494 3f3e 24       		.uleb128 0x24
 4495 3f3f 0B       		.byte	0xb
 4496 3f40 B6       		.byte	0xb6
 4497 3f41 226A0000 		.long	0x6a22
 4498 3f45 24       		.uleb128 0x24
 4499 3f46 0B       		.byte	0xb
 4500 3f47 B7       		.byte	0xb7
 4501 3f48 566A0000 		.long	0x6a56
 4502 3f4c 24       		.uleb128 0x24
 4503 3f4d 0B       		.byte	0xb
 4504 3f4e B8       		.byte	0xb8
 4505 3f4f 6E6A0000 		.long	0x6a6e
 4506 3f53 24       		.uleb128 0x24
 4507 3f54 0B       		.byte	0xb
 4508 3f55 B9       		.byte	0xb9
 4509 3f56 916A0000 		.long	0x6a91
 4510 3f5a 24       		.uleb128 0x24
 4511 3f5b 0B       		.byte	0xb
 4512 3f5c BA       		.byte	0xba
 4513 3f5d B46A0000 		.long	0x6ab4
 4514 3f61 24       		.uleb128 0x24
 4515 3f62 0B       		.byte	0xb
 4516 3f63 BB       		.byte	0xbb
 4517 3f64 D76A0000 		.long	0x6ad7
 4518 3f68 24       		.uleb128 0x24
 4519 3f69 0B       		.byte	0xb
 4520 3f6a BC       		.byte	0xbc
 4521 3f6b 086B0000 		.long	0x6b08
 4522 3f6f 24       		.uleb128 0x24
 4523 3f70 0B       		.byte	0xb
 4524 3f71 BD       		.byte	0xbd
 4525 3f72 256B0000 		.long	0x6b25
 4526 3f76 24       		.uleb128 0x24
 4527 3f77 0B       		.byte	0xb
 4528 3f78 BF       		.byte	0xbf
 4529 3f79 526B0000 		.long	0x6b52
 4530 3f7d 24       		.uleb128 0x24
 4531 3f7e 0B       		.byte	0xb
 4532 3f7f C1       		.byte	0xc1
 4533 3f80 786B0000 		.long	0x6b78
 4534 3f84 24       		.uleb128 0x24
 4535 3f85 0B       		.byte	0xb
 4536 3f86 C2       		.byte	0xc2
 4537 3f87 956B0000 		.long	0x6b95
 4538 3f8b 24       		.uleb128 0x24
 4539 3f8c 0B       		.byte	0xb
 4540 3f8d C3       		.byte	0xc3
 4541 3f8e B76B0000 		.long	0x6bb7
 4542 3f92 24       		.uleb128 0x24
 4543 3f93 0B       		.byte	0xb
 4544 3f94 C4       		.byte	0xc4
 4545 3f95 DA6B0000 		.long	0x6bda
 4546 3f99 24       		.uleb128 0x24
GAS LISTING C:\Users\USER\AppData\Local\Temp\ccFSuTGK.s 			page 103


 4547 3f9a 0B       		.byte	0xb
 4548 3f9b C5       		.byte	0xc5
 4549 3f9c FD6B0000 		.long	0x6bfd
 4550 3fa0 24       		.uleb128 0x24
 4551 3fa1 0B       		.byte	0xb
 4552 3fa2 C6       		.byte	0xc6
 4553 3fa3 156C0000 		.long	0x6c15
 4554 3fa7 24       		.uleb128 0x24
 4555 3fa8 0B       		.byte	0xb
 4556 3fa9 C7       		.byte	0xc7
 4557 3faa 396C0000 		.long	0x6c39
 4558 3fae 24       		.uleb128 0x24
 4559 3faf 0B       		.byte	0xb
 4560 3fb0 C8       		.byte	0xc8
 4561 3fb1 5D6C0000 		.long	0x6c5d
 4562 3fb5 24       		.uleb128 0x24
 4563 3fb6 0B       		.byte	0xb
 4564 3fb7 C9       		.byte	0xc9
 4565 3fb8 826C0000 		.long	0x6c82
 4566 3fbc 24       		.uleb128 0x24
 4567 3fbd 0B       		.byte	0xb
 4568 3fbe CA       		.byte	0xca
 4569 3fbf A66C0000 		.long	0x6ca6
 4570 3fc3 24       		.uleb128 0x24
 4571 3fc4 0B       		.byte	0xb
 4572 3fc5 CB       		.byte	0xcb
 4573 3fc6 C06C0000 		.long	0x6cc0
 4574 3fca 24       		.uleb128 0x24
 4575 3fcb 0B       		.byte	0xb
 4576 3fcc CC       		.byte	0xcc
 4577 3fcd D96C0000 		.long	0x6cd9
 4578 3fd1 24       		.uleb128 0x24
 4579 3fd2 0B       		.byte	0xb
 4580 3fd3 CD       		.byte	0xcd
 4581 3fd4 F66C0000 		.long	0x6cf6
 4582 3fd8 24       		.uleb128 0x24
 4583 3fd9 0B       		.byte	0xb
 4584 3fda CE       		.byte	0xce
 4585 3fdb 146D0000 		.long	0x6d14
 4586 3fdf 24       		.uleb128 0x24
 4587 3fe0 0B       		.byte	0xb
 4588 3fe1 CF       		.byte	0xcf
 4589 3fe2 326D0000 		.long	0x6d32
 4590 3fe6 24       		.uleb128 0x24
 4591 3fe7 0B       		.byte	0xb
 4592 3fe8 D0       		.byte	0xd0
 4593 3fe9 4F6D0000 		.long	0x6d4f
 4594 3fed 25       		.uleb128 0x25
 4595 3fee 0B       		.byte	0xb
 4596 3fef 0801     		.word	0x108
 4597 3ff1 736D0000 		.long	0x6d73
 4598 3ff5 25       		.uleb128 0x25
 4599 3ff6 0B       		.byte	0xb
 4600 3ff7 0901     		.word	0x109
 4601 3ff9 A06D0000 		.long	0x6da0
 4602 3ffd 25       		.uleb128 0x25
 4603 3ffe 0B       		.byte	0xb
GAS LISTING C:\Users\USER\AppData\Local\Temp\ccFSuTGK.s 			page 104


 4604 3fff 0A01     		.word	0x10a
 4605 4001 C46D0000 		.long	0x6dc4
 4606 4005 26       		.uleb128 0x26
 4607 4006 5F5F6465 		.ascii "__debug\0"
 4607      62756700 
 4608 400e 13       		.byte	0x13
 4609 400f 30       		.byte	0x30
 4610 4010 27       		.uleb128 0x27
 4611 4011 63686172 		.ascii "char_traits<char>\0"
 4611      5F747261 
 4611      6974733C 
 4611      63686172 
 4611      3E00
 4612 4023 01       		.byte	0x1
 4613 4024 0C       		.byte	0xc
 4614 4025 E9       		.byte	0xe9
 4615 4026 C7430000 		.long	0x43c7
 4616 402a 10       		.uleb128 0x10
 4617 402b 63686172 		.ascii "char_type\0"
 4617      5F747970 
 4617      6500
 4618 4035 0C       		.byte	0xc
 4619 4036 EB       		.byte	0xeb
 4620 4037 70640000 		.long	0x6470
 4621 403b 10       		.uleb128 0x10
 4622 403c 696E745F 		.ascii "int_type\0"
 4622      74797065 
 4622      00
 4623 4045 0C       		.byte	0xc
 4624 4046 EC       		.byte	0xec
 4625 4047 A4640000 		.long	0x64a4
 4626 404b 28       		.uleb128 0x28
 4627 404c 09010000 		.secrel32	LASF15
 4628 4050 0C       		.byte	0xc
 4629 4051 F2       		.byte	0xf2
 4630 4052 5F5A4E53 		.ascii "_ZNSt11char_traitsIcE6assignERcRKc\0"
 4630      74313163 
 4630      6861725F 
 4630      74726169 
 4630      74734963 
 4631 4075 84400000 		.long	0x4084
 4632 4079 09       		.uleb128 0x9
 4633 407a 046E0000 		.long	0x6e04
 4634 407e 09       		.uleb128 0x9
 4635 407f 0A6E0000 		.long	0x6e0a
 4636 4083 00       		.byte	0
 4637 4084 0E       		.uleb128 0xe
 4638 4085 2A400000 		.long	0x402a
 4639 4089 29       		.uleb128 0x29
 4640 408a 657100   		.ascii "eq\0"
 4641 408d 0C       		.byte	0xc
 4642 408e F6       		.byte	0xf6
 4643 408f 5F5A4E53 		.ascii "_ZNSt11char_traitsIcE2eqERKcS2_\0"
 4643      74313163 
 4643      6861725F 
 4643      74726169 
 4643      74734963 
GAS LISTING C:\Users\USER\AppData\Local\Temp\ccFSuTGK.s 			page 105


 4644 40af 106E0000 		.long	0x6e10
 4645 40b3 C2400000 		.long	0x40c2
 4646 40b7 09       		.uleb128 0x9
 4647 40b8 0A6E0000 		.long	0x6e0a
 4648 40bc 09       		.uleb128 0x9
 4649 40bd 0A6E0000 		.long	0x6e0a
 4650 40c1 00       		.byte	0
 4651 40c2 29       		.uleb128 0x29
 4652 40c3 6C7400   		.ascii "lt\0"
 4653 40c6 0C       		.byte	0xc
 4654 40c7 FA       		.byte	0xfa
 4655 40c8 5F5A4E53 		.ascii "_ZNSt11char_traitsIcE2ltERKcS2_\0"
 4655      74313163 
 4655      6861725F 
 4655      74726169 
 4655      74734963 
 4656 40e8 106E0000 		.long	0x6e10
 4657 40ec FB400000 		.long	0x40fb
 4658 40f0 09       		.uleb128 0x9
 4659 40f1 0A6E0000 		.long	0x6e0a
 4660 40f5 09       		.uleb128 0x9
 4661 40f6 0A6E0000 		.long	0x6e0a
 4662 40fa 00       		.byte	0
 4663 40fb 2A       		.uleb128 0x2a
 4664 40fc D8010000 		.secrel32	LASF23
 4665 4100 0C       		.byte	0xc
 4666 4101 0201     		.word	0x102
 4667 4103 5F5A4E53 		.ascii "_ZNSt11char_traitsIcE7compareEPKcS2_j\0"
 4667      74313163 
 4667      6861725F 
 4667      74726169 
 4667      74734963 
 4668 4129 A4640000 		.long	0x64a4
 4669 412d 41410000 		.long	0x4141
 4670 4131 09       		.uleb128 0x9
 4671 4132 186E0000 		.long	0x6e18
 4672 4136 09       		.uleb128 0x9
 4673 4137 186E0000 		.long	0x6e18
 4674 413b 09       		.uleb128 0x9
 4675 413c C7430000 		.long	0x43c7
 4676 4140 00       		.byte	0
 4677 4141 19       		.uleb128 0x19
 4678 4142 6C656E67 		.ascii "length\0"
 4678      746800
 4679 4149 0C       		.byte	0xc
 4680 414a 0601     		.word	0x106
 4681 414c 5F5A4E53 		.ascii "_ZNSt11char_traitsIcE6lengthEPKc\0"
 4681      74313163 
 4681      6861725F 
 4681      74726169 
 4681      74734963 
 4682 416d C7430000 		.long	0x43c7
 4683 4171 7B410000 		.long	0x417b
 4684 4175 09       		.uleb128 0x9
 4685 4176 186E0000 		.long	0x6e18
 4686 417a 00       		.byte	0
 4687 417b 19       		.uleb128 0x19
GAS LISTING C:\Users\USER\AppData\Local\Temp\ccFSuTGK.s 			page 106


 4688 417c 66696E64 		.ascii "find\0"
 4688      00
 4689 4181 0C       		.byte	0xc
 4690 4182 0A01     		.word	0x10a
 4691 4184 5F5A4E53 		.ascii "_ZNSt11char_traitsIcE4findEPKcjRS1_\0"
 4691      74313163 
 4691      6861725F 
 4691      74726169 
 4691      74734963 
 4692 41a8 186E0000 		.long	0x6e18
 4693 41ac C0410000 		.long	0x41c0
 4694 41b0 09       		.uleb128 0x9
 4695 41b1 186E0000 		.long	0x6e18
 4696 41b5 09       		.uleb128 0x9
 4697 41b6 C7430000 		.long	0x43c7
 4698 41ba 09       		.uleb128 0x9
 4699 41bb 0A6E0000 		.long	0x6e0a
 4700 41bf 00       		.byte	0
 4701 41c0 19       		.uleb128 0x19
 4702 41c1 6D6F7665 		.ascii "move\0"
 4702      00
 4703 41c6 0C       		.byte	0xc
 4704 41c7 0E01     		.word	0x10e
 4705 41c9 5F5A4E53 		.ascii "_ZNSt11char_traitsIcE4moveEPcPKcj\0"
 4705      74313163 
 4705      6861725F 
 4705      74726169 
 4705      74734963 
 4706 41eb 1E6E0000 		.long	0x6e1e
 4707 41ef 03420000 		.long	0x4203
 4708 41f3 09       		.uleb128 0x9
 4709 41f4 1E6E0000 		.long	0x6e1e
 4710 41f8 09       		.uleb128 0x9
 4711 41f9 186E0000 		.long	0x6e18
 4712 41fd 09       		.uleb128 0x9
 4713 41fe C7430000 		.long	0x43c7
 4714 4202 00       		.byte	0
 4715 4203 19       		.uleb128 0x19
 4716 4204 636F7079 		.ascii "copy\0"
 4716      00
 4717 4209 0C       		.byte	0xc
 4718 420a 1201     		.word	0x112
 4719 420c 5F5A4E53 		.ascii "_ZNSt11char_traitsIcE4copyEPcPKcj\0"
 4719      74313163 
 4719      6861725F 
 4719      74726169 
 4719      74734963 
 4720 422e 1E6E0000 		.long	0x6e1e
 4721 4232 46420000 		.long	0x4246
 4722 4236 09       		.uleb128 0x9
 4723 4237 1E6E0000 		.long	0x6e1e
 4724 423b 09       		.uleb128 0x9
 4725 423c 186E0000 		.long	0x6e18
 4726 4240 09       		.uleb128 0x9
 4727 4241 C7430000 		.long	0x43c7
 4728 4245 00       		.byte	0
 4729 4246 2A       		.uleb128 0x2a
GAS LISTING C:\Users\USER\AppData\Local\Temp\ccFSuTGK.s 			page 107


 4730 4247 09010000 		.secrel32	LASF15
 4731 424b 0C       		.byte	0xc
 4732 424c 1601     		.word	0x116
 4733 424e 5F5A4E53 		.ascii "_ZNSt11char_traitsIcE6assignEPcjc\0"
 4733      74313163 
 4733      6861725F 
 4733      74726169 
 4733      74734963 
 4734 4270 1E6E0000 		.long	0x6e1e
 4735 4274 88420000 		.long	0x4288
 4736 4278 09       		.uleb128 0x9
 4737 4279 1E6E0000 		.long	0x6e1e
 4738 427d 09       		.uleb128 0x9
 4739 427e C7430000 		.long	0x43c7
 4740 4282 09       		.uleb128 0x9
 4741 4283 2A400000 		.long	0x402a
 4742 4287 00       		.byte	0
 4743 4288 19       		.uleb128 0x19
 4744 4289 746F5F63 		.ascii "to_char_type\0"
 4744      6861725F 
 4744      74797065 
 4744      00
 4745 4296 0C       		.byte	0xc
 4746 4297 1A01     		.word	0x11a
 4747 4299 5F5A4E53 		.ascii "_ZNSt11char_traitsIcE12to_char_typeERKi\0"
 4747      74313163 
 4747      6861725F 
 4747      74726169 
 4747      74734963 
 4748 42c1 2A400000 		.long	0x402a
 4749 42c5 CF420000 		.long	0x42cf
 4750 42c9 09       		.uleb128 0x9
 4751 42ca 246E0000 		.long	0x6e24
 4752 42ce 00       		.byte	0
 4753 42cf 0E       		.uleb128 0xe
 4754 42d0 3B400000 		.long	0x403b
 4755 42d4 19       		.uleb128 0x19
 4756 42d5 746F5F69 		.ascii "to_int_type\0"
 4756      6E745F74 
 4756      79706500 
 4757 42e1 0C       		.byte	0xc
 4758 42e2 2001     		.word	0x120
 4759 42e4 5F5A4E53 		.ascii "_ZNSt11char_traitsIcE11to_int_typeERKc\0"
 4759      74313163 
 4759      6861725F 
 4759      74726169 
 4759      74734963 
 4760 430b 3B400000 		.long	0x403b
 4761 430f 19430000 		.long	0x4319
 4762 4313 09       		.uleb128 0x9
 4763 4314 0A6E0000 		.long	0x6e0a
 4764 4318 00       		.byte	0
 4765 4319 19       		.uleb128 0x19
 4766 431a 65715F69 		.ascii "eq_int_type\0"
 4766      6E745F74 
 4766      79706500 
 4767 4326 0C       		.byte	0xc
GAS LISTING C:\Users\USER\AppData\Local\Temp\ccFSuTGK.s 			page 108


 4768 4327 2401     		.word	0x124
 4769 4329 5F5A4E53 		.ascii "_ZNSt11char_traitsIcE11eq_int_typeERKiS2_\0"
 4769      74313163 
 4769      6861725F 
 4769      74726169 
 4769      74734963 
 4770 4353 106E0000 		.long	0x6e10
 4771 4357 66430000 		.long	0x4366
 4772 435b 09       		.uleb128 0x9
 4773 435c 246E0000 		.long	0x6e24
 4774 4360 09       		.uleb128 0x9
 4775 4361 246E0000 		.long	0x6e24
 4776 4365 00       		.byte	0
 4777 4366 2B       		.uleb128 0x2b
 4778 4367 656F6600 		.ascii "eof\0"
 4779 436b 0C       		.byte	0xc
 4780 436c 2801     		.word	0x128
 4781 436e 5F5A4E53 		.ascii "_ZNSt11char_traitsIcE3eofEv\0"
 4781      74313163 
 4781      6861725F 
 4781      74726169 
 4781      74734963 
 4782 438a 3B400000 		.long	0x403b
 4783 438e 2C       		.uleb128 0x2c
 4784 438f 6E6F745F 		.ascii "not_eof\0"
 4784      656F6600 
 4785 4397 0C       		.byte	0xc
 4786 4398 2C01     		.word	0x12c
 4787 439a 5F5A4E53 		.ascii "_ZNSt11char_traitsIcE7not_eofERKi\0"
 4787      74313163 
 4787      6861725F 
 4787      74726169 
 4787      74734963 
 4788 43bc 3B400000 		.long	0x403b
 4789 43c0 09       		.uleb128 0x9
 4790 43c1 246E0000 		.long	0x6e24
 4791 43c5 00       		.byte	0
 4792 43c6 00       		.byte	0
 4793 43c7 10       		.uleb128 0x10
 4794 43c8 73697A65 		.ascii "size_t\0"
 4794      5F7400
 4795 43cf 07       		.byte	0x7
 4796 43d0 C4       		.byte	0xc4
 4797 43d1 23640000 		.long	0x6423
 4798 43d5 24       		.uleb128 0x24
 4799 43d6 0D       		.byte	0xd
 4800 43d7 35       		.byte	0x35
 4801 43d8 2A6E0000 		.long	0x6e2a
 4802 43dc 24       		.uleb128 0x24
 4803 43dd 0D       		.byte	0xd
 4804 43de 36       		.byte	0x36
 4805 43df C96F0000 		.long	0x6fc9
 4806 43e3 24       		.uleb128 0x24
 4807 43e4 0D       		.byte	0xd
 4808 43e5 37       		.byte	0x37
 4809 43e6 E96F0000 		.long	0x6fe9
 4810 43ea 10       		.uleb128 0x10
GAS LISTING C:\Users\USER\AppData\Local\Temp\ccFSuTGK.s 			page 109


 4811 43eb 70747264 		.ascii "ptrdiff_t\0"
 4811      6966665F 
 4811      7400
 4812 43f5 07       		.byte	0x7
 4813 43f6 C5       		.byte	0xc5
 4814 43f7 A4640000 		.long	0x64a4
 4815 43fb 03       		.uleb128 0x3
 4816 43fc 616C6C6F 		.ascii "allocator<char>\0"
 4816      6361746F 
 4816      723C6368 
 4816      61723E00 
 4817 440c 01       		.byte	0x1
 4818 440d 0E       		.byte	0xe
 4819 440e 5C       		.byte	0x5c
 4820 440f F5440000 		.long	0x44f5
 4821 4413 2D       		.uleb128 0x2d
 4822 4414 A64D0000 		.long	0x4da6
 4823 4418 00       		.byte	0
 4824 4419 01       		.byte	0x1
 4825 441a 0A       		.uleb128 0xa
 4826 441b 00000000 		.secrel32	LASF1
 4827 441f 0E       		.byte	0xe
 4828 4420 5F       		.byte	0x5f
 4829 4421 C7430000 		.long	0x43c7
 4830 4425 01       		.byte	0x1
 4831 4426 0A       		.uleb128 0xa
 4832 4427 F3010000 		.secrel32	LASF0
 4833 442b 0E       		.byte	0xe
 4834 442c 61       		.byte	0x61
 4835 442d 5C650000 		.long	0x655c
 4836 4431 01       		.byte	0x1
 4837 4432 0A       		.uleb128 0xa
 4838 4433 12000000 		.secrel32	LASF4
 4839 4437 0E       		.byte	0xe
 4840 4438 62       		.byte	0x62
 4841 4439 BE670000 		.long	0x67be
 4842 443d 01       		.byte	0x1
 4843 443e 0A       		.uleb128 0xa
 4844 443f BE010000 		.secrel32	LASF2
 4845 4443 0E       		.byte	0xe
 4846 4444 63       		.byte	0x63
 4847 4445 1C700000 		.long	0x701c
 4848 4449 01       		.byte	0x1
 4849 444a 0A       		.uleb128 0xa
 4850 444b C8010000 		.secrel32	LASF3
 4851 444f 0E       		.byte	0xe
 4852 4450 64       		.byte	0x64
 4853 4451 22700000 		.long	0x7022
 4854 4455 01       		.byte	0x1
 4855 4456 2E       		.uleb128 0x2e
 4856 4457 20000000 		.secrel32	LASF27
 4857 445b 0E       		.byte	0xe
 4858 445c 71       		.byte	0x71
 4859 445d 5F5A4E53 		.ascii "_ZNSaIcEC4Ev\0"
 4859      61496345 
 4859      43344576 
 4859      00
GAS LISTING C:\Users\USER\AppData\Local\Temp\ccFSuTGK.s 			page 110


 4860 446a 01       		.byte	0x1
 4861 446b 73440000 		.long	0x4473
 4862 446f 79440000 		.long	0x4479
 4863 4473 08       		.uleb128 0x8
 4864 4474 3A700000 		.long	0x703a
 4865 4478 00       		.byte	0
 4866 4479 2E       		.uleb128 0x2e
 4867 447a 20000000 		.secrel32	LASF27
 4868 447e 0E       		.byte	0xe
 4869 447f 73       		.byte	0x73
 4870 4480 5F5A4E53 		.ascii "_ZNSaIcEC4ERKS_\0"
 4870      61496345 
 4870      43344552 
 4870      4B535F00 
 4871 4490 01       		.byte	0x1
 4872 4491 99440000 		.long	0x4499
 4873 4495 A4440000 		.long	0x44a4
 4874 4499 08       		.uleb128 0x8
 4875 449a 3A700000 		.long	0x703a
 4876 449e 09       		.uleb128 0x9
 4877 449f 40700000 		.long	0x7040
 4878 44a3 00       		.byte	0
 4879 44a4 1F       		.uleb128 0x1f
 4880 44a5 7E616C6C 		.ascii "~allocator\0"
 4880      6F636174 
 4880      6F7200
 4881 44b0 0E       		.byte	0xe
 4882 44b1 79       		.byte	0x79
 4883 44b2 5F5A4E53 		.ascii "_ZNSaIcED4Ei\0"
 4883      61496345 
 4883      44344569 
 4883      00
 4884 44bf 01       		.byte	0x1
 4885 44c0 C8440000 		.long	0x44c8
 4886 44c4 D3440000 		.long	0x44d3
 4887 44c8 08       		.uleb128 0x8
 4888 44c9 3A700000 		.long	0x703a
 4889 44cd 08       		.uleb128 0x8
 4890 44ce A4640000 		.long	0x64a4
 4891 44d2 00       		.byte	0
 4892 44d3 2F       		.uleb128 0x2f
 4893 44d4 E0010000 		.secrel32	LASF28
 4894 44d8 01       		.byte	0x1
 4895 44d9 0E       		.byte	0xe
 4896 44da 68       		.byte	0x68
 4897 44db 01       		.byte	0x1
 4898 44dc 10       		.uleb128 0x10
 4899 44dd 6F746865 		.ascii "other\0"
 4899      7200
 4900 44e3 0E       		.byte	0xe
 4901 44e4 69       		.byte	0x69
 4902 44e5 FB430000 		.long	0x43fb
 4903 44e9 30       		.uleb128 0x30
 4904 44ea 5F547031 		.ascii "_Tp1\0"
 4904      00
 4905 44ef 70640000 		.long	0x6470
 4906 44f3 00       		.byte	0
GAS LISTING C:\Users\USER\AppData\Local\Temp\ccFSuTGK.s 			page 111


 4907 44f4 00       		.byte	0
 4908 44f5 0E       		.uleb128 0xe
 4909 44f6 FB430000 		.long	0x43fb
 4910 44fa 31       		.uleb128 0x31
 4911 44fb 72657665 		.ascii "reverse_iterator<__gnu_cxx::__normal_iterator<char const*, std::__cxx11::basic_string<char
 4911      7273655F 
 4911      69746572 
 4911      61746F72 
 4911      3C5F5F67 
 4912 458a 31       		.uleb128 0x31
 4913 458b 72657665 		.ascii "reverse_iterator<__gnu_cxx::__normal_iterator<char*, std::__cxx11::basic_string<char, std:
 4913      7273655F 
 4913      69746572 
 4913      61746F72 
 4913      3C5F5F67 
 4914 4614 32       		.uleb128 0x32
 4915 4615 5F496F73 		.ascii "_Ios_Fmtflags\0"
 4915      5F466D74 
 4915      666C6167 
 4915      7300
 4916 4623 04       		.byte	0x4
 4917 4624 23640000 		.long	0x6423
 4918 4628 0F       		.byte	0xf
 4919 4629 39       		.byte	0x39
 4920 462a 3A470000 		.long	0x473a
 4921 462e 33       		.uleb128 0x33
 4922 462f 5F535F62 		.ascii "_S_boolalpha\0"
 4922      6F6F6C61 
 4922      6C706861 
 4922      00
 4923 463c 01       		.byte	0x1
 4924 463d 33       		.uleb128 0x33
 4925 463e 5F535F64 		.ascii "_S_dec\0"
 4925      656300
 4926 4645 02       		.byte	0x2
 4927 4646 33       		.uleb128 0x33
 4928 4647 5F535F66 		.ascii "_S_fixed\0"
 4928      69786564 
 4928      00
 4929 4650 04       		.byte	0x4
 4930 4651 33       		.uleb128 0x33
 4931 4652 5F535F68 		.ascii "_S_hex\0"
 4931      657800
 4932 4659 08       		.byte	0x8
 4933 465a 33       		.uleb128 0x33
 4934 465b 5F535F69 		.ascii "_S_internal\0"
 4934      6E746572 
 4934      6E616C00 
 4935 4667 10       		.byte	0x10
 4936 4668 33       		.uleb128 0x33
 4937 4669 5F535F6C 		.ascii "_S_left\0"
 4937      65667400 
 4938 4671 20       		.byte	0x20
 4939 4672 33       		.uleb128 0x33
 4940 4673 5F535F6F 		.ascii "_S_oct\0"
 4940      637400
 4941 467a 40       		.byte	0x40
GAS LISTING C:\Users\USER\AppData\Local\Temp\ccFSuTGK.s 			page 112


 4942 467b 33       		.uleb128 0x33
 4943 467c 5F535F72 		.ascii "_S_right\0"
 4943      69676874 
 4943      00
 4944 4685 80       		.byte	0x80
 4945 4686 34       		.uleb128 0x34
 4946 4687 5F535F73 		.ascii "_S_scientific\0"
 4946      6369656E 
 4946      74696669 
 4946      6300
 4947 4695 0001     		.word	0x100
 4948 4697 34       		.uleb128 0x34
 4949 4698 5F535F73 		.ascii "_S_showbase\0"
 4949      686F7762 
 4949      61736500 
 4950 46a4 0002     		.word	0x200
 4951 46a6 34       		.uleb128 0x34
 4952 46a7 5F535F73 		.ascii "_S_showpoint\0"
 4952      686F7770 
 4952      6F696E74 
 4952      00
 4953 46b4 0004     		.word	0x400
 4954 46b6 34       		.uleb128 0x34
 4955 46b7 5F535F73 		.ascii "_S_showpos\0"
 4955      686F7770 
 4955      6F7300
 4956 46c2 0008     		.word	0x800
 4957 46c4 34       		.uleb128 0x34
 4958 46c5 5F535F73 		.ascii "_S_skipws\0"
 4958      6B697077 
 4958      7300
 4959 46cf 0010     		.word	0x1000
 4960 46d1 34       		.uleb128 0x34
 4961 46d2 5F535F75 		.ascii "_S_unitbuf\0"
 4961      6E697462 
 4961      756600
 4962 46dd 0020     		.word	0x2000
 4963 46df 34       		.uleb128 0x34
 4964 46e0 5F535F75 		.ascii "_S_uppercase\0"
 4964      70706572 
 4964      63617365 
 4964      00
 4965 46ed 0040     		.word	0x4000
 4966 46ef 33       		.uleb128 0x33
 4967 46f0 5F535F61 		.ascii "_S_adjustfield\0"
 4967      646A7573 
 4967      74666965 
 4967      6C6400
 4968 46ff B0       		.byte	0xb0
 4969 4700 33       		.uleb128 0x33
 4970 4701 5F535F62 		.ascii "_S_basefield\0"
 4970      61736566 
 4970      69656C64 
 4970      00
 4971 470e 4A       		.byte	0x4a
 4972 470f 34       		.uleb128 0x34
 4973 4710 5F535F66 		.ascii "_S_floatfield\0"
GAS LISTING C:\Users\USER\AppData\Local\Temp\ccFSuTGK.s 			page 113


 4973      6C6F6174 
 4973      6669656C 
 4973      6400
 4974 471e 0401     		.word	0x104
 4975 4720 35       		.uleb128 0x35
 4976 4721 5F535F69 		.ascii "_S_ios_fmtflags_end\0"
 4976      6F735F66 
 4976      6D74666C 
 4976      6167735F 
 4976      656E6400 
 4977 4735 00000100 		.long	0x10000
 4978 4739 00       		.byte	0
 4979 473a 32       		.uleb128 0x32
 4980 473b 5F496F73 		.ascii "_Ios_Openmode\0"
 4980      5F4F7065 
 4980      6E6D6F64 
 4980      6500
 4981 4749 04       		.byte	0x4
 4982 474a 23640000 		.long	0x6423
 4983 474e 0F       		.byte	0xf
 4984 474f 6D       		.byte	0x6d
 4985 4750 A5470000 		.long	0x47a5
 4986 4754 33       		.uleb128 0x33
 4987 4755 5F535F61 		.ascii "_S_app\0"
 4987      707000
 4988 475c 01       		.byte	0x1
 4989 475d 33       		.uleb128 0x33
 4990 475e 5F535F61 		.ascii "_S_ate\0"
 4990      746500
 4991 4765 02       		.byte	0x2
 4992 4766 33       		.uleb128 0x33
 4993 4767 5F535F62 		.ascii "_S_bin\0"
 4993      696E00
 4994 476e 04       		.byte	0x4
 4995 476f 33       		.uleb128 0x33
 4996 4770 5F535F69 		.ascii "_S_in\0"
 4996      6E00
 4997 4776 08       		.byte	0x8
 4998 4777 33       		.uleb128 0x33
 4999 4778 5F535F6F 		.ascii "_S_out\0"
 4999      757400
 5000 477f 10       		.byte	0x10
 5001 4780 33       		.uleb128 0x33
 5002 4781 5F535F74 		.ascii "_S_trunc\0"
 5002      72756E63 
 5002      00
 5003 478a 20       		.byte	0x20
 5004 478b 35       		.uleb128 0x35
 5005 478c 5F535F69 		.ascii "_S_ios_openmode_end\0"
 5005      6F735F6F 
 5005      70656E6D 
 5005      6F64655F 
 5005      656E6400 
 5006 47a0 00000100 		.long	0x10000
 5007 47a4 00       		.byte	0
 5008 47a5 32       		.uleb128 0x32
 5009 47a6 5F496F73 		.ascii "_Ios_Iostate\0"
GAS LISTING C:\Users\USER\AppData\Local\Temp\ccFSuTGK.s 			page 114


 5009      5F496F73 
 5009      74617465 
 5009      00
 5010 47b3 04       		.byte	0x4
 5011 47b4 23640000 		.long	0x6423
 5012 47b8 0F       		.byte	0xf
 5013 47b9 95       		.byte	0x95
 5014 47ba 09480000 		.long	0x4809
 5015 47be 33       		.uleb128 0x33
 5016 47bf 5F535F67 		.ascii "_S_goodbit\0"
 5016      6F6F6462 
 5016      697400
 5017 47ca 00       		.byte	0
 5018 47cb 33       		.uleb128 0x33
 5019 47cc 5F535F62 		.ascii "_S_badbit\0"
 5019      61646269 
 5019      7400
 5020 47d6 01       		.byte	0x1
 5021 47d7 33       		.uleb128 0x33
 5022 47d8 5F535F65 		.ascii "_S_eofbit\0"
 5022      6F666269 
 5022      7400
 5023 47e2 02       		.byte	0x2
 5024 47e3 33       		.uleb128 0x33
 5025 47e4 5F535F66 		.ascii "_S_failbit\0"
 5025      61696C62 
 5025      697400
 5026 47ef 04       		.byte	0x4
 5027 47f0 35       		.uleb128 0x35
 5028 47f1 5F535F69 		.ascii "_S_ios_iostate_end\0"
 5028      6F735F69 
 5028      6F737461 
 5028      74655F65 
 5028      6E6400
 5029 4804 00000100 		.long	0x10000
 5030 4808 00       		.byte	0
 5031 4809 32       		.uleb128 0x32
 5032 480a 5F496F73 		.ascii "_Ios_Seekdir\0"
 5032      5F536565 
 5032      6B646972 
 5032      00
 5033 4817 04       		.byte	0x4
 5034 4818 23640000 		.long	0x6423
 5035 481c 0F       		.byte	0xf
 5036 481d BB       		.byte	0xbb
 5037 481e 56480000 		.long	0x4856
 5038 4822 33       		.uleb128 0x33
 5039 4823 5F535F62 		.ascii "_S_beg\0"
 5039      656700
 5040 482a 00       		.byte	0
 5041 482b 33       		.uleb128 0x33
 5042 482c 5F535F63 		.ascii "_S_cur\0"
 5042      757200
 5043 4833 01       		.byte	0x1
 5044 4834 33       		.uleb128 0x33
 5045 4835 5F535F65 		.ascii "_S_end\0"
 5045      6E6400
GAS LISTING C:\Users\USER\AppData\Local\Temp\ccFSuTGK.s 			page 115


 5046 483c 02       		.byte	0x2
 5047 483d 35       		.uleb128 0x35
 5048 483e 5F535F69 		.ascii "_S_ios_seekdir_end\0"
 5048      6F735F73 
 5048      65656B64 
 5048      69725F65 
 5048      6E6400
 5049 4851 00000100 		.long	0x10000
 5050 4855 00       		.byte	0
 5051 4856 36       		.uleb128 0x36
 5052 4857 696F735F 		.ascii "ios_base\0"
 5052      62617365 
 5052      00
 5053 4860 764B0000 		.long	0x4b76
 5054 4864 37       		.uleb128 0x37
 5055 4865 496E6974 		.ascii "Init\0"
 5055      00
 5056 486a 01       		.byte	0x1
 5057 486b 0F       		.byte	0xf
 5058 486c 5302     		.word	0x253
 5059 486e 01       		.byte	0x1
 5060 486f 07490000 		.long	0x4907
 5061 4873 38       		.uleb128 0x38
 5062 4874 5F535F72 		.ascii "_S_refcount\0"
 5062      6566636F 
 5062      756E7400 
 5063 4880 0F       		.byte	0xf
 5064 4881 5B02     		.word	0x25b
 5065 4883 01700000 		.long	0x7001
 5066 4887 38       		.uleb128 0x38
 5067 4888 5F535F73 		.ascii "_S_synced_with_stdio\0"
 5067      796E6365 
 5067      645F7769 
 5067      74685F73 
 5067      7464696F 
 5068 489d 0F       		.byte	0xf
 5069 489e 5C02     		.word	0x25c
 5070 48a0 106E0000 		.long	0x6e10
 5071 48a4 1C       		.uleb128 0x1c
 5072 48a5 496E6974 		.ascii "Init\0"
 5072      00
 5073 48aa 0F       		.byte	0xf
 5074 48ab 5702     		.word	0x257
 5075 48ad 5F5A4E53 		.ascii "_ZNSt8ios_base4InitC4Ev\0"
 5075      7438696F 
 5075      735F6261 
 5075      73653449 
 5075      6E697443 
 5076 48c5 01       		.byte	0x1
 5077 48c6 CE480000 		.long	0x48ce
 5078 48ca D4480000 		.long	0x48d4
 5079 48ce 08       		.uleb128 0x8
 5080 48cf A0700000 		.long	0x70a0
 5081 48d3 00       		.byte	0
 5082 48d4 39       		.uleb128 0x39
 5083 48d5 7E496E69 		.ascii "~Init\0"
 5083      7400
GAS LISTING C:\Users\USER\AppData\Local\Temp\ccFSuTGK.s 			page 116


 5084 48db 0F       		.byte	0xf
 5085 48dc 5802     		.word	0x258
 5086 48de 5F5A4E53 		.ascii "_ZNSt8ios_base4InitD4Ev\0"
 5086      7438696F 
 5086      735F6261 
 5086      73653449 
 5086      6E697444 
 5087 48f6 01       		.byte	0x1
 5088 48f7 FB480000 		.long	0x48fb
 5089 48fb 08       		.uleb128 0x8
 5090 48fc A0700000 		.long	0x70a0
 5091 4900 08       		.uleb128 0x8
 5092 4901 A4640000 		.long	0x64a4
 5093 4905 00       		.byte	0
 5094 4906 00       		.byte	0
 5095 4907 3A       		.uleb128 0x3a
 5096 4908 666D7466 		.ascii "fmtflags\0"
 5096      6C616773 
 5096      00
 5097 4911 0F       		.byte	0xf
 5098 4912 3D01     		.word	0x13d
 5099 4914 14460000 		.long	0x4614
 5100 4918 01       		.byte	0x1
 5101 4919 3B       		.uleb128 0x3b
 5102 491a 626F6F6C 		.ascii "boolalpha\0"
 5102      616C7068 
 5102      6100
 5103 4924 0F       		.byte	0xf
 5104 4925 4001     		.word	0x140
 5105 4927 2D490000 		.long	0x492d
 5106 492b 01       		.byte	0x1
 5107 492c 01       		.byte	0x1
 5108 492d 0E       		.uleb128 0xe
 5109 492e 07490000 		.long	0x4907
 5110 4932 3B       		.uleb128 0x3b
 5111 4933 64656300 		.ascii "dec\0"
 5112 4937 0F       		.byte	0xf
 5113 4938 4301     		.word	0x143
 5114 493a 2D490000 		.long	0x492d
 5115 493e 01       		.byte	0x1
 5116 493f 02       		.byte	0x2
 5117 4940 3B       		.uleb128 0x3b
 5118 4941 66697865 		.ascii "fixed\0"
 5118      6400
 5119 4947 0F       		.byte	0xf
 5120 4948 4601     		.word	0x146
 5121 494a 2D490000 		.long	0x492d
 5122 494e 01       		.byte	0x1
 5123 494f 04       		.byte	0x4
 5124 4950 3B       		.uleb128 0x3b
 5125 4951 68657800 		.ascii "hex\0"
 5126 4955 0F       		.byte	0xf
 5127 4956 4901     		.word	0x149
 5128 4958 2D490000 		.long	0x492d
 5129 495c 01       		.byte	0x1
 5130 495d 08       		.byte	0x8
 5131 495e 3B       		.uleb128 0x3b
GAS LISTING C:\Users\USER\AppData\Local\Temp\ccFSuTGK.s 			page 117


 5132 495f 696E7465 		.ascii "internal\0"
 5132      726E616C 
 5132      00
 5133 4968 0F       		.byte	0xf
 5134 4969 4E01     		.word	0x14e
 5135 496b 2D490000 		.long	0x492d
 5136 496f 01       		.byte	0x1
 5137 4970 10       		.byte	0x10
 5138 4971 3B       		.uleb128 0x3b
 5139 4972 6C656674 		.ascii "left\0"
 5139      00
 5140 4977 0F       		.byte	0xf
 5141 4978 5201     		.word	0x152
 5142 497a 2D490000 		.long	0x492d
 5143 497e 01       		.byte	0x1
 5144 497f 20       		.byte	0x20
 5145 4980 3B       		.uleb128 0x3b
 5146 4981 6F637400 		.ascii "oct\0"
 5147 4985 0F       		.byte	0xf
 5148 4986 5501     		.word	0x155
 5149 4988 2D490000 		.long	0x492d
 5150 498c 01       		.byte	0x1
 5151 498d 40       		.byte	0x40
 5152 498e 3B       		.uleb128 0x3b
 5153 498f 72696768 		.ascii "right\0"
 5153      7400
 5154 4995 0F       		.byte	0xf
 5155 4996 5901     		.word	0x159
 5156 4998 2D490000 		.long	0x492d
 5157 499c 01       		.byte	0x1
 5158 499d 80       		.byte	0x80
 5159 499e 3C       		.uleb128 0x3c
 5160 499f 73636965 		.ascii "scientific\0"
 5160      6E746966 
 5160      696300
 5161 49aa 0F       		.byte	0xf
 5162 49ab 5C01     		.word	0x15c
 5163 49ad 2D490000 		.long	0x492d
 5164 49b1 01       		.byte	0x1
 5165 49b2 0001     		.word	0x100
 5166 49b4 3C       		.uleb128 0x3c
 5167 49b5 73686F77 		.ascii "showbase\0"
 5167      62617365 
 5167      00
 5168 49be 0F       		.byte	0xf
 5169 49bf 6001     		.word	0x160
 5170 49c1 2D490000 		.long	0x492d
 5171 49c5 01       		.byte	0x1
 5172 49c6 0002     		.word	0x200
 5173 49c8 3C       		.uleb128 0x3c
 5174 49c9 73686F77 		.ascii "showpoint\0"
 5174      706F696E 
 5174      7400
 5175 49d3 0F       		.byte	0xf
 5176 49d4 6401     		.word	0x164
 5177 49d6 2D490000 		.long	0x492d
 5178 49da 01       		.byte	0x1
GAS LISTING C:\Users\USER\AppData\Local\Temp\ccFSuTGK.s 			page 118


 5179 49db 0004     		.word	0x400
 5180 49dd 3C       		.uleb128 0x3c
 5181 49de 73686F77 		.ascii "showpos\0"
 5181      706F7300 
 5182 49e6 0F       		.byte	0xf
 5183 49e7 6701     		.word	0x167
 5184 49e9 2D490000 		.long	0x492d
 5185 49ed 01       		.byte	0x1
 5186 49ee 0008     		.word	0x800
 5187 49f0 3C       		.uleb128 0x3c
 5188 49f1 736B6970 		.ascii "skipws\0"
 5188      777300
 5189 49f8 0F       		.byte	0xf
 5190 49f9 6A01     		.word	0x16a
 5191 49fb 2D490000 		.long	0x492d
 5192 49ff 01       		.byte	0x1
 5193 4a00 0010     		.word	0x1000
 5194 4a02 3C       		.uleb128 0x3c
 5195 4a03 756E6974 		.ascii "unitbuf\0"
 5195      62756600 
 5196 4a0b 0F       		.byte	0xf
 5197 4a0c 6D01     		.word	0x16d
 5198 4a0e 2D490000 		.long	0x492d
 5199 4a12 01       		.byte	0x1
 5200 4a13 0020     		.word	0x2000
 5201 4a15 3C       		.uleb128 0x3c
 5202 4a16 75707065 		.ascii "uppercase\0"
 5202      72636173 
 5202      6500
 5203 4a20 0F       		.byte	0xf
 5204 4a21 7101     		.word	0x171
 5205 4a23 2D490000 		.long	0x492d
 5206 4a27 01       		.byte	0x1
 5207 4a28 0040     		.word	0x4000
 5208 4a2a 3B       		.uleb128 0x3b
 5209 4a2b 61646A75 		.ascii "adjustfield\0"
 5209      73746669 
 5209      656C6400 
 5210 4a37 0F       		.byte	0xf
 5211 4a38 7401     		.word	0x174
 5212 4a3a 2D490000 		.long	0x492d
 5213 4a3e 01       		.byte	0x1
 5214 4a3f B0       		.byte	0xb0
 5215 4a40 3B       		.uleb128 0x3b
 5216 4a41 62617365 		.ascii "basefield\0"
 5216      6669656C 
 5216      6400
 5217 4a4b 0F       		.byte	0xf
 5218 4a4c 7701     		.word	0x177
 5219 4a4e 2D490000 		.long	0x492d
 5220 4a52 01       		.byte	0x1
 5221 4a53 4A       		.byte	0x4a
 5222 4a54 3C       		.uleb128 0x3c
 5223 4a55 666C6F61 		.ascii "floatfield\0"
 5223      74666965 
 5223      6C6400
 5224 4a60 0F       		.byte	0xf
GAS LISTING C:\Users\USER\AppData\Local\Temp\ccFSuTGK.s 			page 119


 5225 4a61 7A01     		.word	0x17a
 5226 4a63 2D490000 		.long	0x492d
 5227 4a67 01       		.byte	0x1
 5228 4a68 0401     		.word	0x104
 5229 4a6a 3A       		.uleb128 0x3a
 5230 4a6b 696F7374 		.ascii "iostate\0"
 5230      61746500 
 5231 4a73 0F       		.byte	0xf
 5232 4a74 8801     		.word	0x188
 5233 4a76 A5470000 		.long	0x47a5
 5234 4a7a 01       		.byte	0x1
 5235 4a7b 3B       		.uleb128 0x3b
 5236 4a7c 62616462 		.ascii "badbit\0"
 5236      697400
 5237 4a83 0F       		.byte	0xf
 5238 4a84 8C01     		.word	0x18c
 5239 4a86 8C4A0000 		.long	0x4a8c
 5240 4a8a 01       		.byte	0x1
 5241 4a8b 01       		.byte	0x1
 5242 4a8c 0E       		.uleb128 0xe
 5243 4a8d 6A4A0000 		.long	0x4a6a
 5244 4a91 3B       		.uleb128 0x3b
 5245 4a92 656F6662 		.ascii "eofbit\0"
 5245      697400
 5246 4a99 0F       		.byte	0xf
 5247 4a9a 8F01     		.word	0x18f
 5248 4a9c 8C4A0000 		.long	0x4a8c
 5249 4aa0 01       		.byte	0x1
 5250 4aa1 02       		.byte	0x2
 5251 4aa2 3B       		.uleb128 0x3b
 5252 4aa3 6661696C 		.ascii "failbit\0"
 5252      62697400 
 5253 4aab 0F       		.byte	0xf
 5254 4aac 9401     		.word	0x194
 5255 4aae 8C4A0000 		.long	0x4a8c
 5256 4ab2 01       		.byte	0x1
 5257 4ab3 04       		.byte	0x4
 5258 4ab4 3B       		.uleb128 0x3b
 5259 4ab5 676F6F64 		.ascii "goodbit\0"
 5259      62697400 
 5260 4abd 0F       		.byte	0xf
 5261 4abe 9701     		.word	0x197
 5262 4ac0 8C4A0000 		.long	0x4a8c
 5263 4ac4 01       		.byte	0x1
 5264 4ac5 00       		.byte	0
 5265 4ac6 3A       		.uleb128 0x3a
 5266 4ac7 6F70656E 		.ascii "openmode\0"
 5266      6D6F6465 
 5266      00
 5267 4ad0 0F       		.byte	0xf
 5268 4ad1 A701     		.word	0x1a7
 5269 4ad3 3A470000 		.long	0x473a
 5270 4ad7 01       		.byte	0x1
 5271 4ad8 3B       		.uleb128 0x3b
 5272 4ad9 61707000 		.ascii "app\0"
 5273 4add 0F       		.byte	0xf
 5274 4ade AA01     		.word	0x1aa
GAS LISTING C:\Users\USER\AppData\Local\Temp\ccFSuTGK.s 			page 120


 5275 4ae0 E64A0000 		.long	0x4ae6
 5276 4ae4 01       		.byte	0x1
 5277 4ae5 01       		.byte	0x1
 5278 4ae6 0E       		.uleb128 0xe
 5279 4ae7 C64A0000 		.long	0x4ac6
 5280 4aeb 3B       		.uleb128 0x3b
 5281 4aec 61746500 		.ascii "ate\0"
 5282 4af0 0F       		.byte	0xf
 5283 4af1 AD01     		.word	0x1ad
 5284 4af3 E64A0000 		.long	0x4ae6
 5285 4af7 01       		.byte	0x1
 5286 4af8 02       		.byte	0x2
 5287 4af9 3B       		.uleb128 0x3b
 5288 4afa 62696E61 		.ascii "binary\0"
 5288      727900
 5289 4b01 0F       		.byte	0xf
 5290 4b02 B201     		.word	0x1b2
 5291 4b04 E64A0000 		.long	0x4ae6
 5292 4b08 01       		.byte	0x1
 5293 4b09 04       		.byte	0x4
 5294 4b0a 3B       		.uleb128 0x3b
 5295 4b0b 696E00   		.ascii "in\0"
 5296 4b0e 0F       		.byte	0xf
 5297 4b0f B501     		.word	0x1b5
 5298 4b11 E64A0000 		.long	0x4ae6
 5299 4b15 01       		.byte	0x1
 5300 4b16 08       		.byte	0x8
 5301 4b17 3B       		.uleb128 0x3b
 5302 4b18 6F757400 		.ascii "out\0"
 5303 4b1c 0F       		.byte	0xf
 5304 4b1d B801     		.word	0x1b8
 5305 4b1f E64A0000 		.long	0x4ae6
 5306 4b23 01       		.byte	0x1
 5307 4b24 10       		.byte	0x10
 5308 4b25 3B       		.uleb128 0x3b
 5309 4b26 7472756E 		.ascii "trunc\0"
 5309      6300
 5310 4b2c 0F       		.byte	0xf
 5311 4b2d BB01     		.word	0x1bb
 5312 4b2f E64A0000 		.long	0x4ae6
 5313 4b33 01       		.byte	0x1
 5314 4b34 20       		.byte	0x20
 5315 4b35 3A       		.uleb128 0x3a
 5316 4b36 7365656B 		.ascii "seekdir\0"
 5316      64697200 
 5317 4b3e 0F       		.byte	0xf
 5318 4b3f C701     		.word	0x1c7
 5319 4b41 09480000 		.long	0x4809
 5320 4b45 01       		.byte	0x1
 5321 4b46 3B       		.uleb128 0x3b
 5322 4b47 62656700 		.ascii "beg\0"
 5323 4b4b 0F       		.byte	0xf
 5324 4b4c CA01     		.word	0x1ca
 5325 4b4e 544B0000 		.long	0x4b54
 5326 4b52 01       		.byte	0x1
 5327 4b53 00       		.byte	0
 5328 4b54 0E       		.uleb128 0xe
GAS LISTING C:\Users\USER\AppData\Local\Temp\ccFSuTGK.s 			page 121


 5329 4b55 354B0000 		.long	0x4b35
 5330 4b59 3B       		.uleb128 0x3b
 5331 4b5a 63757200 		.ascii "cur\0"
 5332 4b5e 0F       		.byte	0xf
 5333 4b5f CD01     		.word	0x1cd
 5334 4b61 544B0000 		.long	0x4b54
 5335 4b65 01       		.byte	0x1
 5336 4b66 01       		.byte	0x1
 5337 4b67 3B       		.uleb128 0x3b
 5338 4b68 656E6400 		.ascii "end\0"
 5339 4b6c 0F       		.byte	0xf
 5340 4b6d D001     		.word	0x1d0
 5341 4b6f 544B0000 		.long	0x4b54
 5342 4b73 01       		.byte	0x1
 5343 4b74 02       		.byte	0x2
 5344 4b75 00       		.byte	0
 5345 4b76 24       		.uleb128 0x24
 5346 4b77 10       		.byte	0x10
 5347 4b78 52       		.byte	0x52
 5348 4b79 93640000 		.long	0x6493
 5349 4b7d 24       		.uleb128 0x24
 5350 4b7e 10       		.byte	0x10
 5351 4b7f 53       		.byte	0x53
 5352 4b80 78640000 		.long	0x6478
 5353 4b84 24       		.uleb128 0x24
 5354 4b85 10       		.byte	0x10
 5355 4b86 54       		.byte	0x54
 5356 4b87 33640000 		.long	0x6433
 5357 4b8b 24       		.uleb128 0x24
 5358 4b8c 10       		.byte	0x10
 5359 4b8d 5C       		.byte	0x5c
 5360 4b8e A6700000 		.long	0x70a6
 5361 4b92 24       		.uleb128 0x24
 5362 4b93 10       		.byte	0x10
 5363 4b94 65       		.byte	0x65
 5364 4b95 C5700000 		.long	0x70c5
 5365 4b99 24       		.uleb128 0x24
 5366 4b9a 10       		.byte	0x10
 5367 4b9b 68       		.byte	0x68
 5368 4b9c E5700000 		.long	0x70e5
 5369 4ba0 24       		.uleb128 0x24
 5370 4ba1 10       		.byte	0x10
 5371 4ba2 69       		.byte	0x69
 5372 4ba3 FE700000 		.long	0x70fe
 5373 4ba7 36       		.uleb128 0x36
 5374 4ba8 62617369 		.ascii "basic_ostream<char, std::char_traits<char> >\0"
 5374      635F6F73 
 5374      74726561 
 5374      6D3C6368 
 5374      61722C20 
 5375 4bd5 EC4B0000 		.long	0x4bec
 5376 4bd9 20       		.uleb128 0x20
 5377 4bda 6A010000 		.secrel32	LASF26
 5378 4bde 70640000 		.long	0x6470
 5379 4be2 21       		.uleb128 0x21
 5380 4be3 C7000000 		.secrel32	LASF24
 5381 4be7 10400000 		.long	0x4010
GAS LISTING C:\Users\USER\AppData\Local\Temp\ccFSuTGK.s 			page 122


 5382 4beb 00       		.byte	0
 5383 4bec 36       		.uleb128 0x36
 5384 4bed 62617369 		.ascii "basic_istream<char, std::char_traits<char> >\0"
 5384      635F6973 
 5384      74726561 
 5384      6D3C6368 
 5384      61722C20 
 5385 4c1a 314C0000 		.long	0x4c31
 5386 4c1e 20       		.uleb128 0x20
 5387 4c1f 6A010000 		.secrel32	LASF26
 5388 4c23 70640000 		.long	0x6470
 5389 4c27 21       		.uleb128 0x21
 5390 4c28 C7000000 		.secrel32	LASF24
 5391 4c2c 10400000 		.long	0x4010
 5392 4c30 00       		.byte	0
 5393 4c31 27       		.uleb128 0x27
 5394 4c32 69746572 		.ascii "iterator_traits<char*>\0"
 5394      61746F72 
 5394      5F747261 
 5394      6974733C 
 5394      63686172 
 5395 4c49 01       		.byte	0x1
 5396 4c4a 11       		.byte	0x11
 5397 4c4b B2       		.byte	0xb2
 5398 4c4c 7B4C0000 		.long	0x4c7b
 5399 4c50 3D       		.uleb128 0x3d
 5400 4c51 FB010000 		.secrel32	LASF29
 5401 4c55 11       		.byte	0x11
 5402 4c56 B6       		.byte	0xb6
 5403 4c57 EA430000 		.long	0x43ea
 5404 4c5b 3D       		.uleb128 0x3d
 5405 4c5c F3010000 		.secrel32	LASF0
 5406 4c60 11       		.byte	0x11
 5407 4c61 B7       		.byte	0xb7
 5408 4c62 5C650000 		.long	0x655c
 5409 4c66 3D       		.uleb128 0x3d
 5410 4c67 BE010000 		.secrel32	LASF2
 5411 4c6b 11       		.byte	0x11
 5412 4c6c B8       		.byte	0xb8
 5413 4c6d 1C700000 		.long	0x701c
 5414 4c71 20       		.uleb128 0x20
 5415 4c72 3F000000 		.secrel32	LASF30
 5416 4c76 5C650000 		.long	0x655c
 5417 4c7a 00       		.byte	0
 5418 4c7b 27       		.uleb128 0x27
 5419 4c7c 69746572 		.ascii "iterator_traits<char const*>\0"
 5419      61746F72 
 5419      5F747261 
 5419      6974733C 
 5419      63686172 
 5420 4c99 01       		.byte	0x1
 5421 4c9a 11       		.byte	0x11
 5422 4c9b BD       		.byte	0xbd
 5423 4c9c CB4C0000 		.long	0x4ccb
 5424 4ca0 3D       		.uleb128 0x3d
 5425 4ca1 FB010000 		.secrel32	LASF29
 5426 4ca5 11       		.byte	0x11
GAS LISTING C:\Users\USER\AppData\Local\Temp\ccFSuTGK.s 			page 123


 5427 4ca6 C1       		.byte	0xc1
 5428 4ca7 EA430000 		.long	0x43ea
 5429 4cab 3D       		.uleb128 0x3d
 5430 4cac F3010000 		.secrel32	LASF0
 5431 4cb0 11       		.byte	0x11
 5432 4cb1 C2       		.byte	0xc2
 5433 4cb2 BE670000 		.long	0x67be
 5434 4cb6 3D       		.uleb128 0x3d
 5435 4cb7 BE010000 		.secrel32	LASF2
 5436 4cbb 11       		.byte	0x11
 5437 4cbc C3       		.byte	0xc3
 5438 4cbd 22700000 		.long	0x7022
 5439 4cc1 20       		.uleb128 0x20
 5440 4cc2 3F000000 		.secrel32	LASF30
 5441 4cc6 BE670000 		.long	0x67be
 5442 4cca 00       		.byte	0
 5443 4ccb 3E       		.uleb128 0x3e
 5444 4ccc 92000000 		.secrel32	LASF31
 5445 4cd0 FB4C0000 		.long	0x4cfb
 5446 4cd4 3F       		.uleb128 0x3f
 5447 4cd5 92000000 		.secrel32	LASF31
 5448 4cd9 01       		.byte	0x1
 5449 4cda 3F       		.byte	0x3f
 5450 4cdb 5F5A4E53 		.ascii "_ZNSt9exceptionC4Ev\0"
 5450      74396578 
 5450      63657074 
 5450      696F6E43 
 5450      34457600 
 5451 4cef 01       		.byte	0x1
 5452 4cf0 F44C0000 		.long	0x4cf4
 5453 4cf4 08       		.uleb128 0x8
 5454 4cf5 0C780000 		.long	0x780c
 5455 4cf9 00       		.byte	0
 5456 4cfa 00       		.byte	0
 5457 4cfb 10       		.uleb128 0x10
 5458 4cfc 6F737472 		.ascii "ostringstream\0"
 5458      696E6773 
 5458      74726561 
 5458      6D00
 5459 4d0a 12       		.byte	0x12
 5460 4d0b 99       		.byte	0x99
 5461 4d0c F73D0000 		.long	0x3df7
 5462 4d10 10       		.uleb128 0x10
 5463 4d11 69737472 		.ascii "istream\0"
 5463      65616D00 
 5464 4d19 12       		.byte	0x12
 5465 4d1a 8A       		.byte	0x8a
 5466 4d1b EC4B0000 		.long	0x4bec
 5467 4d1f 10       		.uleb128 0x10
 5468 4d20 6F737472 		.ascii "ostream\0"
 5468      65616D00 
 5469 4d28 12       		.byte	0x12
 5470 4d29 8D       		.byte	0x8d
 5471 4d2a A74B0000 		.long	0x4ba7
 5472 4d2e 40       		.uleb128 0x40
 5473 4d2f 636F7574 		.ascii "cout\0"
 5473      00
GAS LISTING C:\Users\USER\AppData\Local\Temp\ccFSuTGK.s 			page 124


 5474 4d34 05       		.byte	0x5
 5475 4d35 3D       		.byte	0x3d
 5476 4d36 5F5A5374 		.ascii "_ZSt4cout\0"
 5476      34636F75 
 5476      7400
 5477 4d40 1F4D0000 		.long	0x4d1f
 5478 4d44 41       		.uleb128 0x41
 5479 4d45 5F5F696F 		.ascii "__ioinit\0"
 5479      696E6974 
 5479      00
 5480 4d4e 05       		.byte	0x5
 5481 4d4f 4A       		.byte	0x4a
 5482 4d50 64480000 		.long	0x4864
 5483 4d54 00       		.byte	0
 5484 4d55 02       		.uleb128 0x2
 5485 4d56 5F5F676E 		.ascii "__gnu_cxx\0"
 5485      755F6378 
 5485      7800
 5486 4d60 07       		.byte	0x7
 5487 4d61 DD       		.byte	0xdd
 5488 4d62 15640000 		.long	0x6415
 5489 4d66 26       		.uleb128 0x26
 5490 4d67 5F5F6378 		.ascii "__cxx11\0"
 5490      78313100 
 5491 4d6f 07       		.byte	0x7
 5492 4d70 DE       		.byte	0xde
 5493 4d71 23       		.uleb128 0x23
 5494 4d72 07       		.byte	0x7
 5495 4d73 DE       		.byte	0xde
 5496 4d74 664D0000 		.long	0x4d66
 5497 4d78 24       		.uleb128 0x24
 5498 4d79 0B       		.byte	0xb
 5499 4d7a F8       		.byte	0xf8
 5500 4d7b 736D0000 		.long	0x6d73
 5501 4d7f 25       		.uleb128 0x25
 5502 4d80 0B       		.byte	0xb
 5503 4d81 0101     		.word	0x101
 5504 4d83 A06D0000 		.long	0x6da0
 5505 4d87 25       		.uleb128 0x25
 5506 4d88 0B       		.byte	0xb
 5507 4d89 0201     		.word	0x102
 5508 4d8b C46D0000 		.long	0x6dc4
 5509 4d8f 26       		.uleb128 0x26
 5510 4d90 5F5F6F70 		.ascii "__ops\0"
 5510      7300
 5511 4d96 14       		.byte	0x14
 5512 4d97 24       		.byte	0x24
 5513 4d98 24       		.uleb128 0x24
 5514 4d99 15       		.byte	0x15
 5515 4d9a 2C       		.byte	0x2c
 5516 4d9b C7430000 		.long	0x43c7
 5517 4d9f 24       		.uleb128 0x24
 5518 4da0 15       		.byte	0x15
 5519 4da1 2D       		.byte	0x2d
 5520 4da2 EA430000 		.long	0x43ea
 5521 4da6 03       		.uleb128 0x3
 5522 4da7 6E65775F 		.ascii "new_allocator<char>\0"
GAS LISTING C:\Users\USER\AppData\Local\Temp\ccFSuTGK.s 			page 125


 5522      616C6C6F 
 5522      6361746F 
 5522      723C6368 
 5522      61723E00 
 5523 4dbb 01       		.byte	0x1
 5524 4dbc 15       		.byte	0x15
 5525 4dbd 3A       		.byte	0x3a
 5526 4dbe F6500000 		.long	0x50f6
 5527 4dc2 0A       		.uleb128 0xa
 5528 4dc3 00000000 		.secrel32	LASF1
 5529 4dc7 15       		.byte	0x15
 5530 4dc8 3D       		.byte	0x3d
 5531 4dc9 C7430000 		.long	0x43c7
 5532 4dcd 01       		.byte	0x1
 5533 4dce 0A       		.uleb128 0xa
 5534 4dcf F3010000 		.secrel32	LASF0
 5535 4dd3 15       		.byte	0x15
 5536 4dd4 3F       		.byte	0x3f
 5537 4dd5 5C650000 		.long	0x655c
 5538 4dd9 01       		.byte	0x1
 5539 4dda 0A       		.uleb128 0xa
 5540 4ddb 12000000 		.secrel32	LASF4
 5541 4ddf 15       		.byte	0x15
 5542 4de0 40       		.byte	0x40
 5543 4de1 BE670000 		.long	0x67be
 5544 4de5 01       		.byte	0x1
 5545 4de6 0A       		.uleb128 0xa
 5546 4de7 BE010000 		.secrel32	LASF2
 5547 4deb 15       		.byte	0x15
 5548 4dec 41       		.byte	0x41
 5549 4ded 1C700000 		.long	0x701c
 5550 4df1 01       		.byte	0x1
 5551 4df2 0A       		.uleb128 0xa
 5552 4df3 C8010000 		.secrel32	LASF3
 5553 4df7 15       		.byte	0x15
 5554 4df8 42       		.byte	0x42
 5555 4df9 22700000 		.long	0x7022
 5556 4dfd 01       		.byte	0x1
 5557 4dfe 2E       		.uleb128 0x2e
 5558 4dff 10010000 		.secrel32	LASF32
 5559 4e03 15       		.byte	0x15
 5560 4e04 4F       		.byte	0x4f
 5561 4e05 5F5A4E39 		.ascii "_ZN9__gnu_cxx13new_allocatorIcEC4Ev\0"
 5561      5F5F676E 
 5561      755F6378 
 5561      7831336E 
 5561      65775F61 
 5562 4e29 01       		.byte	0x1
 5563 4e2a 324E0000 		.long	0x4e32
 5564 4e2e 384E0000 		.long	0x4e38
 5565 4e32 08       		.uleb128 0x8
 5566 4e33 28700000 		.long	0x7028
 5567 4e37 00       		.byte	0
 5568 4e38 2E       		.uleb128 0x2e
 5569 4e39 10010000 		.secrel32	LASF32
 5570 4e3d 15       		.byte	0x15
 5571 4e3e 51       		.byte	0x51
GAS LISTING C:\Users\USER\AppData\Local\Temp\ccFSuTGK.s 			page 126


 5572 4e3f 5F5A4E39 		.ascii "_ZN9__gnu_cxx13new_allocatorIcEC4ERKS1_\0"
 5572      5F5F676E 
 5572      755F6378 
 5572      7831336E 
 5572      65775F61 
 5573 4e67 01       		.byte	0x1
 5574 4e68 704E0000 		.long	0x4e70
 5575 4e6c 7B4E0000 		.long	0x4e7b
 5576 4e70 08       		.uleb128 0x8
 5577 4e71 28700000 		.long	0x7028
 5578 4e75 09       		.uleb128 0x9
 5579 4e76 2E700000 		.long	0x702e
 5580 4e7a 00       		.byte	0
 5581 4e7b 1F       		.uleb128 0x1f
 5582 4e7c 7E6E6577 		.ascii "~new_allocator\0"
 5582      5F616C6C 
 5582      6F636174 
 5582      6F7200
 5583 4e8b 15       		.byte	0x15
 5584 4e8c 56       		.byte	0x56
 5585 4e8d 5F5A4E39 		.ascii "_ZN9__gnu_cxx13new_allocatorIcED4Ev\0"
 5585      5F5F676E 
 5585      755F6378 
 5585      7831336E 
 5585      65775F61 
 5586 4eb1 01       		.byte	0x1
 5587 4eb2 BA4E0000 		.long	0x4eba
 5588 4eb6 C54E0000 		.long	0x4ec5
 5589 4eba 08       		.uleb128 0x8
 5590 4ebb 28700000 		.long	0x7028
 5591 4ebf 08       		.uleb128 0x8
 5592 4ec0 A4640000 		.long	0x64a4
 5593 4ec4 00       		.byte	0
 5594 4ec5 42       		.uleb128 0x42
 5595 4ec6 61646472 		.ascii "address\0"
 5595      65737300 
 5596 4ece 15       		.byte	0x15
 5597 4ecf 59       		.byte	0x59
 5598 4ed0 5F5A4E4B 		.ascii "_ZNK9__gnu_cxx13new_allocatorIcE7addressERc\0"
 5598      395F5F67 
 5598      6E755F63 
 5598      78783133 
 5598      6E65775F 
 5599 4efc CE4D0000 		.long	0x4dce
 5600 4f00 01       		.byte	0x1
 5601 4f01 094F0000 		.long	0x4f09
 5602 4f05 144F0000 		.long	0x4f14
 5603 4f09 08       		.uleb128 0x8
 5604 4f0a 34700000 		.long	0x7034
 5605 4f0e 09       		.uleb128 0x9
 5606 4f0f E64D0000 		.long	0x4de6
 5607 4f13 00       		.byte	0
 5608 4f14 42       		.uleb128 0x42
 5609 4f15 61646472 		.ascii "address\0"
 5609      65737300 
 5610 4f1d 15       		.byte	0x15
 5611 4f1e 5D       		.byte	0x5d
GAS LISTING C:\Users\USER\AppData\Local\Temp\ccFSuTGK.s 			page 127


 5612 4f1f 5F5A4E4B 		.ascii "_ZNK9__gnu_cxx13new_allocatorIcE7addressERKc\0"
 5612      395F5F67 
 5612      6E755F63 
 5612      78783133 
 5612      6E65775F 
 5613 4f4c DA4D0000 		.long	0x4dda
 5614 4f50 01       		.byte	0x1
 5615 4f51 594F0000 		.long	0x4f59
 5616 4f55 644F0000 		.long	0x4f64
 5617 4f59 08       		.uleb128 0x8
 5618 4f5a 34700000 		.long	0x7034
 5619 4f5e 09       		.uleb128 0x9
 5620 4f5f F24D0000 		.long	0x4df2
 5621 4f63 00       		.byte	0
 5622 4f64 43       		.uleb128 0x43
 5623 4f65 32010000 		.secrel32	LASF33
 5624 4f69 15       		.byte	0x15
 5625 4f6a 63       		.byte	0x63
 5626 4f6b 5F5A4E39 		.ascii "_ZN9__gnu_cxx13new_allocatorIcE8allocateEjPKv\0"
 5626      5F5F676E 
 5626      755F6378 
 5626      7831336E 
 5626      65775F61 
 5627 4f99 CE4D0000 		.long	0x4dce
 5628 4f9d 01       		.byte	0x1
 5629 4f9e A64F0000 		.long	0x4fa6
 5630 4fa2 B64F0000 		.long	0x4fb6
 5631 4fa6 08       		.uleb128 0x8
 5632 4fa7 28700000 		.long	0x7028
 5633 4fab 09       		.uleb128 0x9
 5634 4fac C24D0000 		.long	0x4dc2
 5635 4fb0 09       		.uleb128 0x9
 5636 4fb1 15700000 		.long	0x7015
 5637 4fb5 00       		.byte	0
 5638 4fb6 2E       		.uleb128 0x2e
 5639 4fb7 DA000000 		.secrel32	LASF34
 5640 4fbb 15       		.byte	0x15
 5641 4fbc 6D       		.byte	0x6d
 5642 4fbd 5F5A4E39 		.ascii "_ZN9__gnu_cxx13new_allocatorIcE10deallocateEPcj\0"
 5642      5F5F676E 
 5642      755F6378 
 5642      7831336E 
 5642      65775F61 
 5643 4fed 01       		.byte	0x1
 5644 4fee F64F0000 		.long	0x4ff6
 5645 4ff2 06500000 		.long	0x5006
 5646 4ff6 08       		.uleb128 0x8
 5647 4ff7 28700000 		.long	0x7028
 5648 4ffb 09       		.uleb128 0x9
 5649 4ffc CE4D0000 		.long	0x4dce
 5650 5000 09       		.uleb128 0x9
 5651 5001 C24D0000 		.long	0x4dc2
 5652 5005 00       		.byte	0
 5653 5006 43       		.uleb128 0x43
 5654 5007 1D020000 		.secrel32	LASF11
 5655 500b 15       		.byte	0x15
 5656 500c 71       		.byte	0x71
GAS LISTING C:\Users\USER\AppData\Local\Temp\ccFSuTGK.s 			page 128


 5657 500d 5F5A4E4B 		.ascii "_ZNK9__gnu_cxx13new_allocatorIcE8max_sizeEv\0"
 5657      395F5F67 
 5657      6E755F63 
 5657      78783133 
 5657      6E65775F 
 5658 5039 C24D0000 		.long	0x4dc2
 5659 503d 01       		.byte	0x1
 5660 503e 46500000 		.long	0x5046
 5661 5042 4C500000 		.long	0x504c
 5662 5046 08       		.uleb128 0x8
 5663 5047 34700000 		.long	0x7034
 5664 504b 00       		.byte	0
 5665 504c 1F       		.uleb128 0x1f
 5666 504d 636F6E73 		.ascii "construct\0"
 5666      74727563 
 5666      7400
 5667 5057 15       		.byte	0x15
 5668 5058 81       		.byte	0x81
 5669 5059 5F5A4E39 		.ascii "_ZN9__gnu_cxx13new_allocatorIcE9constructEPcRKc\0"
 5669      5F5F676E 
 5669      755F6378 
 5669      7831336E 
 5669      65775F61 
 5670 5089 01       		.byte	0x1
 5671 508a 92500000 		.long	0x5092
 5672 508e A2500000 		.long	0x50a2
 5673 5092 08       		.uleb128 0x8
 5674 5093 28700000 		.long	0x7028
 5675 5097 09       		.uleb128 0x9
 5676 5098 CE4D0000 		.long	0x4dce
 5677 509c 09       		.uleb128 0x9
 5678 509d 22700000 		.long	0x7022
 5679 50a1 00       		.byte	0
 5680 50a2 1F       		.uleb128 0x1f
 5681 50a3 64657374 		.ascii "destroy\0"
 5681      726F7900 
 5682 50ab 15       		.byte	0x15
 5683 50ac 85       		.byte	0x85
 5684 50ad 5F5A4E39 		.ascii "_ZN9__gnu_cxx13new_allocatorIcE7destroyEPc\0"
 5684      5F5F676E 
 5684      755F6378 
 5684      7831336E 
 5684      65775F61 
 5685 50d8 01       		.byte	0x1
 5686 50d9 E1500000 		.long	0x50e1
 5687 50dd EC500000 		.long	0x50ec
 5688 50e1 08       		.uleb128 0x8
 5689 50e2 28700000 		.long	0x7028
 5690 50e6 09       		.uleb128 0x9
 5691 50e7 CE4D0000 		.long	0x4dce
 5692 50eb 00       		.byte	0
 5693 50ec 30       		.uleb128 0x30
 5694 50ed 5F547000 		.ascii "_Tp\0"
 5695 50f1 70640000 		.long	0x6470
 5696 50f5 00       		.byte	0
 5697 50f6 0E       		.uleb128 0xe
 5698 50f7 A64D0000 		.long	0x4da6
GAS LISTING C:\Users\USER\AppData\Local\Temp\ccFSuTGK.s 			page 129


 5699 50fb 27       		.uleb128 0x27
 5700 50fc 5F5F6E75 		.ascii "__numeric_traits_integer<int>\0"
 5700      6D657269 
 5700      635F7472 
 5700      61697473 
 5700      5F696E74 
 5701 511a 01       		.byte	0x1
 5702 511b 16       		.byte	0x16
 5703 511c 37       		.byte	0x37
 5704 511d 57510000 		.long	0x5157
 5705 5121 44       		.uleb128 0x44
 5706 5122 ED010000 		.secrel32	LASF35
 5707 5126 16       		.byte	0x16
 5708 5127 3A       		.byte	0x3a
 5709 5128 46700000 		.long	0x7046
 5710 512c 44       		.uleb128 0x44
 5711 512d A0010000 		.secrel32	LASF36
 5712 5131 16       		.byte	0x16
 5713 5132 3B       		.byte	0x3b
 5714 5133 46700000 		.long	0x7046
 5715 5137 44       		.uleb128 0x44
 5716 5138 AD000000 		.secrel32	LASF37
 5717 513c 16       		.byte	0x16
 5718 513d 3F       		.byte	0x3f
 5719 513e 4B700000 		.long	0x704b
 5720 5142 44       		.uleb128 0x44
 5721 5143 33020000 		.secrel32	LASF38
 5722 5147 16       		.byte	0x16
 5723 5148 40       		.byte	0x40
 5724 5149 46700000 		.long	0x7046
 5725 514d 20       		.uleb128 0x20
 5726 514e 38000000 		.secrel32	LASF39
 5727 5152 A4640000 		.long	0x64a4
 5728 5156 00       		.byte	0
 5729 5157 27       		.uleb128 0x27
 5730 5158 5F5F616C 		.ascii "__alloc_traits<std::allocator<char> >\0"
 5730      6C6F635F 
 5730      74726169 
 5730      74733C73 
 5730      74643A3A 
 5731 517e 01       		.byte	0x1
 5732 517f 17       		.byte	0x17
 5733 5180 5F       		.byte	0x5f
 5734 5181 D9530000 		.long	0x53d9
 5735 5185 3D       		.uleb128 0x3d
 5736 5186 F3010000 		.secrel32	LASF0
 5737 518a 17       		.byte	0x17
 5738 518b AC       		.byte	0xac
 5739 518c 26440000 		.long	0x4426
 5740 5190 3D       		.uleb128 0x3d
 5741 5191 12000000 		.secrel32	LASF4
 5742 5195 17       		.byte	0x17
 5743 5196 AD       		.byte	0xad
 5744 5197 32440000 		.long	0x4432
 5745 519b 3D       		.uleb128 0x3d
 5746 519c BE010000 		.secrel32	LASF2
 5747 51a0 17       		.byte	0x17
GAS LISTING C:\Users\USER\AppData\Local\Temp\ccFSuTGK.s 			page 130


 5748 51a1 AF       		.byte	0xaf
 5749 51a2 3E440000 		.long	0x443e
 5750 51a6 3D       		.uleb128 0x3d
 5751 51a7 C8010000 		.secrel32	LASF3
 5752 51ab 17       		.byte	0x17
 5753 51ac B0       		.byte	0xb0
 5754 51ad 4A440000 		.long	0x444a
 5755 51b1 3D       		.uleb128 0x3d
 5756 51b2 00000000 		.secrel32	LASF1
 5757 51b6 17       		.byte	0x17
 5758 51b7 B1       		.byte	0xb1
 5759 51b8 1A440000 		.long	0x441a
 5760 51bc 45       		.uleb128 0x45
 5761 51bd 32010000 		.secrel32	LASF33
 5762 51c1 17       		.byte	0x17
 5763 51c2 B5       		.byte	0xb5
 5764 51c3 5F5A4E39 		.ascii "_ZN9__gnu_cxx14__alloc_traitsISaIcEE8allocateERS1_j\0"
 5764      5F5F676E 
 5764      755F6378 
 5764      7831345F 
 5764      5F616C6C 
 5765 51f7 85510000 		.long	0x5185
 5766 51fb 0A520000 		.long	0x520a
 5767 51ff 09       		.uleb128 0x9
 5768 5200 50700000 		.long	0x7050
 5769 5204 09       		.uleb128 0x9
 5770 5205 B1510000 		.long	0x51b1
 5771 5209 00       		.byte	0
 5772 520a 28       		.uleb128 0x28
 5773 520b DA000000 		.secrel32	LASF34
 5774 520f 17       		.byte	0x17
 5775 5210 B8       		.byte	0xb8
 5776 5211 5F5A4E39 		.ascii "_ZN9__gnu_cxx14__alloc_traitsISaIcEE10deallocateERS1_Pcj\0"
 5776      5F5F676E 
 5776      755F6378 
 5776      7831345F 
 5776      5F616C6C 
 5777 524a 5E520000 		.long	0x525e
 5778 524e 09       		.uleb128 0x9
 5779 524f 50700000 		.long	0x7050
 5780 5253 09       		.uleb128 0x9
 5781 5254 85510000 		.long	0x5185
 5782 5258 09       		.uleb128 0x9
 5783 5259 B1510000 		.long	0x51b1
 5784 525d 00       		.byte	0
 5785 525e 46       		.uleb128 0x46
 5786 525f 64657374 		.ascii "destroy\0"
 5786      726F7900 
 5787 5267 17       		.byte	0x17
 5788 5268 BF       		.byte	0xbf
 5789 5269 5F5A4E39 		.ascii "_ZN9__gnu_cxx14__alloc_traitsISaIcEE7destroyERS1_Pc\0"
 5789      5F5F676E 
 5789      755F6378 
 5789      7831345F 
 5789      5F616C6C 
 5790 529d AC520000 		.long	0x52ac
 5791 52a1 09       		.uleb128 0x9
GAS LISTING C:\Users\USER\AppData\Local\Temp\ccFSuTGK.s 			page 131


 5792 52a2 50700000 		.long	0x7050
 5793 52a6 09       		.uleb128 0x9
 5794 52a7 85510000 		.long	0x5185
 5795 52ab 00       		.byte	0
 5796 52ac 45       		.uleb128 0x45
 5797 52ad 1D020000 		.secrel32	LASF11
 5798 52b1 17       		.byte	0x17
 5799 52b2 C2       		.byte	0xc2
 5800 52b3 5F5A4E39 		.ascii "_ZN9__gnu_cxx14__alloc_traitsISaIcEE8max_sizeERKS1_\0"
 5800      5F5F676E 
 5800      755F6378 
 5800      7831345F 
 5800      5F616C6C 
 5801 52e7 B1510000 		.long	0x51b1
 5802 52eb F5520000 		.long	0x52f5
 5803 52ef 09       		.uleb128 0x9
 5804 52f0 40700000 		.long	0x7040
 5805 52f4 00       		.byte	0
 5806 52f5 29       		.uleb128 0x29
 5807 52f6 5F535F73 		.ascii "_S_select_on_copy\0"
 5807      656C6563 
 5807      745F6F6E 
 5807      5F636F70 
 5807      7900
 5808 5308 17       		.byte	0x17
 5809 5309 C5       		.byte	0xc5
 5810 530a 5F5A4E39 		.ascii "_ZN9__gnu_cxx14__alloc_traitsISaIcEE17_S_select_on_copyERKS1_\0"
 5810      5F5F676E 
 5810      755F6378 
 5810      7831345F 
 5810      5F616C6C 
 5811 5348 40700000 		.long	0x7040
 5812 534c 56530000 		.long	0x5356
 5813 5350 09       		.uleb128 0x9
 5814 5351 40700000 		.long	0x7040
 5815 5355 00       		.byte	0
 5816 5356 46       		.uleb128 0x46
 5817 5357 5F535F6F 		.ascii "_S_on_swap\0"
 5817      6E5F7377 
 5817      617000
 5818 5362 17       		.byte	0x17
 5819 5363 C7       		.byte	0xc7
 5820 5364 5F5A4E39 		.ascii "_ZN9__gnu_cxx14__alloc_traitsISaIcEE10_S_on_swapERS1_S3_\0"
 5820      5F5F676E 
 5820      755F6378 
 5820      7831345F 
 5820      5F616C6C 
 5821 539d AC530000 		.long	0x53ac
 5822 53a1 09       		.uleb128 0x9
 5823 53a2 50700000 		.long	0x7050
 5824 53a6 09       		.uleb128 0x9
 5825 53a7 50700000 		.long	0x7050
 5826 53ab 00       		.byte	0
 5827 53ac 04       		.uleb128 0x4
 5828 53ad E0010000 		.secrel32	LASF28
 5829 53b1 01       		.byte	0x1
 5830 53b2 17       		.byte	0x17
GAS LISTING C:\Users\USER\AppData\Local\Temp\ccFSuTGK.s 			page 132


 5831 53b3 CF       		.byte	0xcf
 5832 53b4 CF530000 		.long	0x53cf
 5833 53b8 10       		.uleb128 0x10
 5834 53b9 6F746865 		.ascii "other\0"
 5834      7200
 5835 53bf 17       		.byte	0x17
 5836 53c0 D0       		.byte	0xd0
 5837 53c1 DC440000 		.long	0x44dc
 5838 53c5 30       		.uleb128 0x30
 5839 53c6 5F547000 		.ascii "_Tp\0"
 5840 53ca 70640000 		.long	0x6470
 5841 53ce 00       		.byte	0
 5842 53cf 20       		.uleb128 0x20
 5843 53d0 3C020000 		.secrel32	LASF25
 5844 53d4 FB430000 		.long	0x43fb
 5845 53d8 00       		.byte	0
 5846 53d9 47       		.uleb128 0x47
 5847 53da 5F5F6E6F 		.ascii "__normal_iterator<char*, std::__cxx11::basic_string<char, std::char_traits<char>, std::all
 5847      726D616C 
 5847      5F697465 
 5847      7261746F 
 5847      723C6368 
 5848 5445 04       		.byte	0x4
 5849 5446 18       		.byte	0x18
 5850 5447 D102     		.word	0x2d1
 5851 5449 535B0000 		.long	0x5b53
 5852 544d 48       		.uleb128 0x48
 5853 544e CF000000 		.secrel32	LASF40
 5854 5452 18       		.byte	0x18
 5855 5453 D402     		.word	0x2d4
 5856 5455 5C650000 		.long	0x655c
 5857 5459 00       		.byte	0
 5858 545a 02       		.byte	0x2
 5859 545b 49       		.uleb128 0x49
 5860 545c FB010000 		.secrel32	LASF29
 5861 5460 18       		.byte	0x18
 5862 5461 DC02     		.word	0x2dc
 5863 5463 504C0000 		.long	0x4c50
 5864 5467 01       		.byte	0x1
 5865 5468 49       		.uleb128 0x49
 5866 5469 BE010000 		.secrel32	LASF2
 5867 546d 18       		.byte	0x18
 5868 546e DD02     		.word	0x2dd
 5869 5470 664C0000 		.long	0x4c66
 5870 5474 01       		.byte	0x1
 5871 5475 49       		.uleb128 0x49
 5872 5476 F3010000 		.secrel32	LASF0
 5873 547a 18       		.byte	0x18
 5874 547b DE02     		.word	0x2de
 5875 547d 5B4C0000 		.long	0x4c5b
 5876 5481 01       		.byte	0x1
 5877 5482 1A       		.uleb128 0x1a
 5878 5483 3B010000 		.secrel32	LASF41
 5879 5487 18       		.byte	0x18
 5880 5488 E002     		.word	0x2e0
 5881 548a 5F5A4E39 		.ascii "_ZN9__gnu_cxx17__normal_iteratorIPcNSt7__cxx1112basic_stringIcSt11char_traitsIcESaIcEEEEC4
 5881      5F5F676E 
GAS LISTING C:\Users\USER\AppData\Local\Temp\ccFSuTGK.s 			page 133


 5881      755F6378 
 5881      7831375F 
 5881      5F6E6F72 
 5882 54e7 01       		.byte	0x1
 5883 54e8 F0540000 		.long	0x54f0
 5884 54ec F6540000 		.long	0x54f6
 5885 54f0 08       		.uleb128 0x8
 5886 54f1 41710000 		.long	0x7141
 5887 54f5 00       		.byte	0
 5888 54f6 1B       		.uleb128 0x1b
 5889 54f7 3B010000 		.secrel32	LASF41
 5890 54fb 18       		.byte	0x18
 5891 54fc E402     		.word	0x2e4
 5892 54fe 5F5A4E39 		.ascii "_ZN9__gnu_cxx17__normal_iteratorIPcNSt7__cxx1112basic_stringIcSt11char_traitsIcESaIcEEEEC4
 5892      5F5F676E 
 5892      755F6378 
 5892      7831375F 
 5892      5F6E6F72 
 5893 555f 01       		.byte	0x1
 5894 5560 68550000 		.long	0x5568
 5895 5564 73550000 		.long	0x5573
 5896 5568 08       		.uleb128 0x8
 5897 5569 41710000 		.long	0x7141
 5898 556d 09       		.uleb128 0x9
 5899 556e 47710000 		.long	0x7147
 5900 5572 00       		.byte	0
 5901 5573 1D       		.uleb128 0x1d
 5902 5574 E5000000 		.secrel32	LASF42
 5903 5578 18       		.byte	0x18
 5904 5579 F102     		.word	0x2f1
 5905 557b 5F5A4E4B 		.ascii "_ZNK9__gnu_cxx17__normal_iteratorIPcNSt7__cxx1112basic_stringIcSt11char_traitsIcESaIcEEEEd
 5905      395F5F67 
 5905      6E755F63 
 5905      78783137 
 5905      5F5F6E6F 
 5906 55d9 68540000 		.long	0x5468
 5907 55dd 01       		.byte	0x1
 5908 55de E6550000 		.long	0x55e6
 5909 55e2 EC550000 		.long	0x55ec
 5910 55e6 08       		.uleb128 0x8
 5911 55e7 52710000 		.long	0x7152
 5912 55eb 00       		.byte	0
 5913 55ec 1D       		.uleb128 0x1d
 5914 55ed 7A000000 		.secrel32	LASF43
 5915 55f1 18       		.byte	0x18
 5916 55f2 F502     		.word	0x2f5
 5917 55f4 5F5A4E4B 		.ascii "_ZNK9__gnu_cxx17__normal_iteratorIPcNSt7__cxx1112basic_stringIcSt11char_traitsIcESaIcEEEEp
 5917      395F5F67 
 5917      6E755F63 
 5917      78783137 
 5917      5F5F6E6F 
 5918 5652 75540000 		.long	0x5475
 5919 5656 01       		.byte	0x1
 5920 5657 5F560000 		.long	0x565f
 5921 565b 65560000 		.long	0x5665
 5922 565f 08       		.uleb128 0x8
 5923 5660 52710000 		.long	0x7152
GAS LISTING C:\Users\USER\AppData\Local\Temp\ccFSuTGK.s 			page 134


 5924 5664 00       		.byte	0
 5925 5665 1D       		.uleb128 0x1d
 5926 5666 58010000 		.secrel32	LASF44
 5927 566a 18       		.byte	0x18
 5928 566b F902     		.word	0x2f9
 5929 566d 5F5A4E39 		.ascii "_ZN9__gnu_cxx17__normal_iteratorIPcNSt7__cxx1112basic_stringIcSt11char_traitsIcESaIcEEEEpp
 5929      5F5F676E 
 5929      755F6378 
 5929      7831375F 
 5929      5F6E6F72 
 5930 56ca 58710000 		.long	0x7158
 5931 56ce 01       		.byte	0x1
 5932 56cf D7560000 		.long	0x56d7
 5933 56d3 DD560000 		.long	0x56dd
 5934 56d7 08       		.uleb128 0x8
 5935 56d8 41710000 		.long	0x7141
 5936 56dc 00       		.byte	0
 5937 56dd 1D       		.uleb128 0x1d
 5938 56de 58010000 		.secrel32	LASF44
 5939 56e2 18       		.byte	0x18
 5940 56e3 0003     		.word	0x300
 5941 56e5 5F5A4E39 		.ascii "_ZN9__gnu_cxx17__normal_iteratorIPcNSt7__cxx1112basic_stringIcSt11char_traitsIcESaIcEEEEpp
 5941      5F5F676E 
 5941      755F6378 
 5941      7831375F 
 5941      5F6E6F72 
 5942 5742 D9530000 		.long	0x53d9
 5943 5746 01       		.byte	0x1
 5944 5747 4F570000 		.long	0x574f
 5945 574b 5A570000 		.long	0x575a
 5946 574f 08       		.uleb128 0x8
 5947 5750 41710000 		.long	0x7141
 5948 5754 09       		.uleb128 0x9
 5949 5755 A4640000 		.long	0x64a4
 5950 5759 00       		.byte	0
 5951 575a 1D       		.uleb128 0x1d
 5952 575b 49000000 		.secrel32	LASF45
 5953 575f 18       		.byte	0x18
 5954 5760 0503     		.word	0x305
 5955 5762 5F5A4E39 		.ascii "_ZN9__gnu_cxx17__normal_iteratorIPcNSt7__cxx1112basic_stringIcSt11char_traitsIcESaIcEEEEmm
 5955      5F5F676E 
 5955      755F6378 
 5955      7831375F 
 5955      5F6E6F72 
 5956 57bf 58710000 		.long	0x7158
 5957 57c3 01       		.byte	0x1
 5958 57c4 CC570000 		.long	0x57cc
 5959 57c8 D2570000 		.long	0x57d2
 5960 57cc 08       		.uleb128 0x8
 5961 57cd 41710000 		.long	0x7141
 5962 57d1 00       		.byte	0
 5963 57d2 1D       		.uleb128 0x1d
 5964 57d3 49000000 		.secrel32	LASF45
 5965 57d7 18       		.byte	0x18
 5966 57d8 0C03     		.word	0x30c
 5967 57da 5F5A4E39 		.ascii "_ZN9__gnu_cxx17__normal_iteratorIPcNSt7__cxx1112basic_stringIcSt11char_traitsIcESaIcEEEEmm
 5967      5F5F676E 
GAS LISTING C:\Users\USER\AppData\Local\Temp\ccFSuTGK.s 			page 135


 5967      755F6378 
 5967      7831375F 
 5967      5F6E6F72 
 5968 5837 D9530000 		.long	0x53d9
 5969 583b 01       		.byte	0x1
 5970 583c 44580000 		.long	0x5844
 5971 5840 4F580000 		.long	0x584f
 5972 5844 08       		.uleb128 0x8
 5973 5845 41710000 		.long	0x7141
 5974 5849 09       		.uleb128 0x9
 5975 584a A4640000 		.long	0x64a4
 5976 584e 00       		.byte	0
 5977 584f 1D       		.uleb128 0x1d
 5978 5850 4D010000 		.secrel32	LASF12
 5979 5854 18       		.byte	0x18
 5980 5855 1103     		.word	0x311
 5981 5857 5F5A4E4B 		.ascii "_ZNK9__gnu_cxx17__normal_iteratorIPcNSt7__cxx1112basic_stringIcSt11char_traitsIcESaIcEEEEi
 5981      395F5F67 
 5981      6E755F63 
 5981      78783137 
 5981      5F5F6E6F 
 5982 58b5 68540000 		.long	0x5468
 5983 58b9 01       		.byte	0x1
 5984 58ba C2580000 		.long	0x58c2
 5985 58be CD580000 		.long	0x58cd
 5986 58c2 08       		.uleb128 0x8
 5987 58c3 52710000 		.long	0x7152
 5988 58c7 09       		.uleb128 0x9
 5989 58c8 5B540000 		.long	0x545b
 5990 58cc 00       		.byte	0
 5991 58cd 1D       		.uleb128 0x1d
 5992 58ce 87010000 		.secrel32	LASF13
 5993 58d2 18       		.byte	0x18
 5994 58d3 1503     		.word	0x315
 5995 58d5 5F5A4E39 		.ascii "_ZN9__gnu_cxx17__normal_iteratorIPcNSt7__cxx1112basic_stringIcSt11char_traitsIcESaIcEEEEpL
 5995      5F5F676E 
 5995      755F6378 
 5995      7831375F 
 5995      5F6E6F72 
 5996 5932 58710000 		.long	0x7158
 5997 5936 01       		.byte	0x1
 5998 5937 3F590000 		.long	0x593f
 5999 593b 4A590000 		.long	0x594a
 6000 593f 08       		.uleb128 0x8
 6001 5940 41710000 		.long	0x7141
 6002 5944 09       		.uleb128 0x9
 6003 5945 5B540000 		.long	0x545b
 6004 5949 00       		.byte	0
 6005 594a 1D       		.uleb128 0x1d
 6006 594b EF000000 		.secrel32	LASF46
 6007 594f 18       		.byte	0x18
 6008 5950 1903     		.word	0x319
 6009 5952 5F5A4E4B 		.ascii "_ZNK9__gnu_cxx17__normal_iteratorIPcNSt7__cxx1112basic_stringIcSt11char_traitsIcESaIcEEEEp
 6009      395F5F67 
 6009      6E755F63 
 6009      78783137 
 6009      5F5F6E6F 
GAS LISTING C:\Users\USER\AppData\Local\Temp\ccFSuTGK.s 			page 136


 6010 59b0 D9530000 		.long	0x53d9
 6011 59b4 01       		.byte	0x1
 6012 59b5 BD590000 		.long	0x59bd
 6013 59b9 C8590000 		.long	0x59c8
 6014 59bd 08       		.uleb128 0x8
 6015 59be 52710000 		.long	0x7152
 6016 59c2 09       		.uleb128 0x9
 6017 59c3 5B540000 		.long	0x545b
 6018 59c7 00       		.byte	0
 6019 59c8 1D       		.uleb128 0x1d
 6020 59c9 6F000000 		.secrel32	LASF47
 6021 59cd 18       		.byte	0x18
 6022 59ce 1D03     		.word	0x31d
 6023 59d0 5F5A4E39 		.ascii "_ZN9__gnu_cxx17__normal_iteratorIPcNSt7__cxx1112basic_stringIcSt11char_traitsIcESaIcEEEEmI
 6023      5F5F676E 
 6023      755F6378 
 6023      7831375F 
 6023      5F6E6F72 
 6024 5a2d 58710000 		.long	0x7158
 6025 5a31 01       		.byte	0x1
 6026 5a32 3A5A0000 		.long	0x5a3a
 6027 5a36 455A0000 		.long	0x5a45
 6028 5a3a 08       		.uleb128 0x8
 6029 5a3b 41710000 		.long	0x7141
 6030 5a3f 09       		.uleb128 0x9
 6031 5a40 5B540000 		.long	0x545b
 6032 5a44 00       		.byte	0
 6033 5a45 1D       		.uleb128 0x1d
 6034 5a46 65000000 		.secrel32	LASF48
 6035 5a4a 18       		.byte	0x18
 6036 5a4b 2103     		.word	0x321
 6037 5a4d 5F5A4E4B 		.ascii "_ZNK9__gnu_cxx17__normal_iteratorIPcNSt7__cxx1112basic_stringIcSt11char_traitsIcESaIcEEEEm
 6037      395F5F67 
 6037      6E755F63 
 6037      78783137 
 6037      5F5F6E6F 
 6038 5aab D9530000 		.long	0x53d9
 6039 5aaf 01       		.byte	0x1
 6040 5ab0 B85A0000 		.long	0x5ab8
 6041 5ab4 C35A0000 		.long	0x5ac3
 6042 5ab8 08       		.uleb128 0x8
 6043 5ab9 52710000 		.long	0x7152
 6044 5abd 09       		.uleb128 0x9
 6045 5abe 5B540000 		.long	0x545b
 6046 5ac2 00       		.byte	0
 6047 5ac3 1E       		.uleb128 0x1e
 6048 5ac4 62617365 		.ascii "base\0"
 6048      00
 6049 5ac9 18       		.byte	0x18
 6050 5aca 2503     		.word	0x325
 6051 5acc 5F5A4E4B 		.ascii "_ZNK9__gnu_cxx17__normal_iteratorIPcNSt7__cxx1112basic_stringIcSt11char_traitsIcESaIcEEEE4
 6051      395F5F67 
 6051      6E755F63 
 6051      78783137 
 6051      5F5F6E6F 
 6052 5b2d 47710000 		.long	0x7147
 6053 5b31 01       		.byte	0x1
GAS LISTING C:\Users\USER\AppData\Local\Temp\ccFSuTGK.s 			page 137


 6054 5b32 3A5B0000 		.long	0x5b3a
 6055 5b36 405B0000 		.long	0x5b40
 6056 5b3a 08       		.uleb128 0x8
 6057 5b3b 52710000 		.long	0x7152
 6058 5b3f 00       		.byte	0
 6059 5b40 20       		.uleb128 0x20
 6060 5b41 3F000000 		.secrel32	LASF30
 6061 5b45 5C650000 		.long	0x655c
 6062 5b49 20       		.uleb128 0x20
 6063 5b4a B3010000 		.secrel32	LASF49
 6064 5b4e E2000000 		.long	0xe2
 6065 5b52 00       		.byte	0
 6066 5b53 47       		.uleb128 0x47
 6067 5b54 5F5F6E6F 		.ascii "__normal_iterator<char const*, std::__cxx11::basic_string<char, std::char_traits<char>, st
 6067      726D616C 
 6067      5F697465 
 6067      7261746F 
 6067      723C6368 
 6068 5bc5 04       		.byte	0x4
 6069 5bc6 18       		.byte	0x18
 6070 5bc7 D102     		.word	0x2d1
 6071 5bc9 E1620000 		.long	0x62e1
 6072 5bcd 48       		.uleb128 0x48
 6073 5bce CF000000 		.secrel32	LASF40
 6074 5bd2 18       		.byte	0x18
 6075 5bd3 D402     		.word	0x2d4
 6076 5bd5 BE670000 		.long	0x67be
 6077 5bd9 00       		.byte	0
 6078 5bda 02       		.byte	0x2
 6079 5bdb 49       		.uleb128 0x49
 6080 5bdc FB010000 		.secrel32	LASF29
 6081 5be0 18       		.byte	0x18
 6082 5be1 DC02     		.word	0x2dc
 6083 5be3 A04C0000 		.long	0x4ca0
 6084 5be7 01       		.byte	0x1
 6085 5be8 49       		.uleb128 0x49
 6086 5be9 BE010000 		.secrel32	LASF2
 6087 5bed 18       		.byte	0x18
 6088 5bee DD02     		.word	0x2dd
 6089 5bf0 B64C0000 		.long	0x4cb6
 6090 5bf4 01       		.byte	0x1
 6091 5bf5 49       		.uleb128 0x49
 6092 5bf6 F3010000 		.secrel32	LASF0
 6093 5bfa 18       		.byte	0x18
 6094 5bfb DE02     		.word	0x2de
 6095 5bfd AB4C0000 		.long	0x4cab
 6096 5c01 01       		.byte	0x1
 6097 5c02 1A       		.uleb128 0x1a
 6098 5c03 3B010000 		.secrel32	LASF41
 6099 5c07 18       		.byte	0x18
 6100 5c08 E002     		.word	0x2e0
 6101 5c0a 5F5A4E39 		.ascii "_ZN9__gnu_cxx17__normal_iteratorIPKcNSt7__cxx1112basic_stringIcSt11char_traitsIcESaIcEEEEC
 6101      5F5F676E 
 6101      755F6378 
 6101      7831375F 
 6101      5F6E6F72 
 6102 5c68 01       		.byte	0x1
GAS LISTING C:\Users\USER\AppData\Local\Temp\ccFSuTGK.s 			page 138


 6103 5c69 715C0000 		.long	0x5c71
 6104 5c6d 775C0000 		.long	0x5c77
 6105 5c71 08       		.uleb128 0x8
 6106 5c72 29710000 		.long	0x7129
 6107 5c76 00       		.byte	0
 6108 5c77 1B       		.uleb128 0x1b
 6109 5c78 3B010000 		.secrel32	LASF41
 6110 5c7c 18       		.byte	0x18
 6111 5c7d E402     		.word	0x2e4
 6112 5c7f 5F5A4E39 		.ascii "_ZN9__gnu_cxx17__normal_iteratorIPKcNSt7__cxx1112basic_stringIcSt11char_traitsIcESaIcEEEEC
 6112      5F5F676E 
 6112      755F6378 
 6112      7831375F 
 6112      5F6E6F72 
 6113 5ce1 01       		.byte	0x1
 6114 5ce2 EA5C0000 		.long	0x5cea
 6115 5ce6 F55C0000 		.long	0x5cf5
 6116 5cea 08       		.uleb128 0x8
 6117 5ceb 29710000 		.long	0x7129
 6118 5cef 09       		.uleb128 0x9
 6119 5cf0 2F710000 		.long	0x712f
 6120 5cf4 00       		.byte	0
 6121 5cf5 1D       		.uleb128 0x1d
 6122 5cf6 E5000000 		.secrel32	LASF42
 6123 5cfa 18       		.byte	0x18
 6124 5cfb F102     		.word	0x2f1
 6125 5cfd 5F5A4E4B 		.ascii "_ZNK9__gnu_cxx17__normal_iteratorIPKcNSt7__cxx1112basic_stringIcSt11char_traitsIcESaIcEEEE
 6125      395F5F67 
 6125      6E755F63 
 6125      78783137 
 6125      5F5F6E6F 
 6126 5d5c E85B0000 		.long	0x5be8
 6127 5d60 01       		.byte	0x1
 6128 5d61 695D0000 		.long	0x5d69
 6129 5d65 6F5D0000 		.long	0x5d6f
 6130 5d69 08       		.uleb128 0x8
 6131 5d6a 35710000 		.long	0x7135
 6132 5d6e 00       		.byte	0
 6133 5d6f 1D       		.uleb128 0x1d
 6134 5d70 7A000000 		.secrel32	LASF43
 6135 5d74 18       		.byte	0x18
 6136 5d75 F502     		.word	0x2f5
 6137 5d77 5F5A4E4B 		.ascii "_ZNK9__gnu_cxx17__normal_iteratorIPKcNSt7__cxx1112basic_stringIcSt11char_traitsIcESaIcEEEE
 6137      395F5F67 
 6137      6E755F63 
 6137      78783137 
 6137      5F5F6E6F 
 6138 5dd6 F55B0000 		.long	0x5bf5
 6139 5dda 01       		.byte	0x1
 6140 5ddb E35D0000 		.long	0x5de3
 6141 5ddf E95D0000 		.long	0x5de9
 6142 5de3 08       		.uleb128 0x8
 6143 5de4 35710000 		.long	0x7135
 6144 5de8 00       		.byte	0
 6145 5de9 1D       		.uleb128 0x1d
 6146 5dea 58010000 		.secrel32	LASF44
 6147 5dee 18       		.byte	0x18
GAS LISTING C:\Users\USER\AppData\Local\Temp\ccFSuTGK.s 			page 139


 6148 5def F902     		.word	0x2f9
 6149 5df1 5F5A4E39 		.ascii "_ZN9__gnu_cxx17__normal_iteratorIPKcNSt7__cxx1112basic_stringIcSt11char_traitsIcESaIcEEEEp
 6149      5F5F676E 
 6149      755F6378 
 6149      7831375F 
 6149      5F6E6F72 
 6150 5e4f 3B710000 		.long	0x713b
 6151 5e53 01       		.byte	0x1
 6152 5e54 5C5E0000 		.long	0x5e5c
 6153 5e58 625E0000 		.long	0x5e62
 6154 5e5c 08       		.uleb128 0x8
 6155 5e5d 29710000 		.long	0x7129
 6156 5e61 00       		.byte	0
 6157 5e62 1D       		.uleb128 0x1d
 6158 5e63 58010000 		.secrel32	LASF44
 6159 5e67 18       		.byte	0x18
 6160 5e68 0003     		.word	0x300
 6161 5e6a 5F5A4E39 		.ascii "_ZN9__gnu_cxx17__normal_iteratorIPKcNSt7__cxx1112basic_stringIcSt11char_traitsIcESaIcEEEEp
 6161      5F5F676E 
 6161      755F6378 
 6161      7831375F 
 6161      5F6E6F72 
 6162 5ec8 535B0000 		.long	0x5b53
 6163 5ecc 01       		.byte	0x1
 6164 5ecd D55E0000 		.long	0x5ed5
 6165 5ed1 E05E0000 		.long	0x5ee0
 6166 5ed5 08       		.uleb128 0x8
 6167 5ed6 29710000 		.long	0x7129
 6168 5eda 09       		.uleb128 0x9
 6169 5edb A4640000 		.long	0x64a4
 6170 5edf 00       		.byte	0
 6171 5ee0 1D       		.uleb128 0x1d
 6172 5ee1 49000000 		.secrel32	LASF45
 6173 5ee5 18       		.byte	0x18
 6174 5ee6 0503     		.word	0x305
 6175 5ee8 5F5A4E39 		.ascii "_ZN9__gnu_cxx17__normal_iteratorIPKcNSt7__cxx1112basic_stringIcSt11char_traitsIcESaIcEEEEm
 6175      5F5F676E 
 6175      755F6378 
 6175      7831375F 
 6175      5F6E6F72 
 6176 5f46 3B710000 		.long	0x713b
 6177 5f4a 01       		.byte	0x1
 6178 5f4b 535F0000 		.long	0x5f53
 6179 5f4f 595F0000 		.long	0x5f59
 6180 5f53 08       		.uleb128 0x8
 6181 5f54 29710000 		.long	0x7129
 6182 5f58 00       		.byte	0
 6183 5f59 1D       		.uleb128 0x1d
 6184 5f5a 49000000 		.secrel32	LASF45
 6185 5f5e 18       		.byte	0x18
 6186 5f5f 0C03     		.word	0x30c
 6187 5f61 5F5A4E39 		.ascii "_ZN9__gnu_cxx17__normal_iteratorIPKcNSt7__cxx1112basic_stringIcSt11char_traitsIcESaIcEEEEm
 6187      5F5F676E 
 6187      755F6378 
 6187      7831375F 
 6187      5F6E6F72 
 6188 5fbf 535B0000 		.long	0x5b53
GAS LISTING C:\Users\USER\AppData\Local\Temp\ccFSuTGK.s 			page 140


 6189 5fc3 01       		.byte	0x1
 6190 5fc4 CC5F0000 		.long	0x5fcc
 6191 5fc8 D75F0000 		.long	0x5fd7
 6192 5fcc 08       		.uleb128 0x8
 6193 5fcd 29710000 		.long	0x7129
 6194 5fd1 09       		.uleb128 0x9
 6195 5fd2 A4640000 		.long	0x64a4
 6196 5fd6 00       		.byte	0
 6197 5fd7 1D       		.uleb128 0x1d
 6198 5fd8 4D010000 		.secrel32	LASF12
 6199 5fdc 18       		.byte	0x18
 6200 5fdd 1103     		.word	0x311
 6201 5fdf 5F5A4E4B 		.ascii "_ZNK9__gnu_cxx17__normal_iteratorIPKcNSt7__cxx1112basic_stringIcSt11char_traitsIcESaIcEEEE
 6201      395F5F67 
 6201      6E755F63 
 6201      78783137 
 6201      5F5F6E6F 
 6202 603e E85B0000 		.long	0x5be8
 6203 6042 01       		.byte	0x1
 6204 6043 4B600000 		.long	0x604b
 6205 6047 56600000 		.long	0x6056
 6206 604b 08       		.uleb128 0x8
 6207 604c 35710000 		.long	0x7135
 6208 6050 09       		.uleb128 0x9
 6209 6051 DB5B0000 		.long	0x5bdb
 6210 6055 00       		.byte	0
 6211 6056 1D       		.uleb128 0x1d
 6212 6057 87010000 		.secrel32	LASF13
 6213 605b 18       		.byte	0x18
 6214 605c 1503     		.word	0x315
 6215 605e 5F5A4E39 		.ascii "_ZN9__gnu_cxx17__normal_iteratorIPKcNSt7__cxx1112basic_stringIcSt11char_traitsIcESaIcEEEEp
 6215      5F5F676E 
 6215      755F6378 
 6215      7831375F 
 6215      5F6E6F72 
 6216 60bc 3B710000 		.long	0x713b
 6217 60c0 01       		.byte	0x1
 6218 60c1 C9600000 		.long	0x60c9
 6219 60c5 D4600000 		.long	0x60d4
 6220 60c9 08       		.uleb128 0x8
 6221 60ca 29710000 		.long	0x7129
 6222 60ce 09       		.uleb128 0x9
 6223 60cf DB5B0000 		.long	0x5bdb
 6224 60d3 00       		.byte	0
 6225 60d4 1D       		.uleb128 0x1d
 6226 60d5 EF000000 		.secrel32	LASF46
 6227 60d9 18       		.byte	0x18
 6228 60da 1903     		.word	0x319
 6229 60dc 5F5A4E4B 		.ascii "_ZNK9__gnu_cxx17__normal_iteratorIPKcNSt7__cxx1112basic_stringIcSt11char_traitsIcESaIcEEEE
 6229      395F5F67 
 6229      6E755F63 
 6229      78783137 
 6229      5F5F6E6F 
 6230 613b 535B0000 		.long	0x5b53
 6231 613f 01       		.byte	0x1
 6232 6140 48610000 		.long	0x6148
 6233 6144 53610000 		.long	0x6153
GAS LISTING C:\Users\USER\AppData\Local\Temp\ccFSuTGK.s 			page 141


 6234 6148 08       		.uleb128 0x8
 6235 6149 35710000 		.long	0x7135
 6236 614d 09       		.uleb128 0x9
 6237 614e DB5B0000 		.long	0x5bdb
 6238 6152 00       		.byte	0
 6239 6153 1D       		.uleb128 0x1d
 6240 6154 6F000000 		.secrel32	LASF47
 6241 6158 18       		.byte	0x18
 6242 6159 1D03     		.word	0x31d
 6243 615b 5F5A4E39 		.ascii "_ZN9__gnu_cxx17__normal_iteratorIPKcNSt7__cxx1112basic_stringIcSt11char_traitsIcESaIcEEEEm
 6243      5F5F676E 
 6243      755F6378 
 6243      7831375F 
 6243      5F6E6F72 
 6244 61b9 3B710000 		.long	0x713b
 6245 61bd 01       		.byte	0x1
 6246 61be C6610000 		.long	0x61c6
 6247 61c2 D1610000 		.long	0x61d1
 6248 61c6 08       		.uleb128 0x8
 6249 61c7 29710000 		.long	0x7129
 6250 61cb 09       		.uleb128 0x9
 6251 61cc DB5B0000 		.long	0x5bdb
 6252 61d0 00       		.byte	0
 6253 61d1 1D       		.uleb128 0x1d
 6254 61d2 65000000 		.secrel32	LASF48
 6255 61d6 18       		.byte	0x18
 6256 61d7 2103     		.word	0x321
 6257 61d9 5F5A4E4B 		.ascii "_ZNK9__gnu_cxx17__normal_iteratorIPKcNSt7__cxx1112basic_stringIcSt11char_traitsIcESaIcEEEE
 6257      395F5F67 
 6257      6E755F63 
 6257      78783137 
 6257      5F5F6E6F 
 6258 6238 535B0000 		.long	0x5b53
 6259 623c 01       		.byte	0x1
 6260 623d 45620000 		.long	0x6245
 6261 6241 50620000 		.long	0x6250
 6262 6245 08       		.uleb128 0x8
 6263 6246 35710000 		.long	0x7135
 6264 624a 09       		.uleb128 0x9
 6265 624b DB5B0000 		.long	0x5bdb
 6266 624f 00       		.byte	0
 6267 6250 1E       		.uleb128 0x1e
 6268 6251 62617365 		.ascii "base\0"
 6268      00
 6269 6256 18       		.byte	0x18
 6270 6257 2503     		.word	0x325
 6271 6259 5F5A4E4B 		.ascii "_ZNK9__gnu_cxx17__normal_iteratorIPKcNSt7__cxx1112basic_stringIcSt11char_traitsIcESaIcEEEE
 6271      395F5F67 
 6271      6E755F63 
 6271      78783137 
 6271      5F5F6E6F 
 6272 62bb 2F710000 		.long	0x712f
 6273 62bf 01       		.byte	0x1
 6274 62c0 C8620000 		.long	0x62c8
 6275 62c4 CE620000 		.long	0x62ce
 6276 62c8 08       		.uleb128 0x8
 6277 62c9 35710000 		.long	0x7135
GAS LISTING C:\Users\USER\AppData\Local\Temp\ccFSuTGK.s 			page 142


 6278 62cd 00       		.byte	0
 6279 62ce 20       		.uleb128 0x20
 6280 62cf 3F000000 		.secrel32	LASF30
 6281 62d3 BE670000 		.long	0x67be
 6282 62d7 20       		.uleb128 0x20
 6283 62d8 B3010000 		.secrel32	LASF49
 6284 62dc E2000000 		.long	0xe2
 6285 62e0 00       		.byte	0
 6286 62e1 27       		.uleb128 0x27
 6287 62e2 5F5F6E75 		.ascii "__numeric_traits_integer<long unsigned int>\0"
 6287      6D657269 
 6287      635F7472 
 6287      61697473 
 6287      5F696E74 
 6288 630e 01       		.byte	0x1
 6289 630f 16       		.byte	0x16
 6290 6310 37       		.byte	0x37
 6291 6311 4B630000 		.long	0x634b
 6292 6315 44       		.uleb128 0x44
 6293 6316 ED010000 		.secrel32	LASF35
 6294 631a 16       		.byte	0x16
 6295 631b 3A       		.byte	0x3a
 6296 631c 9B700000 		.long	0x709b
 6297 6320 44       		.uleb128 0x44
 6298 6321 A0010000 		.secrel32	LASF36
 6299 6325 16       		.byte	0x16
 6300 6326 3B       		.byte	0x3b
 6301 6327 9B700000 		.long	0x709b
 6302 632b 44       		.uleb128 0x44
 6303 632c AD000000 		.secrel32	LASF37
 6304 6330 16       		.byte	0x16
 6305 6331 3F       		.byte	0x3f
 6306 6332 4B700000 		.long	0x704b
 6307 6336 44       		.uleb128 0x44
 6308 6337 33020000 		.secrel32	LASF38
 6309 633b 16       		.byte	0x16
 6310 633c 40       		.byte	0x40
 6311 633d 46700000 		.long	0x7046
 6312 6341 20       		.uleb128 0x20
 6313 6342 38000000 		.secrel32	LASF39
 6314 6346 1A660000 		.long	0x661a
 6315 634a 00       		.byte	0
 6316 634b 27       		.uleb128 0x27
 6317 634c 5F5F6E75 		.ascii "__numeric_traits_integer<char>\0"
 6317      6D657269 
 6317      635F7472 
 6317      61697473 
 6317      5F696E74 
 6318 636b 01       		.byte	0x1
 6319 636c 16       		.byte	0x16
 6320 636d 37       		.byte	0x37
 6321 636e A8630000 		.long	0x63a8
 6322 6372 44       		.uleb128 0x44
 6323 6373 ED010000 		.secrel32	LASF35
 6324 6377 16       		.byte	0x16
 6325 6378 3A       		.byte	0x3a
 6326 6379 C4670000 		.long	0x67c4
GAS LISTING C:\Users\USER\AppData\Local\Temp\ccFSuTGK.s 			page 143


 6327 637d 44       		.uleb128 0x44
 6328 637e A0010000 		.secrel32	LASF36
 6329 6382 16       		.byte	0x16
 6330 6383 3B       		.byte	0x3b
 6331 6384 C4670000 		.long	0x67c4
 6332 6388 44       		.uleb128 0x44
 6333 6389 AD000000 		.secrel32	LASF37
 6334 638d 16       		.byte	0x16
 6335 638e 3F       		.byte	0x3f
 6336 638f 4B700000 		.long	0x704b
 6337 6393 44       		.uleb128 0x44
 6338 6394 33020000 		.secrel32	LASF38
 6339 6398 16       		.byte	0x16
 6340 6399 40       		.byte	0x40
 6341 639a 46700000 		.long	0x7046
 6342 639e 20       		.uleb128 0x20
 6343 639f 38000000 		.secrel32	LASF39
 6344 63a3 70640000 		.long	0x6470
 6345 63a7 00       		.byte	0
 6346 63a8 27       		.uleb128 0x27
 6347 63a9 5F5F6E75 		.ascii "__numeric_traits_integer<short int>\0"
 6347      6D657269 
 6347      635F7472 
 6347      61697473 
 6347      5F696E74 
 6348 63cd 01       		.byte	0x1
 6349 63ce 16       		.byte	0x16
 6350 63cf 37       		.byte	0x37
 6351 63d0 0A640000 		.long	0x640a
 6352 63d4 44       		.uleb128 0x44
 6353 63d5 ED010000 		.secrel32	LASF35
 6354 63d9 16       		.byte	0x16
 6355 63da 3A       		.byte	0x3a
 6356 63db 16710000 		.long	0x7116
 6357 63df 44       		.uleb128 0x44
 6358 63e0 A0010000 		.secrel32	LASF36
 6359 63e4 16       		.byte	0x16
 6360 63e5 3B       		.byte	0x3b
 6361 63e6 16710000 		.long	0x7116
 6362 63ea 44       		.uleb128 0x44
 6363 63eb AD000000 		.secrel32	LASF37
 6364 63ef 16       		.byte	0x16
 6365 63f0 3F       		.byte	0x3f
 6366 63f1 4B700000 		.long	0x704b
 6367 63f5 44       		.uleb128 0x44
 6368 63f6 33020000 		.secrel32	LASF38
 6369 63fa 16       		.byte	0x16
 6370 63fb 40       		.byte	0x40
 6371 63fc 46700000 		.long	0x7046
 6372 6400 20       		.uleb128 0x20
 6373 6401 38000000 		.secrel32	LASF39
 6374 6405 C8640000 		.long	0x64c8
 6375 6409 00       		.byte	0
 6376 640a 0E       		.uleb128 0xe
 6377 640b 535B0000 		.long	0x5b53
 6378 640f 0E       		.uleb128 0xe
 6379 6410 D9530000 		.long	0x53d9
GAS LISTING C:\Users\USER\AppData\Local\Temp\ccFSuTGK.s 			page 144


 6380 6414 00       		.byte	0
 6381 6415 10       		.uleb128 0x10
 6382 6416 73697A65 		.ascii "size_t\0"
 6382      5F7400
 6383 641d 19       		.byte	0x19
 6384 641e D8       		.byte	0xd8
 6385 641f 23640000 		.long	0x6423
 6386 6423 4A       		.uleb128 0x4a
 6387 6424 04       		.byte	0x4
 6388 6425 07       		.byte	0x7
 6389 6426 756E7369 		.ascii "unsigned int\0"
 6389      676E6564 
 6389      20696E74 
 6389      00
 6390 6433 4B       		.uleb128 0x4b
 6391 6434 77696E74 		.ascii "wint_t\0"
 6391      5F7400
 6392 643b 19       		.byte	0x19
 6393 643c 6501     		.word	0x165
 6394 643e 42640000 		.long	0x6442
 6395 6442 4A       		.uleb128 0x4a
 6396 6443 02       		.byte	0x2
 6397 6444 07       		.byte	0x7
 6398 6445 73686F72 		.ascii "short unsigned int\0"
 6398      7420756E 
 6398      7369676E 
 6398      65642069 
 6398      6E7400
 6399 6458 4C       		.uleb128 0x4c
 6400 6459 04       		.byte	0x4
 6401 645a 5F5F6275 		.ascii "__builtin_va_list\0"
 6401      696C7469 
 6401      6E5F7661 
 6401      5F6C6973 
 6401      7400
 6402 646c 70640000 		.long	0x6470
 6403 6470 4A       		.uleb128 0x4a
 6404 6471 01       		.byte	0x1
 6405 6472 06       		.byte	0x6
 6406 6473 63686172 		.ascii "char\0"
 6406      00
 6407 6478 10       		.uleb128 0x10
 6408 6479 77637479 		.ascii "wctype_t\0"
 6408      70655F74 
 6408      00
 6409 6482 1A       		.byte	0x1a
 6410 6483 3E       		.byte	0x3e
 6411 6484 88640000 		.long	0x6488
 6412 6488 4A       		.uleb128 0x4a
 6413 6489 02       		.byte	0x2
 6414 648a 07       		.byte	0x7
 6415 648b 77636861 		.ascii "wchar_t\0"
 6415      725F7400 
 6416 6493 10       		.uleb128 0x10
 6417 6494 77637472 		.ascii "wctrans_t\0"
 6417      616E735F 
 6417      7400
GAS LISTING C:\Users\USER\AppData\Local\Temp\ccFSuTGK.s 			page 145


 6418 649e 1A       		.byte	0x1a
 6419 649f 94       		.byte	0x94
 6420 64a0 88640000 		.long	0x6488
 6421 64a4 4A       		.uleb128 0x4a
 6422 64a5 04       		.byte	0x4
 6423 64a6 05       		.byte	0x5
 6424 64a7 696E7400 		.ascii "int\0"
 6425 64ab 4A       		.uleb128 0x4a
 6426 64ac 04       		.byte	0x4
 6427 64ad 05       		.byte	0x5
 6428 64ae 6C6F6E67 		.ascii "long int\0"
 6428      20696E74 
 6428      00
 6429 64b7 4A       		.uleb128 0x4a
 6430 64b8 08       		.byte	0x8
 6431 64b9 05       		.byte	0x5
 6432 64ba 6C6F6E67 		.ascii "long long int\0"
 6432      206C6F6E 
 6432      6720696E 
 6432      7400
 6433 64c8 4A       		.uleb128 0x4a
 6434 64c9 02       		.byte	0x2
 6435 64ca 05       		.byte	0x5
 6436 64cb 73686F72 		.ascii "short int\0"
 6436      7420696E 
 6436      7400
 6437 64d5 27       		.uleb128 0x27
 6438 64d6 5F696F62 		.ascii "_iobuf\0"
 6438      756600
 6439 64dd 20       		.byte	0x20
 6440 64de 1B       		.byte	0x1b
 6441 64df 44       		.byte	0x44
 6442 64e0 5C650000 		.long	0x655c
 6443 64e4 06       		.uleb128 0x6
 6444 64e5 5F707472 		.ascii "_ptr\0"
 6444      00
 6445 64ea 1B       		.byte	0x1b
 6446 64eb 46       		.byte	0x46
 6447 64ec 5C650000 		.long	0x655c
 6448 64f0 00       		.byte	0
 6449 64f1 06       		.uleb128 0x6
 6450 64f2 5F636E74 		.ascii "_cnt\0"
 6450      00
 6451 64f7 1B       		.byte	0x1b
 6452 64f8 47       		.byte	0x47
 6453 64f9 A4640000 		.long	0x64a4
 6454 64fd 04       		.byte	0x4
 6455 64fe 06       		.uleb128 0x6
 6456 64ff 5F626173 		.ascii "_base\0"
 6456      6500
 6457 6505 1B       		.byte	0x1b
 6458 6506 48       		.byte	0x48
 6459 6507 5C650000 		.long	0x655c
 6460 650b 08       		.byte	0x8
 6461 650c 06       		.uleb128 0x6
 6462 650d 5F666C61 		.ascii "_flag\0"
 6462      6700
GAS LISTING C:\Users\USER\AppData\Local\Temp\ccFSuTGK.s 			page 146


 6463 6513 1B       		.byte	0x1b
 6464 6514 49       		.byte	0x49
 6465 6515 A4640000 		.long	0x64a4
 6466 6519 0C       		.byte	0xc
 6467 651a 06       		.uleb128 0x6
 6468 651b 5F66696C 		.ascii "_file\0"
 6468      6500
 6469 6521 1B       		.byte	0x1b
 6470 6522 4A       		.byte	0x4a
 6471 6523 A4640000 		.long	0x64a4
 6472 6527 10       		.byte	0x10
 6473 6528 06       		.uleb128 0x6
 6474 6529 5F636861 		.ascii "_charbuf\0"
 6474      72627566 
 6474      00
 6475 6532 1B       		.byte	0x1b
 6476 6533 4B       		.byte	0x4b
 6477 6534 A4640000 		.long	0x64a4
 6478 6538 14       		.byte	0x14
 6479 6539 06       		.uleb128 0x6
 6480 653a 5F627566 		.ascii "_bufsiz\0"
 6480      73697A00 
 6481 6542 1B       		.byte	0x1b
 6482 6543 4C       		.byte	0x4c
 6483 6544 A4640000 		.long	0x64a4
 6484 6548 18       		.byte	0x18
 6485 6549 06       		.uleb128 0x6
 6486 654a 5F746D70 		.ascii "_tmpfname\0"
 6486      666E616D 
 6486      6500
 6487 6554 1B       		.byte	0x1b
 6488 6555 4D       		.byte	0x4d
 6489 6556 5C650000 		.long	0x655c
 6490 655a 1C       		.byte	0x1c
 6491 655b 00       		.byte	0
 6492 655c 4D       		.uleb128 0x4d
 6493 655d 04       		.byte	0x4
 6494 655e 70640000 		.long	0x6470
 6495 6562 10       		.uleb128 0x10
 6496 6563 46494C45 		.ascii "FILE\0"
 6496      00
 6497 6568 1B       		.byte	0x1b
 6498 6569 4E       		.byte	0x4e
 6499 656a D5640000 		.long	0x64d5
 6500 656e 27       		.uleb128 0x27
 6501 656f 746D00   		.ascii "tm\0"
 6502 6572 24       		.byte	0x24
 6503 6573 1B       		.byte	0x1b
 6504 6574 57       		.byte	0x57
 6505 6575 08660000 		.long	0x6608
 6506 6579 06       		.uleb128 0x6
 6507 657a 746D5F73 		.ascii "tm_sec\0"
 6507      656300
 6508 6581 1B       		.byte	0x1b
 6509 6582 58       		.byte	0x58
 6510 6583 A4640000 		.long	0x64a4
 6511 6587 00       		.byte	0
GAS LISTING C:\Users\USER\AppData\Local\Temp\ccFSuTGK.s 			page 147


 6512 6588 06       		.uleb128 0x6
 6513 6589 746D5F6D 		.ascii "tm_min\0"
 6513      696E00
 6514 6590 1B       		.byte	0x1b
 6515 6591 59       		.byte	0x59
 6516 6592 A4640000 		.long	0x64a4
 6517 6596 04       		.byte	0x4
 6518 6597 06       		.uleb128 0x6
 6519 6598 746D5F68 		.ascii "tm_hour\0"
 6519      6F757200 
 6520 65a0 1B       		.byte	0x1b
 6521 65a1 5A       		.byte	0x5a
 6522 65a2 A4640000 		.long	0x64a4
 6523 65a6 08       		.byte	0x8
 6524 65a7 06       		.uleb128 0x6
 6525 65a8 746D5F6D 		.ascii "tm_mday\0"
 6525      64617900 
 6526 65b0 1B       		.byte	0x1b
 6527 65b1 5B       		.byte	0x5b
 6528 65b2 A4640000 		.long	0x64a4
 6529 65b6 0C       		.byte	0xc
 6530 65b7 06       		.uleb128 0x6
 6531 65b8 746D5F6D 		.ascii "tm_mon\0"
 6531      6F6E00
 6532 65bf 1B       		.byte	0x1b
 6533 65c0 5C       		.byte	0x5c
 6534 65c1 A4640000 		.long	0x64a4
 6535 65c5 10       		.byte	0x10
 6536 65c6 06       		.uleb128 0x6
 6537 65c7 746D5F79 		.ascii "tm_year\0"
 6537      65617200 
 6538 65cf 1B       		.byte	0x1b
 6539 65d0 5D       		.byte	0x5d
 6540 65d1 A4640000 		.long	0x64a4
 6541 65d5 14       		.byte	0x14
 6542 65d6 06       		.uleb128 0x6
 6543 65d7 746D5F77 		.ascii "tm_wday\0"
 6543      64617900 
 6544 65df 1B       		.byte	0x1b
 6545 65e0 5E       		.byte	0x5e
 6546 65e1 A4640000 		.long	0x64a4
 6547 65e5 18       		.byte	0x18
 6548 65e6 06       		.uleb128 0x6
 6549 65e7 746D5F79 		.ascii "tm_yday\0"
 6549      64617900 
 6550 65ef 1B       		.byte	0x1b
 6551 65f0 5F       		.byte	0x5f
 6552 65f1 A4640000 		.long	0x64a4
 6553 65f5 1C       		.byte	0x1c
 6554 65f6 06       		.uleb128 0x6
 6555 65f7 746D5F69 		.ascii "tm_isdst\0"
 6555      73647374 
 6555      00
 6556 6600 1B       		.byte	0x1b
 6557 6601 60       		.byte	0x60
 6558 6602 A4640000 		.long	0x64a4
 6559 6606 20       		.byte	0x20
GAS LISTING C:\Users\USER\AppData\Local\Temp\ccFSuTGK.s 			page 148


 6560 6607 00       		.byte	0
 6561 6608 4B       		.uleb128 0x4b
 6562 6609 6D627374 		.ascii "mbstate_t\0"
 6562      6174655F 
 6562      7400
 6563 6613 1B       		.byte	0x1b
 6564 6614 2701     		.word	0x127
 6565 6616 A4640000 		.long	0x64a4
 6566 661a 4A       		.uleb128 0x4a
 6567 661b 04       		.byte	0x4
 6568 661c 07       		.byte	0x7
 6569 661d 6C6F6E67 		.ascii "long unsigned int\0"
 6569      20756E73 
 6569      69676E65 
 6569      6420696E 
 6569      7400
 6570 662f 4A       		.uleb128 0x4a
 6571 6630 04       		.byte	0x4
 6572 6631 07       		.byte	0x7
 6573 6632 73697A65 		.ascii "sizetype\0"
 6573      74797065 
 6573      00
 6574 663b 4A       		.uleb128 0x4a
 6575 663c 01       		.byte	0x1
 6576 663d 06       		.byte	0x6
 6577 663e 7369676E 		.ascii "signed char\0"
 6577      65642063 
 6577      68617200 
 6578 664a 4A       		.uleb128 0x4a
 6579 664b 01       		.byte	0x1
 6580 664c 08       		.byte	0x8
 6581 664d 756E7369 		.ascii "unsigned char\0"
 6581      676E6564 
 6581      20636861 
 6581      7200
 6582 665b 4A       		.uleb128 0x4a
 6583 665c 08       		.byte	0x8
 6584 665d 07       		.byte	0x7
 6585 665e 6C6F6E67 		.ascii "long long unsigned int\0"
 6585      206C6F6E 
 6585      6720756E 
 6585      7369676E 
 6585      65642069 
 6586 6675 4E       		.uleb128 0x4e
 6587 6676 62746F77 		.ascii "btowc\0"
 6587      6300
 6588 667c 1B       		.byte	0x1b
 6589 667d 2901     		.word	0x129
 6590 667f 33640000 		.long	0x6433
 6591 6683 8D660000 		.long	0x668d
 6592 6687 09       		.uleb128 0x9
 6593 6688 A4640000 		.long	0x64a4
 6594 668c 00       		.byte	0
 6595 668d 4F       		.uleb128 0x4f
 6596 668e 66676574 		.ascii "fgetwc\0"
 6596      776300
 6597 6695 1B       		.byte	0x1b
GAS LISTING C:\Users\USER\AppData\Local\Temp\ccFSuTGK.s 			page 149


 6598 6696 70       		.byte	0x70
 6599 6697 33640000 		.long	0x6433
 6600 669b A5660000 		.long	0x66a5
 6601 669f 09       		.uleb128 0x9
 6602 66a0 A5660000 		.long	0x66a5
 6603 66a4 00       		.byte	0
 6604 66a5 4D       		.uleb128 0x4d
 6605 66a6 04       		.byte	0x4
 6606 66a7 62650000 		.long	0x6562
 6607 66ab 4F       		.uleb128 0x4f
 6608 66ac 66676574 		.ascii "fgetws\0"
 6608      777300
 6609 66b3 1B       		.byte	0x1b
 6610 66b4 7B       		.byte	0x7b
 6611 66b5 CD660000 		.long	0x66cd
 6612 66b9 CD660000 		.long	0x66cd
 6613 66bd 09       		.uleb128 0x9
 6614 66be CD660000 		.long	0x66cd
 6615 66c2 09       		.uleb128 0x9
 6616 66c3 A4640000 		.long	0x64a4
 6617 66c7 09       		.uleb128 0x9
 6618 66c8 A5660000 		.long	0x66a5
 6619 66cc 00       		.byte	0
 6620 66cd 4D       		.uleb128 0x4d
 6621 66ce 04       		.byte	0x4
 6622 66cf 88640000 		.long	0x6488
 6623 66d3 4F       		.uleb128 0x4f
 6624 66d4 66707574 		.ascii "fputwc\0"
 6624      776300
 6625 66db 1B       		.byte	0x1b
 6626 66dc 71       		.byte	0x71
 6627 66dd 33640000 		.long	0x6433
 6628 66e1 F0660000 		.long	0x66f0
 6629 66e5 09       		.uleb128 0x9
 6630 66e6 88640000 		.long	0x6488
 6631 66ea 09       		.uleb128 0x9
 6632 66eb A5660000 		.long	0x66a5
 6633 66ef 00       		.byte	0
 6634 66f0 4F       		.uleb128 0x4f
 6635 66f1 66707574 		.ascii "fputws\0"
 6635      777300
 6636 66f8 1B       		.byte	0x1b
 6637 66f9 7C       		.byte	0x7c
 6638 66fa A4640000 		.long	0x64a4
 6639 66fe 0D670000 		.long	0x670d
 6640 6702 09       		.uleb128 0x9
 6641 6703 0D670000 		.long	0x670d
 6642 6707 09       		.uleb128 0x9
 6643 6708 A5660000 		.long	0x66a5
 6644 670c 00       		.byte	0
 6645 670d 4D       		.uleb128 0x4d
 6646 670e 04       		.byte	0x4
 6647 670f 13670000 		.long	0x6713
 6648 6713 0E       		.uleb128 0xe
 6649 6714 88640000 		.long	0x6488
 6650 6718 4E       		.uleb128 0x4e
 6651 6719 66776964 		.ascii "fwide\0"
GAS LISTING C:\Users\USER\AppData\Local\Temp\ccFSuTGK.s 			page 150


 6651      6500
 6652 671f 1B       		.byte	0x1b
 6653 6720 3701     		.word	0x137
 6654 6722 A4640000 		.long	0x64a4
 6655 6726 35670000 		.long	0x6735
 6656 672a 09       		.uleb128 0x9
 6657 672b A5660000 		.long	0x66a5
 6658 672f 09       		.uleb128 0x9
 6659 6730 A4640000 		.long	0x64a4
 6660 6734 00       		.byte	0
 6661 6735 4F       		.uleb128 0x4f
 6662 6736 66777072 		.ascii "fwprintf\0"
 6662      696E7466 
 6662      00
 6663 673f 1B       		.byte	0x1b
 6664 6740 67       		.byte	0x67
 6665 6741 A4640000 		.long	0x64a4
 6666 6745 55670000 		.long	0x6755
 6667 6749 09       		.uleb128 0x9
 6668 674a A5660000 		.long	0x66a5
 6669 674e 09       		.uleb128 0x9
 6670 674f 0D670000 		.long	0x670d
 6671 6753 50       		.uleb128 0x50
 6672 6754 00       		.byte	0
 6673 6755 4F       		.uleb128 0x4f
 6674 6756 66777363 		.ascii "fwscanf\0"
 6674      616E6600 
 6675 675e 1B       		.byte	0x1b
 6676 675f 6D       		.byte	0x6d
 6677 6760 A4640000 		.long	0x64a4
 6678 6764 74670000 		.long	0x6774
 6679 6768 09       		.uleb128 0x9
 6680 6769 A5660000 		.long	0x66a5
 6681 676d 09       		.uleb128 0x9
 6682 676e 0D670000 		.long	0x670d
 6683 6772 50       		.uleb128 0x50
 6684 6773 00       		.byte	0
 6685 6774 4F       		.uleb128 0x4f
 6686 6775 67657477 		.ascii "getwc\0"
 6686      6300
 6687 677b 1B       		.byte	0x1b
 6688 677c 7D       		.byte	0x7d
 6689 677d 33640000 		.long	0x6433
 6690 6781 8B670000 		.long	0x678b
 6691 6785 09       		.uleb128 0x9
 6692 6786 A5660000 		.long	0x66a5
 6693 678a 00       		.byte	0
 6694 678b 51       		.uleb128 0x51
 6695 678c 67657477 		.ascii "getwchar\0"
 6695      63686172 
 6695      00
 6696 6795 1B       		.byte	0x1b
 6697 6796 7E       		.byte	0x7e
 6698 6797 33640000 		.long	0x6433
 6699 679b 4E       		.uleb128 0x4e
 6700 679c 6D62726C 		.ascii "mbrlen\0"
 6700      656E00
GAS LISTING C:\Users\USER\AppData\Local\Temp\ccFSuTGK.s 			page 151


 6701 67a3 1B       		.byte	0x1b
 6702 67a4 2A01     		.word	0x12a
 6703 67a6 15640000 		.long	0x6415
 6704 67aa BE670000 		.long	0x67be
 6705 67ae 09       		.uleb128 0x9
 6706 67af BE670000 		.long	0x67be
 6707 67b3 09       		.uleb128 0x9
 6708 67b4 15640000 		.long	0x6415
 6709 67b8 09       		.uleb128 0x9
 6710 67b9 C9670000 		.long	0x67c9
 6711 67bd 00       		.byte	0
 6712 67be 4D       		.uleb128 0x4d
 6713 67bf 04       		.byte	0x4
 6714 67c0 C4670000 		.long	0x67c4
 6715 67c4 0E       		.uleb128 0xe
 6716 67c5 70640000 		.long	0x6470
 6717 67c9 4D       		.uleb128 0x4d
 6718 67ca 04       		.byte	0x4
 6719 67cb 08660000 		.long	0x6608
 6720 67cf 4E       		.uleb128 0x4e
 6721 67d0 6D627274 		.ascii "mbrtowc\0"
 6721      6F776300 
 6722 67d8 1B       		.byte	0x1b
 6723 67d9 2C01     		.word	0x12c
 6724 67db 15640000 		.long	0x6415
 6725 67df F8670000 		.long	0x67f8
 6726 67e3 09       		.uleb128 0x9
 6727 67e4 CD660000 		.long	0x66cd
 6728 67e8 09       		.uleb128 0x9
 6729 67e9 BE670000 		.long	0x67be
 6730 67ed 09       		.uleb128 0x9
 6731 67ee 15640000 		.long	0x6415
 6732 67f2 09       		.uleb128 0x9
 6733 67f3 C9670000 		.long	0x67c9
 6734 67f7 00       		.byte	0
 6735 67f8 4E       		.uleb128 0x4e
 6736 67f9 6D627369 		.ascii "mbsinit\0"
 6736      6E697400 
 6737 6801 1B       		.byte	0x1b
 6738 6802 3801     		.word	0x138
 6739 6804 A4640000 		.long	0x64a4
 6740 6808 12680000 		.long	0x6812
 6741 680c 09       		.uleb128 0x9
 6742 680d 12680000 		.long	0x6812
 6743 6811 00       		.byte	0
 6744 6812 4D       		.uleb128 0x4d
 6745 6813 04       		.byte	0x4
 6746 6814 18680000 		.long	0x6818
 6747 6818 0E       		.uleb128 0xe
 6748 6819 08660000 		.long	0x6608
 6749 681d 4E       		.uleb128 0x4e
 6750 681e 6D627372 		.ascii "mbsrtowcs\0"
 6750      746F7763 
 6750      7300
 6751 6828 1B       		.byte	0x1b
 6752 6829 2E01     		.word	0x12e
 6753 682b 15640000 		.long	0x6415
GAS LISTING C:\Users\USER\AppData\Local\Temp\ccFSuTGK.s 			page 152


 6754 682f 48680000 		.long	0x6848
 6755 6833 09       		.uleb128 0x9
 6756 6834 CD660000 		.long	0x66cd
 6757 6838 09       		.uleb128 0x9
 6758 6839 48680000 		.long	0x6848
 6759 683d 09       		.uleb128 0x9
 6760 683e 15640000 		.long	0x6415
 6761 6842 09       		.uleb128 0x9
 6762 6843 C9670000 		.long	0x67c9
 6763 6847 00       		.byte	0
 6764 6848 4D       		.uleb128 0x4d
 6765 6849 04       		.byte	0x4
 6766 684a BE670000 		.long	0x67be
 6767 684e 4F       		.uleb128 0x4f
 6768 684f 70757477 		.ascii "putwc\0"
 6768      6300
 6769 6855 1B       		.byte	0x1b
 6770 6856 7F       		.byte	0x7f
 6771 6857 33640000 		.long	0x6433
 6772 685b 6A680000 		.long	0x686a
 6773 685f 09       		.uleb128 0x9
 6774 6860 33640000 		.long	0x6433
 6775 6864 09       		.uleb128 0x9
 6776 6865 A5660000 		.long	0x66a5
 6777 6869 00       		.byte	0
 6778 686a 4F       		.uleb128 0x4f
 6779 686b 70757477 		.ascii "putwchar\0"
 6779      63686172 
 6779      00
 6780 6874 1B       		.byte	0x1b
 6781 6875 80       		.byte	0x80
 6782 6876 33640000 		.long	0x6433
 6783 687a 84680000 		.long	0x6884
 6784 687e 09       		.uleb128 0x9
 6785 687f 33640000 		.long	0x6433
 6786 6883 00       		.byte	0
 6787 6884 4F       		.uleb128 0x4f
 6788 6885 73777363 		.ascii "swscanf\0"
 6788      616E6600 
 6789 688d 1B       		.byte	0x1b
 6790 688e 6F       		.byte	0x6f
 6791 688f A4640000 		.long	0x64a4
 6792 6893 A3680000 		.long	0x68a3
 6793 6897 09       		.uleb128 0x9
 6794 6898 0D670000 		.long	0x670d
 6795 689c 09       		.uleb128 0x9
 6796 689d 0D670000 		.long	0x670d
 6797 68a1 50       		.uleb128 0x50
 6798 68a2 00       		.byte	0
 6799 68a3 4F       		.uleb128 0x4f
 6800 68a4 756E6765 		.ascii "ungetwc\0"
 6800      74776300 
 6801 68ac 1B       		.byte	0x1b
 6802 68ad 72       		.byte	0x72
 6803 68ae 33640000 		.long	0x6433
 6804 68b2 C1680000 		.long	0x68c1
 6805 68b6 09       		.uleb128 0x9
GAS LISTING C:\Users\USER\AppData\Local\Temp\ccFSuTGK.s 			page 153


 6806 68b7 88640000 		.long	0x6488
 6807 68bb 09       		.uleb128 0x9
 6808 68bc A5660000 		.long	0x66a5
 6809 68c0 00       		.byte	0
 6810 68c1 4F       		.uleb128 0x4f
 6811 68c2 76667770 		.ascii "vfwprintf\0"
 6811      72696E74 
 6811      6600
 6812 68cc 1B       		.byte	0x1b
 6813 68cd 6A       		.byte	0x6a
 6814 68ce A4640000 		.long	0x64a4
 6815 68d2 E6680000 		.long	0x68e6
 6816 68d6 09       		.uleb128 0x9
 6817 68d7 A5660000 		.long	0x66a5
 6818 68db 09       		.uleb128 0x9
 6819 68dc 0D670000 		.long	0x670d
 6820 68e0 09       		.uleb128 0x9
 6821 68e1 58640000 		.long	0x6458
 6822 68e5 00       		.byte	0
 6823 68e6 4F       		.uleb128 0x4f
 6824 68e7 76667773 		.ascii "vfwscanf\0"
 6824      63616E66 
 6824      00
 6825 68f0 1B       		.byte	0x1b
 6826 68f1 9A       		.byte	0x9a
 6827 68f2 A4640000 		.long	0x64a4
 6828 68f6 0A690000 		.long	0x690a
 6829 68fa 09       		.uleb128 0x9
 6830 68fb A5660000 		.long	0x66a5
 6831 68ff 09       		.uleb128 0x9
 6832 6900 0D670000 		.long	0x670d
 6833 6904 09       		.uleb128 0x9
 6834 6905 58640000 		.long	0x6458
 6835 6909 00       		.byte	0
 6836 690a 4F       		.uleb128 0x4f
 6837 690b 76737773 		.ascii "vswscanf\0"
 6837      63616E66 
 6837      00
 6838 6914 1B       		.byte	0x1b
 6839 6915 9C       		.byte	0x9c
 6840 6916 A4640000 		.long	0x64a4
 6841 691a 2E690000 		.long	0x692e
 6842 691e 09       		.uleb128 0x9
 6843 691f 0D670000 		.long	0x670d
 6844 6923 09       		.uleb128 0x9
 6845 6924 0D670000 		.long	0x670d
 6846 6928 09       		.uleb128 0x9
 6847 6929 58640000 		.long	0x6458
 6848 692d 00       		.byte	0
 6849 692e 4F       		.uleb128 0x4f
 6850 692f 76777072 		.ascii "vwprintf\0"
 6850      696E7466 
 6850      00
 6851 6938 1B       		.byte	0x1b
 6852 6939 6B       		.byte	0x6b
 6853 693a A4640000 		.long	0x64a4
 6854 693e 4D690000 		.long	0x694d
GAS LISTING C:\Users\USER\AppData\Local\Temp\ccFSuTGK.s 			page 154


 6855 6942 09       		.uleb128 0x9
 6856 6943 0D670000 		.long	0x670d
 6857 6947 09       		.uleb128 0x9
 6858 6948 58640000 		.long	0x6458
 6859 694c 00       		.byte	0
 6860 694d 4F       		.uleb128 0x4f
 6861 694e 76777363 		.ascii "vwscanf\0"
 6861      616E6600 
 6862 6956 1B       		.byte	0x1b
 6863 6957 99       		.byte	0x99
 6864 6958 A4640000 		.long	0x64a4
 6865 695c 6B690000 		.long	0x696b
 6866 6960 09       		.uleb128 0x9
 6867 6961 0D670000 		.long	0x670d
 6868 6965 09       		.uleb128 0x9
 6869 6966 58640000 		.long	0x6458
 6870 696a 00       		.byte	0
 6871 696b 4E       		.uleb128 0x4e
 6872 696c 77637274 		.ascii "wcrtomb\0"
 6872      6F6D6200 
 6873 6974 1B       		.byte	0x1b
 6874 6975 3001     		.word	0x130
 6875 6977 15640000 		.long	0x6415
 6876 697b 8F690000 		.long	0x698f
 6877 697f 09       		.uleb128 0x9
 6878 6980 5C650000 		.long	0x655c
 6879 6984 09       		.uleb128 0x9
 6880 6985 88640000 		.long	0x6488
 6881 6989 09       		.uleb128 0x9
 6882 698a C9670000 		.long	0x67c9
 6883 698e 00       		.byte	0
 6884 698f 4F       		.uleb128 0x4f
 6885 6990 77637363 		.ascii "wcscat\0"
 6885      617400
 6886 6997 1B       		.byte	0x1b
 6887 6998 D9       		.byte	0xd9
 6888 6999 CD660000 		.long	0x66cd
 6889 699d AC690000 		.long	0x69ac
 6890 69a1 09       		.uleb128 0x9
 6891 69a2 CD660000 		.long	0x66cd
 6892 69a6 09       		.uleb128 0x9
 6893 69a7 0D670000 		.long	0x670d
 6894 69ab 00       		.byte	0
 6895 69ac 4F       		.uleb128 0x4f
 6896 69ad 77637363 		.ascii "wcscmp\0"
 6896      6D7000
 6897 69b4 1B       		.byte	0x1b
 6898 69b5 DB       		.byte	0xdb
 6899 69b6 A4640000 		.long	0x64a4
 6900 69ba C9690000 		.long	0x69c9
 6901 69be 09       		.uleb128 0x9
 6902 69bf 0D670000 		.long	0x670d
 6903 69c3 09       		.uleb128 0x9
 6904 69c4 0D670000 		.long	0x670d
 6905 69c8 00       		.byte	0
 6906 69c9 4F       		.uleb128 0x4f
 6907 69ca 77637363 		.ascii "wcscoll\0"
GAS LISTING C:\Users\USER\AppData\Local\Temp\ccFSuTGK.s 			page 155


 6907      6F6C6C00 
 6908 69d2 1B       		.byte	0x1b
 6909 69d3 DC       		.byte	0xdc
 6910 69d4 A4640000 		.long	0x64a4
 6911 69d8 E7690000 		.long	0x69e7
 6912 69dc 09       		.uleb128 0x9
 6913 69dd 0D670000 		.long	0x670d
 6914 69e1 09       		.uleb128 0x9
 6915 69e2 0D670000 		.long	0x670d
 6916 69e6 00       		.byte	0
 6917 69e7 4F       		.uleb128 0x4f
 6918 69e8 77637363 		.ascii "wcscpy\0"
 6918      707900
 6919 69ef 1B       		.byte	0x1b
 6920 69f0 DD       		.byte	0xdd
 6921 69f1 CD660000 		.long	0x66cd
 6922 69f5 046A0000 		.long	0x6a04
 6923 69f9 09       		.uleb128 0x9
 6924 69fa CD660000 		.long	0x66cd
 6925 69fe 09       		.uleb128 0x9
 6926 69ff 0D670000 		.long	0x670d
 6927 6a03 00       		.byte	0
 6928 6a04 4F       		.uleb128 0x4f
 6929 6a05 77637363 		.ascii "wcscspn\0"
 6929      73706E00 
 6930 6a0d 1B       		.byte	0x1b
 6931 6a0e DE       		.byte	0xde
 6932 6a0f 15640000 		.long	0x6415
 6933 6a13 226A0000 		.long	0x6a22
 6934 6a17 09       		.uleb128 0x9
 6935 6a18 0D670000 		.long	0x670d
 6936 6a1c 09       		.uleb128 0x9
 6937 6a1d 0D670000 		.long	0x670d
 6938 6a21 00       		.byte	0
 6939 6a22 4F       		.uleb128 0x4f
 6940 6a23 77637366 		.ascii "wcsftime\0"
 6940      74696D65 
 6940      00
 6941 6a2c 1B       		.byte	0x1b
 6942 6a2d CF       		.byte	0xcf
 6943 6a2e 15640000 		.long	0x6415
 6944 6a32 4B6A0000 		.long	0x6a4b
 6945 6a36 09       		.uleb128 0x9
 6946 6a37 CD660000 		.long	0x66cd
 6947 6a3b 09       		.uleb128 0x9
 6948 6a3c 15640000 		.long	0x6415
 6949 6a40 09       		.uleb128 0x9
 6950 6a41 0D670000 		.long	0x670d
 6951 6a45 09       		.uleb128 0x9
 6952 6a46 4B6A0000 		.long	0x6a4b
 6953 6a4a 00       		.byte	0
 6954 6a4b 4D       		.uleb128 0x4d
 6955 6a4c 04       		.byte	0x4
 6956 6a4d 516A0000 		.long	0x6a51
 6957 6a51 0E       		.uleb128 0xe
 6958 6a52 6E650000 		.long	0x656e
 6959 6a56 4F       		.uleb128 0x4f
GAS LISTING C:\Users\USER\AppData\Local\Temp\ccFSuTGK.s 			page 156


 6960 6a57 7763736C 		.ascii "wcslen\0"
 6960      656E00
 6961 6a5e 1B       		.byte	0x1b
 6962 6a5f E0       		.byte	0xe0
 6963 6a60 15640000 		.long	0x6415
 6964 6a64 6E6A0000 		.long	0x6a6e
 6965 6a68 09       		.uleb128 0x9
 6966 6a69 0D670000 		.long	0x670d
 6967 6a6d 00       		.byte	0
 6968 6a6e 4F       		.uleb128 0x4f
 6969 6a6f 7763736E 		.ascii "wcsncat\0"
 6969      63617400 
 6970 6a77 1B       		.byte	0x1b
 6971 6a78 E1       		.byte	0xe1
 6972 6a79 CD660000 		.long	0x66cd
 6973 6a7d 916A0000 		.long	0x6a91
 6974 6a81 09       		.uleb128 0x9
 6975 6a82 CD660000 		.long	0x66cd
 6976 6a86 09       		.uleb128 0x9
 6977 6a87 0D670000 		.long	0x670d
 6978 6a8b 09       		.uleb128 0x9
 6979 6a8c 15640000 		.long	0x6415
 6980 6a90 00       		.byte	0
 6981 6a91 4F       		.uleb128 0x4f
 6982 6a92 7763736E 		.ascii "wcsncmp\0"
 6982      636D7000 
 6983 6a9a 1B       		.byte	0x1b
 6984 6a9b E2       		.byte	0xe2
 6985 6a9c A4640000 		.long	0x64a4
 6986 6aa0 B46A0000 		.long	0x6ab4
 6987 6aa4 09       		.uleb128 0x9
 6988 6aa5 0D670000 		.long	0x670d
 6989 6aa9 09       		.uleb128 0x9
 6990 6aaa 0D670000 		.long	0x670d
 6991 6aae 09       		.uleb128 0x9
 6992 6aaf 15640000 		.long	0x6415
 6993 6ab3 00       		.byte	0
 6994 6ab4 4F       		.uleb128 0x4f
 6995 6ab5 7763736E 		.ascii "wcsncpy\0"
 6995      63707900 
 6996 6abd 1B       		.byte	0x1b
 6997 6abe E3       		.byte	0xe3
 6998 6abf CD660000 		.long	0x66cd
 6999 6ac3 D76A0000 		.long	0x6ad7
 7000 6ac7 09       		.uleb128 0x9
 7001 6ac8 CD660000 		.long	0x66cd
 7002 6acc 09       		.uleb128 0x9
 7003 6acd 0D670000 		.long	0x670d
 7004 6ad1 09       		.uleb128 0x9
 7005 6ad2 15640000 		.long	0x6415
 7006 6ad6 00       		.byte	0
 7007 6ad7 4E       		.uleb128 0x4e
 7008 6ad8 77637372 		.ascii "wcsrtombs\0"
 7008      746F6D62 
 7008      7300
 7009 6ae2 1B       		.byte	0x1b
 7010 6ae3 3201     		.word	0x132
GAS LISTING C:\Users\USER\AppData\Local\Temp\ccFSuTGK.s 			page 157


 7011 6ae5 15640000 		.long	0x6415
 7012 6ae9 026B0000 		.long	0x6b02
 7013 6aed 09       		.uleb128 0x9
 7014 6aee 5C650000 		.long	0x655c
 7015 6af2 09       		.uleb128 0x9
 7016 6af3 026B0000 		.long	0x6b02
 7017 6af7 09       		.uleb128 0x9
 7018 6af8 15640000 		.long	0x6415
 7019 6afc 09       		.uleb128 0x9
 7020 6afd C9670000 		.long	0x67c9
 7021 6b01 00       		.byte	0
 7022 6b02 4D       		.uleb128 0x4d
 7023 6b03 04       		.byte	0x4
 7024 6b04 0D670000 		.long	0x670d
 7025 6b08 4F       		.uleb128 0x4f
 7026 6b09 77637373 		.ascii "wcsspn\0"
 7026      706E00
 7027 6b10 1B       		.byte	0x1b
 7028 6b11 E6       		.byte	0xe6
 7029 6b12 15640000 		.long	0x6415
 7030 6b16 256B0000 		.long	0x6b25
 7031 6b1a 09       		.uleb128 0x9
 7032 6b1b 0D670000 		.long	0x670d
 7033 6b1f 09       		.uleb128 0x9
 7034 6b20 0D670000 		.long	0x670d
 7035 6b24 00       		.byte	0
 7036 6b25 4F       		.uleb128 0x4f
 7037 6b26 77637374 		.ascii "wcstod\0"
 7037      6F6400
 7038 6b2d 1B       		.byte	0x1b
 7039 6b2e A6       		.byte	0xa6
 7040 6b2f 426B0000 		.long	0x6b42
 7041 6b33 426B0000 		.long	0x6b42
 7042 6b37 09       		.uleb128 0x9
 7043 6b38 0D670000 		.long	0x670d
 7044 6b3c 09       		.uleb128 0x9
 7045 6b3d 4C6B0000 		.long	0x6b4c
 7046 6b41 00       		.byte	0
 7047 6b42 4A       		.uleb128 0x4a
 7048 6b43 08       		.byte	0x8
 7049 6b44 04       		.byte	0x4
 7050 6b45 646F7562 		.ascii "double\0"
 7050      6C6500
 7051 6b4c 4D       		.uleb128 0x4d
 7052 6b4d 04       		.byte	0x4
 7053 6b4e CD660000 		.long	0x66cd
 7054 6b52 4F       		.uleb128 0x4f
 7055 6b53 77637374 		.ascii "wcstof\0"
 7055      6F6600
 7056 6b5a 1B       		.byte	0x1b
 7057 6b5b A8       		.byte	0xa8
 7058 6b5c 6F6B0000 		.long	0x6b6f
 7059 6b60 6F6B0000 		.long	0x6b6f
 7060 6b64 09       		.uleb128 0x9
 7061 6b65 0D670000 		.long	0x670d
 7062 6b69 09       		.uleb128 0x9
 7063 6b6a 4C6B0000 		.long	0x6b4c
GAS LISTING C:\Users\USER\AppData\Local\Temp\ccFSuTGK.s 			page 158


 7064 6b6e 00       		.byte	0
 7065 6b6f 4A       		.uleb128 0x4a
 7066 6b70 04       		.byte	0x4
 7067 6b71 04       		.byte	0x4
 7068 6b72 666C6F61 		.ascii "float\0"
 7068      7400
 7069 6b78 4F       		.uleb128 0x4f
 7070 6b79 77637374 		.ascii "wcstok\0"
 7070      6F6B00
 7071 6b80 1B       		.byte	0x1b
 7072 6b81 E8       		.byte	0xe8
 7073 6b82 CD660000 		.long	0x66cd
 7074 6b86 956B0000 		.long	0x6b95
 7075 6b8a 09       		.uleb128 0x9
 7076 6b8b CD660000 		.long	0x66cd
 7077 6b8f 09       		.uleb128 0x9
 7078 6b90 0D670000 		.long	0x670d
 7079 6b94 00       		.byte	0
 7080 6b95 4F       		.uleb128 0x4f
 7081 6b96 77637374 		.ascii "wcstol\0"
 7081      6F6C00
 7082 6b9d 1B       		.byte	0x1b
 7083 6b9e A4       		.byte	0xa4
 7084 6b9f AB640000 		.long	0x64ab
 7085 6ba3 B76B0000 		.long	0x6bb7
 7086 6ba7 09       		.uleb128 0x9
 7087 6ba8 0D670000 		.long	0x670d
 7088 6bac 09       		.uleb128 0x9
 7089 6bad 4C6B0000 		.long	0x6b4c
 7090 6bb1 09       		.uleb128 0x9
 7091 6bb2 A4640000 		.long	0x64a4
 7092 6bb6 00       		.byte	0
 7093 6bb7 4F       		.uleb128 0x4f
 7094 6bb8 77637374 		.ascii "wcstoul\0"
 7094      6F756C00 
 7095 6bc0 1B       		.byte	0x1b
 7096 6bc1 A5       		.byte	0xa5
 7097 6bc2 1A660000 		.long	0x661a
 7098 6bc6 DA6B0000 		.long	0x6bda
 7099 6bca 09       		.uleb128 0x9
 7100 6bcb 0D670000 		.long	0x670d
 7101 6bcf 09       		.uleb128 0x9
 7102 6bd0 4C6B0000 		.long	0x6b4c
 7103 6bd4 09       		.uleb128 0x9
 7104 6bd5 A4640000 		.long	0x64a4
 7105 6bd9 00       		.byte	0
 7106 6bda 4F       		.uleb128 0x4f
 7107 6bdb 77637378 		.ascii "wcsxfrm\0"
 7107      66726D00 
 7108 6be3 1B       		.byte	0x1b
 7109 6be4 E9       		.byte	0xe9
 7110 6be5 15640000 		.long	0x6415
 7111 6be9 FD6B0000 		.long	0x6bfd
 7112 6bed 09       		.uleb128 0x9
 7113 6bee CD660000 		.long	0x66cd
 7114 6bf2 09       		.uleb128 0x9
 7115 6bf3 0D670000 		.long	0x670d
GAS LISTING C:\Users\USER\AppData\Local\Temp\ccFSuTGK.s 			page 159


 7116 6bf7 09       		.uleb128 0x9
 7117 6bf8 15640000 		.long	0x6415
 7118 6bfc 00       		.byte	0
 7119 6bfd 4E       		.uleb128 0x4e
 7120 6bfe 7763746F 		.ascii "wctob\0"
 7120      6200
 7121 6c04 1B       		.byte	0x1b
 7122 6c05 3401     		.word	0x134
 7123 6c07 A4640000 		.long	0x64a4
 7124 6c0b 156C0000 		.long	0x6c15
 7125 6c0f 09       		.uleb128 0x9
 7126 6c10 33640000 		.long	0x6433
 7127 6c14 00       		.byte	0
 7128 6c15 4E       		.uleb128 0x4e
 7129 6c16 776D656D 		.ascii "wmemcmp\0"
 7129      636D7000 
 7130 6c1e 1B       		.byte	0x1b
 7131 6c1f 4201     		.word	0x142
 7132 6c21 A4640000 		.long	0x64a4
 7133 6c25 396C0000 		.long	0x6c39
 7134 6c29 09       		.uleb128 0x9
 7135 6c2a 0D670000 		.long	0x670d
 7136 6c2e 09       		.uleb128 0x9
 7137 6c2f 0D670000 		.long	0x670d
 7138 6c33 09       		.uleb128 0x9
 7139 6c34 15640000 		.long	0x6415
 7140 6c38 00       		.byte	0
 7141 6c39 4E       		.uleb128 0x4e
 7142 6c3a 776D656D 		.ascii "wmemcpy\0"
 7142      63707900 
 7143 6c42 1B       		.byte	0x1b
 7144 6c43 4301     		.word	0x143
 7145 6c45 CD660000 		.long	0x66cd
 7146 6c49 5D6C0000 		.long	0x6c5d
 7147 6c4d 09       		.uleb128 0x9
 7148 6c4e CD660000 		.long	0x66cd
 7149 6c52 09       		.uleb128 0x9
 7150 6c53 0D670000 		.long	0x670d
 7151 6c57 09       		.uleb128 0x9
 7152 6c58 15640000 		.long	0x6415
 7153 6c5c 00       		.byte	0
 7154 6c5d 4E       		.uleb128 0x4e
 7155 6c5e 776D656D 		.ascii "wmemmove\0"
 7155      6D6F7665 
 7155      00
 7156 6c67 1B       		.byte	0x1b
 7157 6c68 4601     		.word	0x146
 7158 6c6a CD660000 		.long	0x66cd
 7159 6c6e 826C0000 		.long	0x6c82
 7160 6c72 09       		.uleb128 0x9
 7161 6c73 CD660000 		.long	0x66cd
 7162 6c77 09       		.uleb128 0x9
 7163 6c78 0D670000 		.long	0x670d
 7164 6c7c 09       		.uleb128 0x9
 7165 6c7d 15640000 		.long	0x6415
 7166 6c81 00       		.byte	0
 7167 6c82 4E       		.uleb128 0x4e
GAS LISTING C:\Users\USER\AppData\Local\Temp\ccFSuTGK.s 			page 160


 7168 6c83 776D656D 		.ascii "wmemset\0"
 7168      73657400 
 7169 6c8b 1B       		.byte	0x1b
 7170 6c8c 4001     		.word	0x140
 7171 6c8e CD660000 		.long	0x66cd
 7172 6c92 A66C0000 		.long	0x6ca6
 7173 6c96 09       		.uleb128 0x9
 7174 6c97 CD660000 		.long	0x66cd
 7175 6c9b 09       		.uleb128 0x9
 7176 6c9c 88640000 		.long	0x6488
 7177 6ca0 09       		.uleb128 0x9
 7178 6ca1 15640000 		.long	0x6415
 7179 6ca5 00       		.byte	0
 7180 6ca6 4F       		.uleb128 0x4f
 7181 6ca7 77707269 		.ascii "wprintf\0"
 7181      6E746600 
 7182 6caf 1B       		.byte	0x1b
 7183 6cb0 68       		.byte	0x68
 7184 6cb1 A4640000 		.long	0x64a4
 7185 6cb5 C06C0000 		.long	0x6cc0
 7186 6cb9 09       		.uleb128 0x9
 7187 6cba 0D670000 		.long	0x670d
 7188 6cbe 50       		.uleb128 0x50
 7189 6cbf 00       		.byte	0
 7190 6cc0 4F       		.uleb128 0x4f
 7191 6cc1 77736361 		.ascii "wscanf\0"
 7191      6E6600
 7192 6cc8 1B       		.byte	0x1b
 7193 6cc9 6E       		.byte	0x6e
 7194 6cca A4640000 		.long	0x64a4
 7195 6cce D96C0000 		.long	0x6cd9
 7196 6cd2 09       		.uleb128 0x9
 7197 6cd3 0D670000 		.long	0x670d
 7198 6cd7 50       		.uleb128 0x50
 7199 6cd8 00       		.byte	0
 7200 6cd9 4F       		.uleb128 0x4f
 7201 6cda 77637363 		.ascii "wcschr\0"
 7201      687200
 7202 6ce1 1B       		.byte	0x1b
 7203 6ce2 DA       		.byte	0xda
 7204 6ce3 CD660000 		.long	0x66cd
 7205 6ce7 F66C0000 		.long	0x6cf6
 7206 6ceb 09       		.uleb128 0x9
 7207 6cec 0D670000 		.long	0x670d
 7208 6cf0 09       		.uleb128 0x9
 7209 6cf1 88640000 		.long	0x6488
 7210 6cf5 00       		.byte	0
 7211 6cf6 4F       		.uleb128 0x4f
 7212 6cf7 77637370 		.ascii "wcspbrk\0"
 7212      62726B00 
 7213 6cff 1B       		.byte	0x1b
 7214 6d00 E4       		.byte	0xe4
 7215 6d01 CD660000 		.long	0x66cd
 7216 6d05 146D0000 		.long	0x6d14
 7217 6d09 09       		.uleb128 0x9
 7218 6d0a 0D670000 		.long	0x670d
 7219 6d0e 09       		.uleb128 0x9
GAS LISTING C:\Users\USER\AppData\Local\Temp\ccFSuTGK.s 			page 161


 7220 6d0f 0D670000 		.long	0x670d
 7221 6d13 00       		.byte	0
 7222 6d14 4F       		.uleb128 0x4f
 7223 6d15 77637372 		.ascii "wcsrchr\0"
 7223      63687200 
 7224 6d1d 1B       		.byte	0x1b
 7225 6d1e E5       		.byte	0xe5
 7226 6d1f CD660000 		.long	0x66cd
 7227 6d23 326D0000 		.long	0x6d32
 7228 6d27 09       		.uleb128 0x9
 7229 6d28 0D670000 		.long	0x670d
 7230 6d2c 09       		.uleb128 0x9
 7231 6d2d 88640000 		.long	0x6488
 7232 6d31 00       		.byte	0
 7233 6d32 4F       		.uleb128 0x4f
 7234 6d33 77637373 		.ascii "wcsstr\0"
 7234      747200
 7235 6d3a 1B       		.byte	0x1b
 7236 6d3b E7       		.byte	0xe7
 7237 6d3c CD660000 		.long	0x66cd
 7238 6d40 4F6D0000 		.long	0x6d4f
 7239 6d44 09       		.uleb128 0x9
 7240 6d45 0D670000 		.long	0x670d
 7241 6d49 09       		.uleb128 0x9
 7242 6d4a 0D670000 		.long	0x670d
 7243 6d4e 00       		.byte	0
 7244 6d4f 4E       		.uleb128 0x4e
 7245 6d50 776D656D 		.ascii "wmemchr\0"
 7245      63687200 
 7246 6d58 1B       		.byte	0x1b
 7247 6d59 4101     		.word	0x141
 7248 6d5b CD660000 		.long	0x66cd
 7249 6d5f 736D0000 		.long	0x6d73
 7250 6d63 09       		.uleb128 0x9
 7251 6d64 0D670000 		.long	0x670d
 7252 6d68 09       		.uleb128 0x9
 7253 6d69 88640000 		.long	0x6488
 7254 6d6d 09       		.uleb128 0x9
 7255 6d6e 15640000 		.long	0x6415
 7256 6d72 00       		.byte	0
 7257 6d73 4F       		.uleb128 0x4f
 7258 6d74 77637374 		.ascii "wcstold\0"
 7258      6F6C6400 
 7259 6d7c 1B       		.byte	0x1b
 7260 6d7d A9       		.byte	0xa9
 7261 6d7e 916D0000 		.long	0x6d91
 7262 6d82 916D0000 		.long	0x6d91
 7263 6d86 09       		.uleb128 0x9
 7264 6d87 0D670000 		.long	0x670d
 7265 6d8b 09       		.uleb128 0x9
 7266 6d8c 4C6B0000 		.long	0x6b4c
 7267 6d90 00       		.byte	0
 7268 6d91 4A       		.uleb128 0x4a
 7269 6d92 0C       		.byte	0xc
 7270 6d93 04       		.byte	0x4
 7271 6d94 6C6F6E67 		.ascii "long double\0"
 7271      20646F75 
GAS LISTING C:\Users\USER\AppData\Local\Temp\ccFSuTGK.s 			page 162


 7271      626C6500 
 7272 6da0 4E       		.uleb128 0x4e
 7273 6da1 77637374 		.ascii "wcstoll\0"
 7273      6F6C6C00 
 7274 6da9 1B       		.byte	0x1b
 7275 6daa 4701     		.word	0x147
 7276 6dac B7640000 		.long	0x64b7
 7277 6db0 C46D0000 		.long	0x6dc4
 7278 6db4 09       		.uleb128 0x9
 7279 6db5 0D670000 		.long	0x670d
 7280 6db9 09       		.uleb128 0x9
 7281 6dba 4C6B0000 		.long	0x6b4c
 7282 6dbe 09       		.uleb128 0x9
 7283 6dbf A4640000 		.long	0x64a4
 7284 6dc3 00       		.byte	0
 7285 6dc4 4E       		.uleb128 0x4e
 7286 6dc5 77637374 		.ascii "wcstoull\0"
 7286      6F756C6C 
 7286      00
 7287 6dce 1B       		.byte	0x1b
 7288 6dcf 4901     		.word	0x149
 7289 6dd1 5B660000 		.long	0x665b
 7290 6dd5 E96D0000 		.long	0x6de9
 7291 6dd9 09       		.uleb128 0x9
 7292 6dda 0D670000 		.long	0x670d
 7293 6dde 09       		.uleb128 0x9
 7294 6ddf 4C6B0000 		.long	0x6b4c
 7295 6de3 09       		.uleb128 0x9
 7296 6de4 A4640000 		.long	0x64a4
 7297 6de8 00       		.byte	0
 7298 6de9 02       		.uleb128 0x2
 7299 6dea 5F5F676E 		.ascii "__gnu_debug\0"
 7299      755F6465 
 7299      62756700 
 7300 6df6 13       		.byte	0x13
 7301 6df7 37       		.byte	0x37
 7302 6df8 046E0000 		.long	0x6e04
 7303 6dfc 23       		.uleb128 0x23
 7304 6dfd 13       		.byte	0x13
 7305 6dfe 38       		.byte	0x38
 7306 6dff 05400000 		.long	0x4005
 7307 6e03 00       		.byte	0
 7308 6e04 52       		.uleb128 0x52
 7309 6e05 04       		.byte	0x4
 7310 6e06 2A400000 		.long	0x402a
 7311 6e0a 52       		.uleb128 0x52
 7312 6e0b 04       		.byte	0x4
 7313 6e0c 84400000 		.long	0x4084
 7314 6e10 4A       		.uleb128 0x4a
 7315 6e11 01       		.byte	0x1
 7316 6e12 02       		.byte	0x2
 7317 6e13 626F6F6C 		.ascii "bool\0"
 7317      00
 7318 6e18 4D       		.uleb128 0x4d
 7319 6e19 04       		.byte	0x4
 7320 6e1a 84400000 		.long	0x4084
 7321 6e1e 4D       		.uleb128 0x4d
GAS LISTING C:\Users\USER\AppData\Local\Temp\ccFSuTGK.s 			page 163


 7322 6e1f 04       		.byte	0x4
 7323 6e20 2A400000 		.long	0x402a
 7324 6e24 52       		.uleb128 0x52
 7325 6e25 04       		.byte	0x4
 7326 6e26 CF420000 		.long	0x42cf
 7327 6e2a 27       		.uleb128 0x27
 7328 6e2b 6C636F6E 		.ascii "lconv\0"
 7328      7600
 7329 6e31 30       		.byte	0x30
 7330 6e32 1C       		.byte	0x1c
 7331 6e33 2D       		.byte	0x2d
 7332 6e34 C96F0000 		.long	0x6fc9
 7333 6e38 06       		.uleb128 0x6
 7334 6e39 64656369 		.ascii "decimal_point\0"
 7334      6D616C5F 
 7334      706F696E 
 7334      7400
 7335 6e47 1C       		.byte	0x1c
 7336 6e48 2F       		.byte	0x2f
 7337 6e49 5C650000 		.long	0x655c
 7338 6e4d 00       		.byte	0
 7339 6e4e 06       		.uleb128 0x6
 7340 6e4f 74686F75 		.ascii "thousands_sep\0"
 7340      73616E64 
 7340      735F7365 
 7340      7000
 7341 6e5d 1C       		.byte	0x1c
 7342 6e5e 30       		.byte	0x30
 7343 6e5f 5C650000 		.long	0x655c
 7344 6e63 04       		.byte	0x4
 7345 6e64 06       		.uleb128 0x6
 7346 6e65 67726F75 		.ascii "grouping\0"
 7346      70696E67 
 7346      00
 7347 6e6e 1C       		.byte	0x1c
 7348 6e6f 31       		.byte	0x31
 7349 6e70 5C650000 		.long	0x655c
 7350 6e74 08       		.byte	0x8
 7351 6e75 06       		.uleb128 0x6
 7352 6e76 696E745F 		.ascii "int_curr_symbol\0"
 7352      63757272 
 7352      5F73796D 
 7352      626F6C00 
 7353 6e86 1C       		.byte	0x1c
 7354 6e87 32       		.byte	0x32
 7355 6e88 5C650000 		.long	0x655c
 7356 6e8c 0C       		.byte	0xc
 7357 6e8d 06       		.uleb128 0x6
 7358 6e8e 63757272 		.ascii "currency_symbol\0"
 7358      656E6379 
 7358      5F73796D 
 7358      626F6C00 
 7359 6e9e 1C       		.byte	0x1c
 7360 6e9f 33       		.byte	0x33
 7361 6ea0 5C650000 		.long	0x655c
 7362 6ea4 10       		.byte	0x10
 7363 6ea5 06       		.uleb128 0x6
GAS LISTING C:\Users\USER\AppData\Local\Temp\ccFSuTGK.s 			page 164


 7364 6ea6 6D6F6E5F 		.ascii "mon_decimal_point\0"
 7364      64656369 
 7364      6D616C5F 
 7364      706F696E 
 7364      7400
 7365 6eb8 1C       		.byte	0x1c
 7366 6eb9 34       		.byte	0x34
 7367 6eba 5C650000 		.long	0x655c
 7368 6ebe 14       		.byte	0x14
 7369 6ebf 06       		.uleb128 0x6
 7370 6ec0 6D6F6E5F 		.ascii "mon_thousands_sep\0"
 7370      74686F75 
 7370      73616E64 
 7370      735F7365 
 7370      7000
 7371 6ed2 1C       		.byte	0x1c
 7372 6ed3 35       		.byte	0x35
 7373 6ed4 5C650000 		.long	0x655c
 7374 6ed8 18       		.byte	0x18
 7375 6ed9 06       		.uleb128 0x6
 7376 6eda 6D6F6E5F 		.ascii "mon_grouping\0"
 7376      67726F75 
 7376      70696E67 
 7376      00
 7377 6ee7 1C       		.byte	0x1c
 7378 6ee8 36       		.byte	0x36
 7379 6ee9 5C650000 		.long	0x655c
 7380 6eed 1C       		.byte	0x1c
 7381 6eee 06       		.uleb128 0x6
 7382 6eef 706F7369 		.ascii "positive_sign\0"
 7382      74697665 
 7382      5F736967 
 7382      6E00
 7383 6efd 1C       		.byte	0x1c
 7384 6efe 37       		.byte	0x37
 7385 6eff 5C650000 		.long	0x655c
 7386 6f03 20       		.byte	0x20
 7387 6f04 06       		.uleb128 0x6
 7388 6f05 6E656761 		.ascii "negative_sign\0"
 7388      74697665 
 7388      5F736967 
 7388      6E00
 7389 6f13 1C       		.byte	0x1c
 7390 6f14 38       		.byte	0x38
 7391 6f15 5C650000 		.long	0x655c
 7392 6f19 24       		.byte	0x24
 7393 6f1a 06       		.uleb128 0x6
 7394 6f1b 696E745F 		.ascii "int_frac_digits\0"
 7394      66726163 
 7394      5F646967 
 7394      69747300 
 7395 6f2b 1C       		.byte	0x1c
 7396 6f2c 39       		.byte	0x39
 7397 6f2d 70640000 		.long	0x6470
 7398 6f31 28       		.byte	0x28
 7399 6f32 06       		.uleb128 0x6
 7400 6f33 66726163 		.ascii "frac_digits\0"
GAS LISTING C:\Users\USER\AppData\Local\Temp\ccFSuTGK.s 			page 165


 7400      5F646967 
 7400      69747300 
 7401 6f3f 1C       		.byte	0x1c
 7402 6f40 3A       		.byte	0x3a
 7403 6f41 70640000 		.long	0x6470
 7404 6f45 29       		.byte	0x29
 7405 6f46 06       		.uleb128 0x6
 7406 6f47 705F6373 		.ascii "p_cs_precedes\0"
 7406      5F707265 
 7406      63656465 
 7406      7300
 7407 6f55 1C       		.byte	0x1c
 7408 6f56 3B       		.byte	0x3b
 7409 6f57 70640000 		.long	0x6470
 7410 6f5b 2A       		.byte	0x2a
 7411 6f5c 06       		.uleb128 0x6
 7412 6f5d 705F7365 		.ascii "p_sep_by_space\0"
 7412      705F6279 
 7412      5F737061 
 7412      636500
 7413 6f6c 1C       		.byte	0x1c
 7414 6f6d 3C       		.byte	0x3c
 7415 6f6e 70640000 		.long	0x6470
 7416 6f72 2B       		.byte	0x2b
 7417 6f73 06       		.uleb128 0x6
 7418 6f74 6E5F6373 		.ascii "n_cs_precedes\0"
 7418      5F707265 
 7418      63656465 
 7418      7300
 7419 6f82 1C       		.byte	0x1c
 7420 6f83 3D       		.byte	0x3d
 7421 6f84 70640000 		.long	0x6470
 7422 6f88 2C       		.byte	0x2c
 7423 6f89 06       		.uleb128 0x6
 7424 6f8a 6E5F7365 		.ascii "n_sep_by_space\0"
 7424      705F6279 
 7424      5F737061 
 7424      636500
 7425 6f99 1C       		.byte	0x1c
 7426 6f9a 3E       		.byte	0x3e
 7427 6f9b 70640000 		.long	0x6470
 7428 6f9f 2D       		.byte	0x2d
 7429 6fa0 06       		.uleb128 0x6
 7430 6fa1 705F7369 		.ascii "p_sign_posn\0"
 7430      676E5F70 
 7430      6F736E00 
 7431 6fad 1C       		.byte	0x1c
 7432 6fae 3F       		.byte	0x3f
 7433 6faf 70640000 		.long	0x6470
 7434 6fb3 2E       		.byte	0x2e
 7435 6fb4 06       		.uleb128 0x6
 7436 6fb5 6E5F7369 		.ascii "n_sign_posn\0"
 7436      676E5F70 
 7436      6F736E00 
 7437 6fc1 1C       		.byte	0x1c
 7438 6fc2 40       		.byte	0x40
 7439 6fc3 70640000 		.long	0x6470
GAS LISTING C:\Users\USER\AppData\Local\Temp\ccFSuTGK.s 			page 166


 7440 6fc7 2F       		.byte	0x2f
 7441 6fc8 00       		.byte	0
 7442 6fc9 4F       		.uleb128 0x4f
 7443 6fca 7365746C 		.ascii "setlocale\0"
 7443      6F63616C 
 7443      6500
 7444 6fd4 1C       		.byte	0x1c
 7445 6fd5 47       		.byte	0x47
 7446 6fd6 5C650000 		.long	0x655c
 7447 6fda E96F0000 		.long	0x6fe9
 7448 6fde 09       		.uleb128 0x9
 7449 6fdf A4640000 		.long	0x64a4
 7450 6fe3 09       		.uleb128 0x9
 7451 6fe4 BE670000 		.long	0x67be
 7452 6fe8 00       		.byte	0
 7453 6fe9 51       		.uleb128 0x51
 7454 6fea 6C6F6361 		.ascii "localeconv\0"
 7454      6C65636F 
 7454      6E7600
 7455 6ff5 1C       		.byte	0x1c
 7456 6ff6 48       		.byte	0x48
 7457 6ff7 FB6F0000 		.long	0x6ffb
 7458 6ffb 4D       		.uleb128 0x4d
 7459 6ffc 04       		.byte	0x4
 7460 6ffd 2A6E0000 		.long	0x6e2a
 7461 7001 10       		.uleb128 0x10
 7462 7002 5F41746F 		.ascii "_Atomic_word\0"
 7462      6D69635F 
 7462      776F7264 
 7462      00
 7463 700f 1D       		.byte	0x1d
 7464 7010 20       		.byte	0x20
 7465 7011 A4640000 		.long	0x64a4
 7466 7015 4D       		.uleb128 0x4d
 7467 7016 04       		.byte	0x4
 7468 7017 1B700000 		.long	0x701b
 7469 701b 53       		.uleb128 0x53
 7470 701c 52       		.uleb128 0x52
 7471 701d 04       		.byte	0x4
 7472 701e 70640000 		.long	0x6470
 7473 7022 52       		.uleb128 0x52
 7474 7023 04       		.byte	0x4
 7475 7024 C4670000 		.long	0x67c4
 7476 7028 4D       		.uleb128 0x4d
 7477 7029 04       		.byte	0x4
 7478 702a A64D0000 		.long	0x4da6
 7479 702e 52       		.uleb128 0x52
 7480 702f 04       		.byte	0x4
 7481 7030 F6500000 		.long	0x50f6
 7482 7034 4D       		.uleb128 0x4d
 7483 7035 04       		.byte	0x4
 7484 7036 F6500000 		.long	0x50f6
 7485 703a 4D       		.uleb128 0x4d
 7486 703b 04       		.byte	0x4
 7487 703c FB430000 		.long	0x43fb
 7488 7040 52       		.uleb128 0x52
 7489 7041 04       		.byte	0x4
GAS LISTING C:\Users\USER\AppData\Local\Temp\ccFSuTGK.s 			page 167


 7490 7042 F5440000 		.long	0x44f5
 7491 7046 0E       		.uleb128 0xe
 7492 7047 A4640000 		.long	0x64a4
 7493 704b 0E       		.uleb128 0xe
 7494 704c 106E0000 		.long	0x6e10
 7495 7050 52       		.uleb128 0x52
 7496 7051 04       		.byte	0x4
 7497 7052 FB430000 		.long	0x43fb
 7498 7056 4D       		.uleb128 0x4d
 7499 7057 04       		.byte	0x4
 7500 7058 2C010000 		.long	0x12c
 7501 705c 54       		.uleb128 0x54
 7502 705d 70640000 		.long	0x6470
 7503 7061 6C700000 		.long	0x706c
 7504 7065 55       		.uleb128 0x55
 7505 7066 2F660000 		.long	0x662f
 7506 706a 0F       		.byte	0xf
 7507 706b 00       		.byte	0
 7508 706c 4D       		.uleb128 0x4d
 7509 706d 04       		.byte	0x4
 7510 706e E2000000 		.long	0xe2
 7511 7072 4D       		.uleb128 0x4d
 7512 7073 04       		.byte	0x4
 7513 7074 E43D0000 		.long	0x3de4
 7514 7078 52       		.uleb128 0x52
 7515 7079 04       		.byte	0x4
 7516 707a FB010000 		.long	0x1fb
 7517 707e 52       		.uleb128 0x52
 7518 707f 04       		.byte	0x4
 7519 7080 64020000 		.long	0x264
 7520 7084 52       		.uleb128 0x52
 7521 7085 04       		.byte	0x4
 7522 7086 13090000 		.long	0x913
 7523 708a 52       		.uleb128 0x52
 7524 708b 04       		.byte	0x4
 7525 708c E43D0000 		.long	0x3de4
 7526 7090 52       		.uleb128 0x52
 7527 7091 04       		.byte	0x4
 7528 7092 E2000000 		.long	0xe2
 7529 7096 0E       		.uleb128 0xe
 7530 7097 BE670000 		.long	0x67be
 7531 709b 0E       		.uleb128 0xe
 7532 709c 1A660000 		.long	0x661a
 7533 70a0 4D       		.uleb128 0x4d
 7534 70a1 04       		.byte	0x4
 7535 70a2 64480000 		.long	0x4864
 7536 70a6 4F       		.uleb128 0x4f
 7537 70a7 69737763 		.ascii "iswctype\0"
 7537      74797065 
 7537      00
 7538 70b0 1E       		.byte	0x1e
 7539 70b1 C4       		.byte	0xc4
 7540 70b2 A4640000 		.long	0x64a4
 7541 70b6 C5700000 		.long	0x70c5
 7542 70ba 09       		.uleb128 0x9
 7543 70bb 33640000 		.long	0x6433
 7544 70bf 09       		.uleb128 0x9
GAS LISTING C:\Users\USER\AppData\Local\Temp\ccFSuTGK.s 			page 168


 7545 70c0 78640000 		.long	0x6478
 7546 70c4 00       		.byte	0
 7547 70c5 4F       		.uleb128 0x4f
 7548 70c6 746F7763 		.ascii "towctrans\0"
 7548      7472616E 
 7548      7300
 7549 70d0 1A       		.byte	0x1a
 7550 70d1 9D       		.byte	0x9d
 7551 70d2 33640000 		.long	0x6433
 7552 70d6 E5700000 		.long	0x70e5
 7553 70da 09       		.uleb128 0x9
 7554 70db 33640000 		.long	0x6433
 7555 70df 09       		.uleb128 0x9
 7556 70e0 93640000 		.long	0x6493
 7557 70e4 00       		.byte	0
 7558 70e5 4F       		.uleb128 0x4f
 7559 70e6 77637472 		.ascii "wctrans\0"
 7559      616E7300 
 7560 70ee 1A       		.byte	0x1a
 7561 70ef 9E       		.byte	0x9e
 7562 70f0 93640000 		.long	0x6493
 7563 70f4 FE700000 		.long	0x70fe
 7564 70f8 09       		.uleb128 0x9
 7565 70f9 BE670000 		.long	0x67be
 7566 70fd 00       		.byte	0
 7567 70fe 4F       		.uleb128 0x4f
 7568 70ff 77637479 		.ascii "wctype\0"
 7568      706500
 7569 7106 1A       		.byte	0x1a
 7570 7107 9F       		.byte	0x9f
 7571 7108 78640000 		.long	0x6478
 7572 710c 16710000 		.long	0x7116
 7573 7110 09       		.uleb128 0x9
 7574 7111 BE670000 		.long	0x67be
 7575 7115 00       		.byte	0
 7576 7116 0E       		.uleb128 0xe
 7577 7117 C8640000 		.long	0x64c8
 7578 711b 23       		.uleb128 0x23
 7579 711c 02       		.byte	0x2
 7580 711d 05       		.byte	0x5
 7581 711e C8000000 		.long	0xc8
 7582 7122 23       		.uleb128 0x23
 7583 7123 04       		.byte	0x4
 7584 7124 08       		.byte	0x8
 7585 7125 C8000000 		.long	0xc8
 7586 7129 4D       		.uleb128 0x4d
 7587 712a 04       		.byte	0x4
 7588 712b 535B0000 		.long	0x5b53
 7589 712f 52       		.uleb128 0x52
 7590 7130 04       		.byte	0x4
 7591 7131 96700000 		.long	0x7096
 7592 7135 4D       		.uleb128 0x4d
 7593 7136 04       		.byte	0x4
 7594 7137 0A640000 		.long	0x640a
 7595 713b 52       		.uleb128 0x52
 7596 713c 04       		.byte	0x4
 7597 713d 535B0000 		.long	0x5b53
GAS LISTING C:\Users\USER\AppData\Local\Temp\ccFSuTGK.s 			page 169


 7598 7141 4D       		.uleb128 0x4d
 7599 7142 04       		.byte	0x4
 7600 7143 D9530000 		.long	0x53d9
 7601 7147 52       		.uleb128 0x52
 7602 7148 04       		.byte	0x4
 7603 7149 4D710000 		.long	0x714d
 7604 714d 0E       		.uleb128 0xe
 7605 714e 5C650000 		.long	0x655c
 7606 7152 4D       		.uleb128 0x4d
 7607 7153 04       		.byte	0x4
 7608 7154 0F640000 		.long	0x640f
 7609 7158 52       		.uleb128 0x52
 7610 7159 04       		.byte	0x4
 7611 715a D9530000 		.long	0x53d9
 7612 715e 56       		.uleb128 0x56
 7613 715f F9000000 		.secrel32	LASF50
 7614 7163 10       		.byte	0x10
 7615 7164 04       		.byte	0x4
 7616 7165 09       		.byte	0x9
 7617 7166 5E710000 		.long	0x715e
 7618 716a C1760000 		.long	0x76c1
 7619 716e 57       		.uleb128 0x57
 7620 716f 5F767074 		.ascii "_vptr.Fecha\0"
 7620      722E4665 
 7620      63686100 
 7621 717b CC760000 		.long	0x76cc
 7622 717f 00       		.byte	0
 7623 7180 01       		.byte	0x1
 7624 7181 06       		.uleb128 0x6
 7625 7182 64696100 		.ascii "dia\0"
 7626 7186 04       		.byte	0x4
 7627 7187 3B       		.byte	0x3b
 7628 7188 A4640000 		.long	0x64a4
 7629 718c 04       		.byte	0x4
 7630 718d 06       		.uleb128 0x6
 7631 718e 6D657300 		.ascii "mes\0"
 7632 7192 04       		.byte	0x4
 7633 7193 3C       		.byte	0x3c
 7634 7194 A4640000 		.long	0x64a4
 7635 7198 08       		.byte	0x8
 7636 7199 06       		.uleb128 0x6
 7637 719a 616E686F 		.ascii "anho\0"
 7637      00
 7638 719f 04       		.byte	0x4
 7639 71a0 3D       		.byte	0x3d
 7640 71a1 A4640000 		.long	0x64a4
 7641 71a5 0C       		.byte	0xc
 7642 71a6 58       		.uleb128 0x58
 7643 71a7 F9000000 		.secrel32	LASF50
 7644 71ab 5F5A4E35 		.ascii "_ZN5FechaC4ERKS_\0"
 7644      46656368 
 7644      61433445 
 7644      524B535F 
 7644      00
 7645 71bc 01       		.byte	0x1
 7646 71bd C5710000 		.long	0x71c5
 7647 71c1 D0710000 		.long	0x71d0
GAS LISTING C:\Users\USER\AppData\Local\Temp\ccFSuTGK.s 			page 170


 7648 71c5 08       		.uleb128 0x8
 7649 71c6 E8760000 		.long	0x76e8
 7650 71ca 09       		.uleb128 0x9
 7651 71cb EE760000 		.long	0x76ee
 7652 71cf 00       		.byte	0
 7653 71d0 2E       		.uleb128 0x2e
 7654 71d1 F9000000 		.secrel32	LASF50
 7655 71d5 03       		.byte	0x3
 7656 71d6 03       		.byte	0x3
 7657 71d7 5F5A4E35 		.ascii "_ZN5FechaC4Ev\0"
 7657      46656368 
 7657      61433445 
 7657      7600
 7658 71e5 01       		.byte	0x1
 7659 71e6 EE710000 		.long	0x71ee
 7660 71ea F4710000 		.long	0x71f4
 7661 71ee 08       		.uleb128 0x8
 7662 71ef E8760000 		.long	0x76e8
 7663 71f3 00       		.byte	0
 7664 71f4 2E       		.uleb128 0x2e
 7665 71f5 F9000000 		.secrel32	LASF50
 7666 71f9 03       		.byte	0x3
 7667 71fa 0A       		.byte	0xa
 7668 71fb 5F5A4E35 		.ascii "_ZN5FechaC4Eiii\0"
 7668      46656368 
 7668      61433445 
 7668      69696900 
 7669 720b 01       		.byte	0x1
 7670 720c 14720000 		.long	0x7214
 7671 7210 29720000 		.long	0x7229
 7672 7214 08       		.uleb128 0x8
 7673 7215 E8760000 		.long	0x76e8
 7674 7219 09       		.uleb128 0x9
 7675 721a A4640000 		.long	0x64a4
 7676 721e 09       		.uleb128 0x9
 7677 721f A4640000 		.long	0x64a4
 7678 7223 09       		.uleb128 0x9
 7679 7224 A4640000 		.long	0x64a4
 7680 7228 00       		.byte	0
 7681 7229 59       		.uleb128 0x59
 7682 722a 7E466563 		.ascii "~Fecha\0"
 7682      686100
 7683 7231 03       		.byte	0x3
 7684 7232 14       		.byte	0x14
 7685 7233 5F5A4E35 		.ascii "_ZN5FechaD4Ev\0"
 7685      46656368 
 7685      61443445 
 7685      7600
 7686 7241 01       		.byte	0x1
 7687 7242 5E710000 		.long	0x715e
 7688 7246 01       		.byte	0x1
 7689 7247 4F720000 		.long	0x724f
 7690 724b 5A720000 		.long	0x725a
 7691 724f 08       		.uleb128 0x8
 7692 7250 E8760000 		.long	0x76e8
 7693 7254 08       		.uleb128 0x8
 7694 7255 A4640000 		.long	0x64a4
GAS LISTING C:\Users\USER\AppData\Local\Temp\ccFSuTGK.s 			page 171


 7695 7259 00       		.byte	0
 7696 725a 42       		.uleb128 0x42
 7697 725b 67657444 		.ascii "getDia\0"
 7697      696100
 7698 7262 03       		.byte	0x3
 7699 7263 19       		.byte	0x19
 7700 7264 5F5A4E4B 		.ascii "_ZNK5Fecha6getDiaEv\0"
 7700      35466563 
 7700      68613667 
 7700      65744469 
 7700      61457600 
 7701 7278 A4640000 		.long	0x64a4
 7702 727c 01       		.byte	0x1
 7703 727d 85720000 		.long	0x7285
 7704 7281 8B720000 		.long	0x728b
 7705 7285 08       		.uleb128 0x8
 7706 7286 F9760000 		.long	0x76f9
 7707 728a 00       		.byte	0
 7708 728b 42       		.uleb128 0x42
 7709 728c 6765744D 		.ascii "getMes\0"
 7709      657300
 7710 7293 03       		.byte	0x3
 7711 7294 1E       		.byte	0x1e
 7712 7295 5F5A4E4B 		.ascii "_ZNK5Fecha6getMesEv\0"
 7712      35466563 
 7712      68613667 
 7712      65744D65 
 7712      73457600 
 7713 72a9 A4640000 		.long	0x64a4
 7714 72ad 01       		.byte	0x1
 7715 72ae B6720000 		.long	0x72b6
 7716 72b2 BC720000 		.long	0x72bc
 7717 72b6 08       		.uleb128 0x8
 7718 72b7 F9760000 		.long	0x76f9
 7719 72bb 00       		.byte	0
 7720 72bc 42       		.uleb128 0x42
 7721 72bd 67657441 		.ascii "getAnho\0"
 7721      6E686F00 
 7722 72c5 03       		.byte	0x3
 7723 72c6 23       		.byte	0x23
 7724 72c7 5F5A4E4B 		.ascii "_ZNK5Fecha7getAnhoEv\0"
 7724      35466563 
 7724      68613767 
 7724      6574416E 
 7724      686F4576 
 7725 72dc A4640000 		.long	0x64a4
 7726 72e0 01       		.byte	0x1
 7727 72e1 E9720000 		.long	0x72e9
 7728 72e5 EF720000 		.long	0x72ef
 7729 72e9 08       		.uleb128 0x8
 7730 72ea F9760000 		.long	0x76f9
 7731 72ee 00       		.byte	0
 7732 72ef 1F       		.uleb128 0x1f
 7733 72f0 65737461 		.ascii "establecerFecha\0"
 7733      626C6563 
 7733      65724665 
 7733      63686100 
GAS LISTING C:\Users\USER\AppData\Local\Temp\ccFSuTGK.s 			page 172


 7734 7300 03       		.byte	0x3
 7735 7301 28       		.byte	0x28
 7736 7302 5F5A4E35 		.ascii "_ZN5Fecha15establecerFechaEiii\0"
 7736      46656368 
 7736      61313565 
 7736      73746162 
 7736      6C656365 
 7737 7321 01       		.byte	0x1
 7738 7322 2A730000 		.long	0x732a
 7739 7326 3F730000 		.long	0x733f
 7740 732a 08       		.uleb128 0x8
 7741 732b E8760000 		.long	0x76e8
 7742 732f 09       		.uleb128 0x9
 7743 7330 A4640000 		.long	0x64a4
 7744 7334 09       		.uleb128 0x9
 7745 7335 A4640000 		.long	0x64a4
 7746 7339 09       		.uleb128 0x9
 7747 733a A4640000 		.long	0x64a4
 7748 733e 00       		.byte	0
 7749 733f 5A       		.uleb128 0x5a
 7750 7340 616E686F 		.ascii "anhoBisiesto\0"
 7750      42697369 
 7750      6573746F 
 7750      00
 7751 734d 03       		.byte	0x3
 7752 734e 32       		.byte	0x32
 7753 734f 5F5A4E35 		.ascii "_ZN5Fecha12anhoBisiestoEi\0"
 7753      46656368 
 7753      61313261 
 7753      6E686F42 
 7753      69736965 
 7754 7369 106E0000 		.long	0x6e10
 7755 736d 01       		.byte	0x1
 7756 736e 78730000 		.long	0x7378
 7757 7372 09       		.uleb128 0x9
 7758 7373 A4640000 		.long	0x64a4
 7759 7377 00       		.byte	0
 7760 7378 5A       		.uleb128 0x5a
 7761 7379 63616E74 		.ascii "cantidadDeDias\0"
 7761      69646164 
 7761      44654469 
 7761      617300
 7762 7388 03       		.byte	0x3
 7763 7389 36       		.byte	0x36
 7764 738a 5F5A4E35 		.ascii "_ZN5Fecha14cantidadDeDiasEii\0"
 7764      46656368 
 7764      61313463 
 7764      616E7469 
 7764      64616444 
 7765 73a7 A4640000 		.long	0x64a4
 7766 73ab 01       		.byte	0x1
 7767 73ac BB730000 		.long	0x73bb
 7768 73b0 09       		.uleb128 0x9
 7769 73b1 A4640000 		.long	0x64a4
 7770 73b5 09       		.uleb128 0x9
 7771 73b6 A4640000 		.long	0x64a4
 7772 73ba 00       		.byte	0
GAS LISTING C:\Users\USER\AppData\Local\Temp\ccFSuTGK.s 			page 173


 7773 73bb 5A       		.uleb128 0x5a
 7774 73bc 66656368 		.ascii "fechaValida\0"
 7774      6156616C 
 7774      69646100 
 7775 73c8 03       		.byte	0x3
 7776 73c9 44       		.byte	0x44
 7777 73ca 5F5A4E35 		.ascii "_ZN5Fecha11fechaValidaEiii\0"
 7777      46656368 
 7777      61313166 
 7777      65636861 
 7777      56616C69 
 7778 73e5 106E0000 		.long	0x6e10
 7779 73e9 01       		.byte	0x1
 7780 73ea FE730000 		.long	0x73fe
 7781 73ee 09       		.uleb128 0x9
 7782 73ef A4640000 		.long	0x64a4
 7783 73f3 09       		.uleb128 0x9
 7784 73f4 A4640000 		.long	0x64a4
 7785 73f8 09       		.uleb128 0x9
 7786 73f9 A4640000 		.long	0x64a4
 7787 73fd 00       		.byte	0
 7788 73fe 1F       		.uleb128 0x1f
 7789 73ff 61756D65 		.ascii "aumentarDias\0"
 7789      6E746172 
 7789      44696173 
 7789      00
 7790 740c 03       		.byte	0x3
 7791 740d 48       		.byte	0x48
 7792 740e 5F5A4E35 		.ascii "_ZN5Fecha12aumentarDiasEv\0"
 7792      46656368 
 7792      61313261 
 7792      756D656E 
 7792      74617244 
 7793 7428 01       		.byte	0x1
 7794 7429 31740000 		.long	0x7431
 7795 742d 37740000 		.long	0x7437
 7796 7431 08       		.uleb128 0x8
 7797 7432 E8760000 		.long	0x76e8
 7798 7436 00       		.byte	0
 7799 7437 1F       		.uleb128 0x1f
 7800 7438 6469736D 		.ascii "disminuirDias\0"
 7800      696E7569 
 7800      72446961 
 7800      7300
 7801 7446 03       		.byte	0x3
 7802 7447 55       		.byte	0x55
 7803 7448 5F5A4E35 		.ascii "_ZN5Fecha13disminuirDiasEv\0"
 7803      46656368 
 7803      61313364 
 7803      69736D69 
 7803      6E756972 
 7804 7463 01       		.byte	0x1
 7805 7464 6C740000 		.long	0x746c
 7806 7468 72740000 		.long	0x7472
 7807 746c 08       		.uleb128 0x8
 7808 746d E8760000 		.long	0x76e8
 7809 7471 00       		.byte	0
GAS LISTING C:\Users\USER\AppData\Local\Temp\ccFSuTGK.s 			page 174


 7810 7472 42       		.uleb128 0x42
 7811 7473 67657446 		.ascii "getFecha\0"
 7811      65636861 
 7811      00
 7812 747c 03       		.byte	0x3
 7813 747d 62       		.byte	0x62
 7814 747e 5F5A4E4B 		.ascii "_ZNK5Fecha8getFechaB5cxx11Ev\0"
 7814      35466563 
 7814      68613867 
 7814      65744665 
 7814      63686142 
 7815 749b E93D0000 		.long	0x3de9
 7816 749f 01       		.byte	0x1
 7817 74a0 A8740000 		.long	0x74a8
 7818 74a4 AE740000 		.long	0x74ae
 7819 74a8 08       		.uleb128 0x8
 7820 74a9 F9760000 		.long	0x76f9
 7821 74ad 00       		.byte	0
 7822 74ae 43       		.uleb128 0x43
 7823 74af 49000000 		.secrel32	LASF45
 7824 74b3 03       		.byte	0x3
 7825 74b4 69       		.byte	0x69
 7826 74b5 5F5A4E35 		.ascii "_ZN5FechammEv\0"
 7826      46656368 
 7826      616D6D45 
 7826      7600
 7827 74c3 FF760000 		.long	0x76ff
 7828 74c7 01       		.byte	0x1
 7829 74c8 D0740000 		.long	0x74d0
 7830 74cc D6740000 		.long	0x74d6
 7831 74d0 08       		.uleb128 0x8
 7832 74d1 E8760000 		.long	0x76e8
 7833 74d5 00       		.byte	0
 7834 74d6 43       		.uleb128 0x43
 7835 74d7 49000000 		.secrel32	LASF45
 7836 74db 03       		.byte	0x3
 7837 74dc 6E       		.byte	0x6e
 7838 74dd 5F5A4E35 		.ascii "_ZN5FechammEi\0"
 7838      46656368 
 7838      616D6D45 
 7838      6900
 7839 74eb 5E710000 		.long	0x715e
 7840 74ef 01       		.byte	0x1
 7841 74f0 F8740000 		.long	0x74f8
 7842 74f4 03750000 		.long	0x7503
 7843 74f8 08       		.uleb128 0x8
 7844 74f9 E8760000 		.long	0x76e8
 7845 74fd 09       		.uleb128 0x9
 7846 74fe A4640000 		.long	0x64a4
 7847 7502 00       		.byte	0
 7848 7503 43       		.uleb128 0x43
 7849 7504 6F000000 		.secrel32	LASF47
 7850 7508 03       		.byte	0x3
 7851 7509 74       		.byte	0x74
 7852 750a 5F5A4E35 		.ascii "_ZN5FechamIEi\0"
 7852      46656368 
 7852      616D4945 
GAS LISTING C:\Users\USER\AppData\Local\Temp\ccFSuTGK.s 			page 175


 7852      6900
 7853 7518 EE760000 		.long	0x76ee
 7854 751c 01       		.byte	0x1
 7855 751d 25750000 		.long	0x7525
 7856 7521 30750000 		.long	0x7530
 7857 7525 08       		.uleb128 0x8
 7858 7526 E8760000 		.long	0x76e8
 7859 752a 09       		.uleb128 0x9
 7860 752b A4640000 		.long	0x64a4
 7861 752f 00       		.byte	0
 7862 7530 42       		.uleb128 0x42
 7863 7531 6F706572 		.ascii "operator==\0"
 7863      61746F72 
 7863      3D3D00
 7864 753c 03       		.byte	0x3
 7865 753d 7B       		.byte	0x7b
 7866 753e 5F5A4E4B 		.ascii "_ZNK5FechaeqERKS_\0"
 7866      35466563 
 7866      68616571 
 7866      45524B53 
 7866      5F00
 7867 7550 106E0000 		.long	0x6e10
 7868 7554 01       		.byte	0x1
 7869 7555 5D750000 		.long	0x755d
 7870 7559 68750000 		.long	0x7568
 7871 755d 08       		.uleb128 0x8
 7872 755e F9760000 		.long	0x76f9
 7873 7562 09       		.uleb128 0x9
 7874 7563 EE760000 		.long	0x76ee
 7875 7567 00       		.byte	0
 7876 7568 42       		.uleb128 0x42
 7877 7569 6F706572 		.ascii "operator>\0"
 7877      61746F72 
 7877      3E00
 7878 7573 03       		.byte	0x3
 7879 7574 8C       		.byte	0x8c
 7880 7575 5F5A4E35 		.ascii "_ZN5FechagtERKS_\0"
 7880      46656368 
 7880      61677445 
 7880      524B535F 
 7880      00
 7881 7586 106E0000 		.long	0x6e10
 7882 758a 01       		.byte	0x1
 7883 758b 93750000 		.long	0x7593
 7884 758f 9E750000 		.long	0x759e
 7885 7593 08       		.uleb128 0x8
 7886 7594 E8760000 		.long	0x76e8
 7887 7598 09       		.uleb128 0x9
 7888 7599 EE760000 		.long	0x76ee
 7889 759d 00       		.byte	0
 7890 759e 42       		.uleb128 0x42
 7891 759f 6F706572 		.ascii "operator<\0"
 7891      61746F72 
 7891      3C00
 7892 75a9 03       		.byte	0x3
 7893 75aa 97       		.byte	0x97
 7894 75ab 5F5A4E35 		.ascii "_ZN5FechaltERKS_\0"
GAS LISTING C:\Users\USER\AppData\Local\Temp\ccFSuTGK.s 			page 176


 7894      46656368 
 7894      616C7445 
 7894      524B535F 
 7894      00
 7895 75bc 106E0000 		.long	0x6e10
 7896 75c0 01       		.byte	0x1
 7897 75c1 C9750000 		.long	0x75c9
 7898 75c5 D4750000 		.long	0x75d4
 7899 75c9 08       		.uleb128 0x8
 7900 75ca E8760000 		.long	0x76e8
 7901 75ce 09       		.uleb128 0x9
 7902 75cf EE760000 		.long	0x76ee
 7903 75d3 00       		.byte	0
 7904 75d4 42       		.uleb128 0x42
 7905 75d5 6F706572 		.ascii "operator>=\0"
 7905      61746F72 
 7905      3E3D00
 7906 75e0 03       		.byte	0x3
 7907 75e1 A2       		.byte	0xa2
 7908 75e2 5F5A4E35 		.ascii "_ZN5FechageERKS_\0"
 7908      46656368 
 7908      61676545 
 7908      524B535F 
 7908      00
 7909 75f3 106E0000 		.long	0x6e10
 7910 75f7 01       		.byte	0x1
 7911 75f8 00760000 		.long	0x7600
 7912 75fc 0B760000 		.long	0x760b
 7913 7600 08       		.uleb128 0x8
 7914 7601 E8760000 		.long	0x76e8
 7915 7605 09       		.uleb128 0x9
 7916 7606 EE760000 		.long	0x76ee
 7917 760a 00       		.byte	0
 7918 760b 42       		.uleb128 0x42
 7919 760c 6F706572 		.ascii "operator<=\0"
 7919      61746F72 
 7919      3C3D00
 7920 7617 03       		.byte	0x3
 7921 7618 AD       		.byte	0xad
 7922 7619 5F5A4E35 		.ascii "_ZN5FechaleERKS_\0"
 7922      46656368 
 7922      616C6545 
 7922      524B535F 
 7922      00
 7923 762a 106E0000 		.long	0x6e10
 7924 762e 01       		.byte	0x1
 7925 762f 37760000 		.long	0x7637
 7926 7633 42760000 		.long	0x7642
 7927 7637 08       		.uleb128 0x8
 7928 7638 E8760000 		.long	0x76e8
 7929 763c 09       		.uleb128 0x9
 7930 763d EE760000 		.long	0x76ee
 7931 7641 00       		.byte	0
 7932 7642 43       		.uleb128 0x43
 7933 7643 58010000 		.secrel32	LASF44
 7934 7647 03       		.byte	0x3
 7935 7648 B8       		.byte	0xb8
GAS LISTING C:\Users\USER\AppData\Local\Temp\ccFSuTGK.s 			page 177


 7936 7649 5F5A4E35 		.ascii "_ZN5FechappEi\0"
 7936      46656368 
 7936      61707045 
 7936      6900
 7937 7657 5E710000 		.long	0x715e
 7938 765b 01       		.byte	0x1
 7939 765c 64760000 		.long	0x7664
 7940 7660 6F760000 		.long	0x766f
 7941 7664 08       		.uleb128 0x8
 7942 7665 E8760000 		.long	0x76e8
 7943 7669 09       		.uleb128 0x9
 7944 766a A4640000 		.long	0x64a4
 7945 766e 00       		.byte	0
 7946 766f 43       		.uleb128 0x43
 7947 7670 58010000 		.secrel32	LASF44
 7948 7674 03       		.byte	0x3
 7949 7675 BE       		.byte	0xbe
 7950 7676 5F5A4E35 		.ascii "_ZN5FechappEv\0"
 7950      46656368 
 7950      61707045 
 7950      7600
 7951 7684 FF760000 		.long	0x76ff
 7952 7688 01       		.byte	0x1
 7953 7689 91760000 		.long	0x7691
 7954 768d 97760000 		.long	0x7697
 7955 7691 08       		.uleb128 0x8
 7956 7692 E8760000 		.long	0x76e8
 7957 7696 00       		.byte	0
 7958 7697 5B       		.uleb128 0x5b
 7959 7698 87010000 		.secrel32	LASF13
 7960 769c 03       		.byte	0x3
 7961 769d C4       		.byte	0xc4
 7962 769e 5F5A4E35 		.ascii "_ZN5FechapLEi\0"
 7962      46656368 
 7962      61704C45 
 7962      6900
 7963 76ac EE760000 		.long	0x76ee
 7964 76b0 01       		.byte	0x1
 7965 76b1 B5760000 		.long	0x76b5
 7966 76b5 08       		.uleb128 0x8
 7967 76b6 E8760000 		.long	0x76e8
 7968 76ba 09       		.uleb128 0x9
 7969 76bb A4640000 		.long	0x64a4
 7970 76bf 00       		.byte	0
 7971 76c0 00       		.byte	0
 7972 76c1 5C       		.uleb128 0x5c
 7973 76c2 A4640000 		.long	0x64a4
 7974 76c6 CC760000 		.long	0x76cc
 7975 76ca 50       		.uleb128 0x50
 7976 76cb 00       		.byte	0
 7977 76cc 4D       		.uleb128 0x4d
 7978 76cd 04       		.byte	0x4
 7979 76ce D2760000 		.long	0x76d2
 7980 76d2 4C       		.uleb128 0x4c
 7981 76d3 04       		.byte	0x4
 7982 76d4 5F5F7674 		.ascii "__vtbl_ptr_type\0"
 7982      626C5F70 
GAS LISTING C:\Users\USER\AppData\Local\Temp\ccFSuTGK.s 			page 178


 7982      74725F74 
 7982      79706500 
 7983 76e4 C1760000 		.long	0x76c1
 7984 76e8 4D       		.uleb128 0x4d
 7985 76e9 04       		.byte	0x4
 7986 76ea 5E710000 		.long	0x715e
 7987 76ee 52       		.uleb128 0x52
 7988 76ef 04       		.byte	0x4
 7989 76f0 F4760000 		.long	0x76f4
 7990 76f4 0E       		.uleb128 0xe
 7991 76f5 5E710000 		.long	0x715e
 7992 76f9 4D       		.uleb128 0x4d
 7993 76fa 04       		.byte	0x4
 7994 76fb F4760000 		.long	0x76f4
 7995 76ff 52       		.uleb128 0x52
 7996 7700 04       		.byte	0x4
 7997 7701 5E710000 		.long	0x715e
 7998 7705 56       		.uleb128 0x56
 7999 7706 B9000000 		.secrel32	LASF51
 8000 770a 04       		.byte	0x4
 8001 770b 02       		.byte	0x2
 8002 770c 07       		.byte	0x7
 8003 770d CB4C0000 		.long	0x4ccb
 8004 7711 F5770000 		.long	0x77f5
 8005 7715 2D       		.uleb128 0x2d
 8006 7716 CB4C0000 		.long	0x4ccb
 8007 771a 00       		.byte	0
 8008 771b 01       		.byte	0x1
 8009 771c 58       		.uleb128 0x58
 8010 771d B9000000 		.secrel32	LASF51
 8011 7721 5F5A4E31 		.ascii "_ZN13FechaNoValidaC4ERKS_\0"
 8011      33466563 
 8011      68614E6F 
 8011      56616C69 
 8011      64614334 
 8012 773b 01       		.byte	0x1
 8013 773c 44770000 		.long	0x7744
 8014 7740 4F770000 		.long	0x774f
 8015 7744 08       		.uleb128 0x8
 8016 7745 F5770000 		.long	0x77f5
 8017 7749 09       		.uleb128 0x9
 8018 774a FB770000 		.long	0x77fb
 8019 774e 00       		.byte	0
 8020 774f 58       		.uleb128 0x58
 8021 7750 B9000000 		.secrel32	LASF51
 8022 7754 5F5A4E31 		.ascii "_ZN13FechaNoValidaC4Ev\0"
 8022      33466563 
 8022      68614E6F 
 8022      56616C69 
 8022      64614334 
 8023 776b 01       		.byte	0x1
 8024 776c 74770000 		.long	0x7774
 8025 7770 7A770000 		.long	0x777a
 8026 7774 08       		.uleb128 0x8
 8027 7775 F5770000 		.long	0x77f5
 8028 7779 00       		.byte	0
 8029 777a 5D       		.uleb128 0x5d
GAS LISTING C:\Users\USER\AppData\Local\Temp\ccFSuTGK.s 			page 179


 8030 777b 77686174 		.ascii "what\0"
 8030      00
 8031 7780 02       		.byte	0x2
 8032 7781 0A       		.byte	0xa
 8033 7782 5F5A4E4B 		.ascii "_ZNK13FechaNoValida4whatEv\0"
 8033      31334665 
 8033      6368614E 
 8033      6F56616C 
 8033      69646134 
 8034 779d BE670000 		.long	0x67be
 8035 77a1 01       		.byte	0x1
 8036 77a2 02       		.uleb128 0x2
 8037 77a3 10       		.byte	0x10
 8038 77a4 02       		.uleb128 0x2
 8039 77a5 05770000 		.long	0x7705
 8040 77a9 01       		.byte	0x1
 8041 77aa B2770000 		.long	0x77b2
 8042 77ae B8770000 		.long	0x77b8
 8043 77b2 08       		.uleb128 0x8
 8044 77b3 06780000 		.long	0x7806
 8045 77b7 00       		.byte	0
 8046 77b8 5E       		.uleb128 0x5e
 8047 77b9 7E466563 		.ascii "~FechaNoValida\0"
 8047      68614E6F 
 8047      56616C69 
 8047      646100
 8048 77c8 5F5A4E31 		.ascii "_ZN13FechaNoValidaD4Ev\0"
 8048      33466563 
 8048      68614E6F 
 8048      56616C69 
 8048      64614434 
 8049 77df 01       		.byte	0x1
 8050 77e0 05770000 		.long	0x7705
 8051 77e4 01       		.byte	0x1
 8052 77e5 E9770000 		.long	0x77e9
 8053 77e9 08       		.uleb128 0x8
 8054 77ea F5770000 		.long	0x77f5
 8055 77ee 08       		.uleb128 0x8
 8056 77ef A4640000 		.long	0x64a4
 8057 77f3 00       		.byte	0
 8058 77f4 00       		.byte	0
 8059 77f5 4D       		.uleb128 0x4d
 8060 77f6 04       		.byte	0x4
 8061 77f7 05770000 		.long	0x7705
 8062 77fb 52       		.uleb128 0x52
 8063 77fc 04       		.byte	0x4
 8064 77fd 01780000 		.long	0x7801
 8065 7801 0E       		.uleb128 0xe
 8066 7802 05770000 		.long	0x7705
 8067 7806 4D       		.uleb128 0x4d
 8068 7807 04       		.byte	0x4
 8069 7808 01780000 		.long	0x7801
 8070 780c 4D       		.uleb128 0x4d
 8071 780d 04       		.byte	0x4
 8072 780e CB4C0000 		.long	0x4ccb
 8073 7812 5F       		.uleb128 0x5f
 8074 7813 D44C0000 		.long	0x4cd4
GAS LISTING C:\Users\USER\AppData\Local\Temp\ccFSuTGK.s 			page 180


 8075 7817 02       		.byte	0x2
 8076 7818 20780000 		.long	0x7820
 8077 781c 2A780000 		.long	0x782a
 8078 7820 60       		.uleb128 0x60
 8079 7821 82010000 		.secrel32	LASF52
 8080 7825 2A780000 		.long	0x782a
 8081 7829 00       		.byte	0
 8082 782a 0E       		.uleb128 0xe
 8083 782b 0C780000 		.long	0x780c
 8084 782f 61       		.uleb128 0x61
 8085 7830 12780000 		.long	0x7812
 8086 7834 5F5A4E53 		.ascii "_ZNSt9exceptionC2Ev\0"
 8086      74396578 
 8086      63657074 
 8086      696F6E43 
 8086      32457600 
 8087 7848 00000000 		.long	LFB18
 8088 784c 16000000 		.long	LFE18-LFB18
 8089 7850 01       		.uleb128 0x1
 8090 7851 9C       		.byte	0x9c
 8091 7852 5A780000 		.long	0x785a
 8092 7856 63780000 		.long	0x7863
 8093 785a 62       		.uleb128 0x62
 8094 785b 20780000 		.long	0x7820
 8095 785f 02       		.uleb128 0x2
 8096 7860 91       		.byte	0x91
 8097 7861 74       		.sleb128 -12
 8098 7862 00       		.byte	0
 8099 7863 63       		.uleb128 0x63
 8100 7864 7A770000 		.long	0x777a
 8101 7868 00000000 		.long	LFB1047
 8102 786c 10000000 		.long	LFE1047-LFB1047
 8103 7870 01       		.uleb128 0x1
 8104 7871 9C       		.byte	0x9c
 8105 7872 7A780000 		.long	0x787a
 8106 7876 87780000 		.long	0x7887
 8107 787a 64       		.uleb128 0x64
 8108 787b 82010000 		.secrel32	LASF52
 8109 787f 87780000 		.long	0x7887
 8110 7883 02       		.uleb128 0x2
 8111 7884 91       		.byte	0x91
 8112 7885 74       		.sleb128 -12
 8113 7886 00       		.byte	0
 8114 7887 0E       		.uleb128 0xe
 8115 7888 06780000 		.long	0x7806
 8116 788c 5F       		.uleb128 0x5f
 8117 788d D0710000 		.long	0x71d0
 8118 7891 00       		.byte	0
 8119 7892 9A780000 		.long	0x789a
 8120 7896 A4780000 		.long	0x78a4
 8121 789a 60       		.uleb128 0x60
 8122 789b 82010000 		.secrel32	LASF52
 8123 789f A4780000 		.long	0x78a4
 8124 78a3 00       		.byte	0
 8125 78a4 0E       		.uleb128 0xe
 8126 78a5 E8760000 		.long	0x76e8
 8127 78a9 61       		.uleb128 0x61
GAS LISTING C:\Users\USER\AppData\Local\Temp\ccFSuTGK.s 			page 181


 8128 78aa 8C780000 		.long	0x788c
 8129 78ae 5F5A4E35 		.ascii "_ZN5FechaC2Ev\0"
 8129      46656368 
 8129      61433245 
 8129      7600
 8130 78bc 00000000 		.long	LFB1049
 8131 78c0 34000000 		.long	LFE1049-LFB1049
 8132 78c4 01       		.uleb128 0x1
 8133 78c5 9C       		.byte	0x9c
 8134 78c6 CE780000 		.long	0x78ce
 8135 78ca D7780000 		.long	0x78d7
 8136 78ce 62       		.uleb128 0x62
 8137 78cf 9A780000 		.long	0x789a
 8138 78d3 02       		.uleb128 0x2
 8139 78d4 91       		.byte	0x91
 8140 78d5 74       		.sleb128 -12
 8141 78d6 00       		.byte	0
 8142 78d7 65       		.uleb128 0x65
 8143 78d8 4F770000 		.long	0x774f
 8144 78dc 02       		.byte	0x2
 8145 78dd 07       		.byte	0x7
 8146 78de 02       		.byte	0x2
 8147 78df E7780000 		.long	0x78e7
 8148 78e3 F1780000 		.long	0x78f1
 8149 78e7 60       		.uleb128 0x60
 8150 78e8 82010000 		.secrel32	LASF52
 8151 78ec F1780000 		.long	0x78f1
 8152 78f0 00       		.byte	0
 8153 78f1 0E       		.uleb128 0xe
 8154 78f2 F5770000 		.long	0x77f5
 8155 78f6 66       		.uleb128 0x66
 8156 78f7 D7780000 		.long	0x78d7
 8157 78fb 5F5A4E31 		.ascii "_ZN13FechaNoValidaC1Ev\0"
 8157      33466563 
 8157      68614E6F 
 8157      56616C69 
 8157      64614331 
 8158 7912 00000000 		.long	LFB1054
 8159 7916 20000000 		.long	LFE1054-LFB1054
 8160 791a 01       		.uleb128 0x1
 8161 791b 9C       		.byte	0x9c
 8162 791c 24790000 		.long	0x7924
 8163 7920 2D790000 		.long	0x792d
 8164 7924 62       		.uleb128 0x62
 8165 7925 E7780000 		.long	0x78e7
 8166 7929 02       		.uleb128 0x2
 8167 792a 91       		.byte	0x91
 8168 792b 74       		.sleb128 -12
 8169 792c 00       		.byte	0
 8170 792d 5F       		.uleb128 0x5f
 8171 792e F4710000 		.long	0x71f4
 8172 7932 00       		.byte	0
 8173 7933 3B790000 		.long	0x793b
 8174 7937 60790000 		.long	0x7960
 8175 793b 60       		.uleb128 0x60
 8176 793c 82010000 		.secrel32	LASF52
 8177 7940 A4780000 		.long	0x78a4
GAS LISTING C:\Users\USER\AppData\Local\Temp\ccFSuTGK.s 			page 182


 8178 7944 67       		.uleb128 0x67
 8179 7945 6400     		.ascii "d\0"
 8180 7947 03       		.byte	0x3
 8181 7948 0A       		.byte	0xa
 8182 7949 A4640000 		.long	0x64a4
 8183 794d 67       		.uleb128 0x67
 8184 794e 6D00     		.ascii "m\0"
 8185 7950 03       		.byte	0x3
 8186 7951 0A       		.byte	0xa
 8187 7952 A4640000 		.long	0x64a4
 8188 7956 67       		.uleb128 0x67
 8189 7957 6100     		.ascii "a\0"
 8190 7959 03       		.byte	0x3
 8191 795a 0A       		.byte	0xa
 8192 795b A4640000 		.long	0x64a4
 8193 795f 00       		.byte	0
 8194 7960 66       		.uleb128 0x66
 8195 7961 2D790000 		.long	0x792d
 8196 7965 5F5A4E35 		.ascii "_ZN5FechaC2Eiii\0"
 8196      46656368 
 8196      61433245 
 8196      69696900 
 8197 7975 34000000 		.long	LFB1061
 8198 7979 FE000000 		.long	LFE1061-LFB1061
 8199 797d 01       		.uleb128 0x1
 8200 797e 9C       		.byte	0x9c
 8201 797f 87790000 		.long	0x7987
 8202 7983 A8790000 		.long	0x79a8
 8203 7987 62       		.uleb128 0x62
 8204 7988 3B790000 		.long	0x793b
 8205 798c 02       		.uleb128 0x2
 8206 798d 91       		.byte	0x91
 8207 798e 5C       		.sleb128 -36
 8208 798f 62       		.uleb128 0x62
 8209 7990 44790000 		.long	0x7944
 8210 7994 02       		.uleb128 0x2
 8211 7995 91       		.byte	0x91
 8212 7996 00       		.sleb128 0
 8213 7997 62       		.uleb128 0x62
 8214 7998 4D790000 		.long	0x794d
 8215 799c 02       		.uleb128 0x2
 8216 799d 91       		.byte	0x91
 8217 799e 04       		.sleb128 4
 8218 799f 62       		.uleb128 0x62
 8219 79a0 56790000 		.long	0x7956
 8220 79a4 02       		.uleb128 0x2
 8221 79a5 91       		.byte	0x91
 8222 79a6 08       		.sleb128 8
 8223 79a7 00       		.byte	0
 8224 79a8 5F       		.uleb128 0x5f
 8225 79a9 29720000 		.long	0x7229
 8226 79ad 00       		.byte	0
 8227 79ae B6790000 		.long	0x79b6
 8228 79b2 C9790000 		.long	0x79c9
 8229 79b6 60       		.uleb128 0x60
 8230 79b7 82010000 		.secrel32	LASF52
 8231 79bb A4780000 		.long	0x78a4
GAS LISTING C:\Users\USER\AppData\Local\Temp\ccFSuTGK.s 			page 183


 8232 79bf 60       		.uleb128 0x60
 8233 79c0 71010000 		.secrel32	LASF53
 8234 79c4 46700000 		.long	0x7046
 8235 79c8 00       		.byte	0
 8236 79c9 66       		.uleb128 0x66
 8237 79ca A8790000 		.long	0x79a8
 8238 79ce 5F5A4E35 		.ascii "_ZN5FechaD2Ev\0"
 8238      46656368 
 8238      61443245 
 8238      7600
 8239 79dc 32010000 		.long	LFB1064
 8240 79e0 29000000 		.long	LFE1064-LFB1064
 8241 79e4 01       		.uleb128 0x1
 8242 79e5 9C       		.byte	0x9c
 8243 79e6 EE790000 		.long	0x79ee
 8244 79ea F7790000 		.long	0x79f7
 8245 79ee 62       		.uleb128 0x62
 8246 79ef B6790000 		.long	0x79b6
 8247 79f3 02       		.uleb128 0x2
 8248 79f4 91       		.byte	0x91
 8249 79f5 6C       		.sleb128 -20
 8250 79f6 00       		.byte	0
 8251 79f7 66       		.uleb128 0x66
 8252 79f8 A8790000 		.long	0x79a8
 8253 79fc 5F5A4E35 		.ascii "_ZN5FechaD0Ev\0"
 8253      46656368 
 8253      61443045 
 8253      7600
 8254 7a0a 5C010000 		.long	LFB1066
 8255 7a0e 20000000 		.long	LFE1066-LFB1066
 8256 7a12 01       		.uleb128 0x1
 8257 7a13 9C       		.byte	0x9c
 8258 7a14 1C7A0000 		.long	0x7a1c
 8259 7a18 257A0000 		.long	0x7a25
 8260 7a1c 62       		.uleb128 0x62
 8261 7a1d B6790000 		.long	0x79b6
 8262 7a21 02       		.uleb128 0x2
 8263 7a22 91       		.byte	0x91
 8264 7a23 6C       		.sleb128 -20
 8265 7a24 00       		.byte	0
 8266 7a25 63       		.uleb128 0x63
 8267 7a26 5A720000 		.long	0x725a
 8268 7a2a 7C010000 		.long	LFB1067
 8269 7a2e 11000000 		.long	LFE1067-LFB1067
 8270 7a32 01       		.uleb128 0x1
 8271 7a33 9C       		.byte	0x9c
 8272 7a34 3C7A0000 		.long	0x7a3c
 8273 7a38 497A0000 		.long	0x7a49
 8274 7a3c 64       		.uleb128 0x64
 8275 7a3d 82010000 		.secrel32	LASF52
 8276 7a41 497A0000 		.long	0x7a49
 8277 7a45 02       		.uleb128 0x2
 8278 7a46 91       		.byte	0x91
 8279 7a47 74       		.sleb128 -12
 8280 7a48 00       		.byte	0
 8281 7a49 0E       		.uleb128 0xe
 8282 7a4a F9760000 		.long	0x76f9
GAS LISTING C:\Users\USER\AppData\Local\Temp\ccFSuTGK.s 			page 184


 8283 7a4e 63       		.uleb128 0x63
 8284 7a4f 8B720000 		.long	0x728b
 8285 7a53 8E010000 		.long	LFB1068
 8286 7a57 11000000 		.long	LFE1068-LFB1068
 8287 7a5b 01       		.uleb128 0x1
 8288 7a5c 9C       		.byte	0x9c
 8289 7a5d 657A0000 		.long	0x7a65
 8290 7a61 727A0000 		.long	0x7a72
 8291 7a65 64       		.uleb128 0x64
 8292 7a66 82010000 		.secrel32	LASF52
 8293 7a6a 497A0000 		.long	0x7a49
 8294 7a6e 02       		.uleb128 0x2
 8295 7a6f 91       		.byte	0x91
 8296 7a70 74       		.sleb128 -12
 8297 7a71 00       		.byte	0
 8298 7a72 63       		.uleb128 0x63
 8299 7a73 BC720000 		.long	0x72bc
 8300 7a77 A0010000 		.long	LFB1069
 8301 7a7b 11000000 		.long	LFE1069-LFB1069
 8302 7a7f 01       		.uleb128 0x1
 8303 7a80 9C       		.byte	0x9c
 8304 7a81 897A0000 		.long	0x7a89
 8305 7a85 967A0000 		.long	0x7a96
 8306 7a89 64       		.uleb128 0x64
 8307 7a8a 82010000 		.secrel32	LASF52
 8308 7a8e 497A0000 		.long	0x7a49
 8309 7a92 02       		.uleb128 0x2
 8310 7a93 91       		.byte	0x91
 8311 7a94 74       		.sleb128 -12
 8312 7a95 00       		.byte	0
 8313 7a96 68       		.uleb128 0x68
 8314 7a97 EF720000 		.long	0x72ef
 8315 7a9b B2010000 		.long	LFB1070
 8316 7a9f F4000000 		.long	LFE1070-LFB1070
 8317 7aa3 01       		.uleb128 0x1
 8318 7aa4 9C       		.byte	0x9c
 8319 7aa5 AD7A0000 		.long	0x7aad
 8320 7aa9 DE7A0000 		.long	0x7ade
 8321 7aad 64       		.uleb128 0x64
 8322 7aae 82010000 		.secrel32	LASF52
 8323 7ab2 A4780000 		.long	0x78a4
 8324 7ab6 02       		.uleb128 0x2
 8325 7ab7 91       		.byte	0x91
 8326 7ab8 5C       		.sleb128 -36
 8327 7ab9 69       		.uleb128 0x69
 8328 7aba 6400     		.ascii "d\0"
 8329 7abc 03       		.byte	0x3
 8330 7abd 28       		.byte	0x28
 8331 7abe A4640000 		.long	0x64a4
 8332 7ac2 02       		.uleb128 0x2
 8333 7ac3 91       		.byte	0x91
 8334 7ac4 00       		.sleb128 0
 8335 7ac5 69       		.uleb128 0x69
 8336 7ac6 6D00     		.ascii "m\0"
 8337 7ac8 03       		.byte	0x3
 8338 7ac9 28       		.byte	0x28
 8339 7aca A4640000 		.long	0x64a4
GAS LISTING C:\Users\USER\AppData\Local\Temp\ccFSuTGK.s 			page 185


 8340 7ace 02       		.uleb128 0x2
 8341 7acf 91       		.byte	0x91
 8342 7ad0 04       		.sleb128 4
 8343 7ad1 69       		.uleb128 0x69
 8344 7ad2 6100     		.ascii "a\0"
 8345 7ad4 03       		.byte	0x3
 8346 7ad5 28       		.byte	0x28
 8347 7ad6 A4640000 		.long	0x64a4
 8348 7ada 02       		.uleb128 0x2
 8349 7adb 91       		.byte	0x91
 8350 7adc 08       		.sleb128 8
 8351 7add 00       		.byte	0
 8352 7ade 6A       		.uleb128 0x6a
 8353 7adf 3F730000 		.long	0x733f
 8354 7ae3 A6020000 		.long	LFB1071
 8355 7ae7 64000000 		.long	LFE1071-LFB1071
 8356 7aeb 01       		.uleb128 0x1
 8357 7aec 9C       		.byte	0x9c
 8358 7aed FE7A0000 		.long	0x7afe
 8359 7af1 69       		.uleb128 0x69
 8360 7af2 6100     		.ascii "a\0"
 8361 7af4 03       		.byte	0x3
 8362 7af5 32       		.byte	0x32
 8363 7af6 A4640000 		.long	0x64a4
 8364 7afa 02       		.uleb128 0x2
 8365 7afb 91       		.byte	0x91
 8366 7afc 00       		.sleb128 0
 8367 7afd 00       		.byte	0
 8368 7afe 6B       		.uleb128 0x6b
 8369 7aff 78730000 		.long	0x7378
 8370 7b03 0A030000 		.long	LFB1072
 8371 7b07 BB000000 		.long	LFE1072-LFB1072
 8372 7b0b 01       		.uleb128 0x1
 8373 7b0c 9C       		.byte	0x9c
 8374 7b0d 2A7B0000 		.long	0x7b2a
 8375 7b11 69       		.uleb128 0x69
 8376 7b12 6D00     		.ascii "m\0"
 8377 7b14 03       		.byte	0x3
 8378 7b15 36       		.byte	0x36
 8379 7b16 A4640000 		.long	0x64a4
 8380 7b1a 02       		.uleb128 0x2
 8381 7b1b 91       		.byte	0x91
 8382 7b1c 00       		.sleb128 0
 8383 7b1d 69       		.uleb128 0x69
 8384 7b1e 6100     		.ascii "a\0"
 8385 7b20 03       		.byte	0x3
 8386 7b21 36       		.byte	0x36
 8387 7b22 A4640000 		.long	0x64a4
 8388 7b26 02       		.uleb128 0x2
 8389 7b27 91       		.byte	0x91
 8390 7b28 04       		.sleb128 4
 8391 7b29 00       		.byte	0
 8392 7b2a 6B       		.uleb128 0x6b
 8393 7b2b BB730000 		.long	0x73bb
 8394 7b2f C6030000 		.long	LFB1073
 8395 7b33 3D000000 		.long	LFE1073-LFB1073
 8396 7b37 01       		.uleb128 0x1
GAS LISTING C:\Users\USER\AppData\Local\Temp\ccFSuTGK.s 			page 186


 8397 7b38 9C       		.byte	0x9c
 8398 7b39 627B0000 		.long	0x7b62
 8399 7b3d 69       		.uleb128 0x69
 8400 7b3e 6400     		.ascii "d\0"
 8401 7b40 03       		.byte	0x3
 8402 7b41 44       		.byte	0x44
 8403 7b42 A4640000 		.long	0x64a4
 8404 7b46 02       		.uleb128 0x2
 8405 7b47 91       		.byte	0x91
 8406 7b48 00       		.sleb128 0
 8407 7b49 69       		.uleb128 0x69
 8408 7b4a 6D00     		.ascii "m\0"
 8409 7b4c 03       		.byte	0x3
 8410 7b4d 44       		.byte	0x44
 8411 7b4e A4640000 		.long	0x64a4
 8412 7b52 02       		.uleb128 0x2
 8413 7b53 91       		.byte	0x91
 8414 7b54 04       		.sleb128 4
 8415 7b55 69       		.uleb128 0x69
 8416 7b56 6100     		.ascii "a\0"
 8417 7b58 03       		.byte	0x3
 8418 7b59 44       		.byte	0x44
 8419 7b5a A4640000 		.long	0x64a4
 8420 7b5e 02       		.uleb128 0x2
 8421 7b5f 91       		.byte	0x91
 8422 7b60 08       		.sleb128 8
 8423 7b61 00       		.byte	0
 8424 7b62 68       		.uleb128 0x68
 8425 7b63 FE730000 		.long	0x73fe
 8426 7b67 04040000 		.long	LFB1074
 8427 7b6b AB000000 		.long	LFE1074-LFB1074
 8428 7b6f 01       		.uleb128 0x1
 8429 7b70 9C       		.byte	0x9c
 8430 7b71 797B0000 		.long	0x7b79
 8431 7b75 867B0000 		.long	0x7b86
 8432 7b79 64       		.uleb128 0x64
 8433 7b7a 82010000 		.secrel32	LASF52
 8434 7b7e A4780000 		.long	0x78a4
 8435 7b82 02       		.uleb128 0x2
 8436 7b83 91       		.byte	0x91
 8437 7b84 74       		.sleb128 -12
 8438 7b85 00       		.byte	0
 8439 7b86 68       		.uleb128 0x68
 8440 7b87 37740000 		.long	0x7437
 8441 7b8b B0040000 		.long	LFB1075
 8442 7b8f C1000000 		.long	LFE1075-LFB1075
 8443 7b93 01       		.uleb128 0x1
 8444 7b94 9C       		.byte	0x9c
 8445 7b95 9D7B0000 		.long	0x7b9d
 8446 7b99 AA7B0000 		.long	0x7baa
 8447 7b9d 64       		.uleb128 0x64
 8448 7b9e 82010000 		.secrel32	LASF52
 8449 7ba2 A4780000 		.long	0x78a4
 8450 7ba6 02       		.uleb128 0x2
 8451 7ba7 91       		.byte	0x91
 8452 7ba8 74       		.sleb128 -12
 8453 7ba9 00       		.byte	0
GAS LISTING C:\Users\USER\AppData\Local\Temp\ccFSuTGK.s 			page 187


 8454 7baa 68       		.uleb128 0x68
 8455 7bab 72740000 		.long	0x7472
 8456 7baf 72050000 		.long	LFB1076
 8457 7bb3 7A010000 		.long	LFE1076-LFB1076
 8458 7bb7 01       		.uleb128 0x1
 8459 7bb8 9C       		.byte	0x9c
 8460 7bb9 C17B0000 		.long	0x7bc1
 8461 7bbd DB7B0000 		.long	0x7bdb
 8462 7bc1 64       		.uleb128 0x64
 8463 7bc2 82010000 		.secrel32	LASF52
 8464 7bc6 497A0000 		.long	0x7a49
 8465 7bca 02       		.uleb128 0x2
 8466 7bcb 91       		.byte	0x91
 8467 7bcc 00       		.sleb128 0
 8468 7bcd 6C       		.uleb128 0x6c
 8469 7bce 6100     		.ascii "a\0"
 8470 7bd0 03       		.byte	0x3
 8471 7bd1 64       		.byte	0x64
 8472 7bd2 FB4C0000 		.long	0x4cfb
 8473 7bd6 03       		.uleb128 0x3
 8474 7bd7 91       		.byte	0x91
 8475 7bd8 987E     		.sleb128 -232
 8476 7bda 00       		.byte	0
 8477 7bdb 68       		.uleb128 0x68
 8478 7bdc AE740000 		.long	0x74ae
 8479 7be0 EC060000 		.long	LFB1077
 8480 7be4 18000000 		.long	LFE1077-LFB1077
 8481 7be8 01       		.uleb128 0x1
 8482 7be9 9C       		.byte	0x9c
 8483 7bea F27B0000 		.long	0x7bf2
 8484 7bee FF7B0000 		.long	0x7bff
 8485 7bf2 64       		.uleb128 0x64
 8486 7bf3 82010000 		.secrel32	LASF52
 8487 7bf7 A4780000 		.long	0x78a4
 8488 7bfb 02       		.uleb128 0x2
 8489 7bfc 91       		.byte	0x91
 8490 7bfd 74       		.sleb128 -12
 8491 7bfe 00       		.byte	0
 8492 7bff 65       		.uleb128 0x65
 8493 7c00 A6710000 		.long	0x71a6
 8494 7c04 04       		.byte	0x4
 8495 7c05 09       		.byte	0x9
 8496 7c06 02       		.byte	0x2
 8497 7c07 0F7C0000 		.long	0x7c0f
 8498 7c0b 1E7C0000 		.long	0x7c1e
 8499 7c0f 60       		.uleb128 0x60
 8500 7c10 82010000 		.secrel32	LASF52
 8501 7c14 A4780000 		.long	0x78a4
 8502 7c18 09       		.uleb128 0x9
 8503 7c19 1E7C0000 		.long	0x7c1e
 8504 7c1d 00       		.byte	0
 8505 7c1e 0E       		.uleb128 0xe
 8506 7c1f EE760000 		.long	0x76ee
 8507 7c23 61       		.uleb128 0x61
 8508 7c24 FF7B0000 		.long	0x7bff
 8509 7c28 5F5A4E35 		.ascii "_ZN5FechaC1ERKS_\0"
 8509      46656368 
GAS LISTING C:\Users\USER\AppData\Local\Temp\ccFSuTGK.s 			page 188


 8509      61433145 
 8509      524B535F 
 8509      00
 8510 7c39 00000000 		.long	LFB1081
 8511 7c3d 3C000000 		.long	LFE1081-LFB1081
 8512 7c41 01       		.uleb128 0x1
 8513 7c42 9C       		.byte	0x9c
 8514 7c43 4B7C0000 		.long	0x7c4b
 8515 7c47 5C7C0000 		.long	0x7c5c
 8516 7c4b 62       		.uleb128 0x62
 8517 7c4c 0F7C0000 		.long	0x7c0f
 8518 7c50 02       		.uleb128 0x2
 8519 7c51 91       		.byte	0x91
 8520 7c52 74       		.sleb128 -12
 8521 7c53 62       		.uleb128 0x62
 8522 7c54 187C0000 		.long	0x7c18
 8523 7c58 02       		.uleb128 0x2
 8524 7c59 91       		.byte	0x91
 8525 7c5a 00       		.sleb128 0
 8526 7c5b 00       		.byte	0
 8527 7c5c 68       		.uleb128 0x68
 8528 7c5d D6740000 		.long	0x74d6
 8529 7c61 04070000 		.long	LFB1078
 8530 7c65 2C000000 		.long	LFE1078-LFB1078
 8531 7c69 01       		.uleb128 0x1
 8532 7c6a 9C       		.byte	0x9c
 8533 7c6b 737C0000 		.long	0x7c73
 8534 7c6f 9B7C0000 		.long	0x7c9b
 8535 7c73 64       		.uleb128 0x64
 8536 7c74 82010000 		.secrel32	LASF52
 8537 7c78 A4780000 		.long	0x78a4
 8538 7c7c 02       		.uleb128 0x2
 8539 7c7d 91       		.byte	0x91
 8540 7c7e 00       		.sleb128 0
 8541 7c7f 69       		.uleb128 0x69
 8542 7c80 6100     		.ascii "a\0"
 8543 7c82 03       		.byte	0x3
 8544 7c83 6E       		.byte	0x6e
 8545 7c84 A4640000 		.long	0x64a4
 8546 7c88 02       		.uleb128 0x2
 8547 7c89 91       		.byte	0x91
 8548 7c8a 04       		.sleb128 4
 8549 7c8b 6C       		.uleb128 0x6c
 8550 7c8c 61757800 		.ascii "aux\0"
 8551 7c90 03       		.byte	0x3
 8552 7c91 6F       		.byte	0x6f
 8553 7c92 5E710000 		.long	0x715e
 8554 7c96 03       		.uleb128 0x3
 8555 7c97 91       		.byte	0x91
 8556 7c98 74       		.sleb128 -12
 8557 7c99 06       		.byte	0x6
 8558 7c9a 00       		.byte	0
 8559 7c9b 68       		.uleb128 0x68
 8560 7c9c 03750000 		.long	0x7503
 8561 7ca0 30070000 		.long	LFB1082
 8562 7ca4 2F000000 		.long	LFE1082-LFB1082
 8563 7ca8 01       		.uleb128 0x1
GAS LISTING C:\Users\USER\AppData\Local\Temp\ccFSuTGK.s 			page 189


 8564 7ca9 9C       		.byte	0x9c
 8565 7caa B27C0000 		.long	0x7cb2
 8566 7cae E17C0000 		.long	0x7ce1
 8567 7cb2 64       		.uleb128 0x64
 8568 7cb3 82010000 		.secrel32	LASF52
 8569 7cb7 A4780000 		.long	0x78a4
 8570 7cbb 02       		.uleb128 0x2
 8571 7cbc 91       		.byte	0x91
 8572 7cbd 64       		.sleb128 -28
 8573 7cbe 69       		.uleb128 0x69
 8574 7cbf 6400     		.ascii "d\0"
 8575 7cc1 03       		.byte	0x3
 8576 7cc2 74       		.byte	0x74
 8577 7cc3 A4640000 		.long	0x64a4
 8578 7cc7 02       		.uleb128 0x2
 8579 7cc8 91       		.byte	0x91
 8580 7cc9 00       		.sleb128 0
 8581 7cca 6D       		.uleb128 0x6d
 8582 7ccb 39070000 		.long	LBB8
 8583 7ccf 1F000000 		.long	LBE8-LBB8
 8584 7cd3 6C       		.uleb128 0x6c
 8585 7cd4 6900     		.ascii "i\0"
 8586 7cd6 03       		.byte	0x3
 8587 7cd7 75       		.byte	0x75
 8588 7cd8 A4640000 		.long	0x64a4
 8589 7cdc 02       		.uleb128 0x2
 8590 7cdd 91       		.byte	0x91
 8591 7cde 74       		.sleb128 -12
 8592 7cdf 00       		.byte	0
 8593 7ce0 00       		.byte	0
 8594 7ce1 63       		.uleb128 0x63
 8595 7ce2 30750000 		.long	0x7530
 8596 7ce6 60070000 		.long	LFB1083
 8597 7cea 49000000 		.long	LFE1083-LFB1083
 8598 7cee 01       		.uleb128 0x1
 8599 7cef 9C       		.byte	0x9c
 8600 7cf0 F87C0000 		.long	0x7cf8
 8601 7cf4 117D0000 		.long	0x7d11
 8602 7cf8 64       		.uleb128 0x64
 8603 7cf9 82010000 		.secrel32	LASF52
 8604 7cfd 497A0000 		.long	0x7a49
 8605 7d01 02       		.uleb128 0x2
 8606 7d02 91       		.byte	0x91
 8607 7d03 74       		.sleb128 -12
 8608 7d04 69       		.uleb128 0x69
 8609 7d05 6600     		.ascii "f\0"
 8610 7d07 03       		.byte	0x3
 8611 7d08 7B       		.byte	0x7b
 8612 7d09 117D0000 		.long	0x7d11
 8613 7d0d 02       		.uleb128 0x2
 8614 7d0e 91       		.byte	0x91
 8615 7d0f 00       		.sleb128 0
 8616 7d10 00       		.byte	0
 8617 7d11 0E       		.uleb128 0xe
 8618 7d12 EE760000 		.long	0x76ee
 8619 7d16 6E       		.uleb128 0x6e
 8620 7d17 6F706572 		.ascii "operator>>\0"
GAS LISTING C:\Users\USER\AppData\Local\Temp\ccFSuTGK.s 			page 190


 8620      61746F72 
 8620      3E3E00
 8621 7d22 03       		.byte	0x3
 8622 7d23 7F       		.byte	0x7f
 8623 7d24 5F5A7273 		.ascii "_ZrsRSiR5Fecha\0"
 8623      52536952 
 8623      35466563 
 8623      686100
 8624 7d33 857D0000 		.long	0x7d85
 8625 7d37 A9070000 		.long	LFB1084
 8626 7d3b 8A000000 		.long	LFE1084-LFB1084
 8627 7d3f 01       		.uleb128 0x1
 8628 7d40 9C       		.byte	0x9c
 8629 7d41 857D0000 		.long	0x7d85
 8630 7d45 69       		.uleb128 0x69
 8631 7d46 6900     		.ascii "i\0"
 8632 7d48 03       		.byte	0x3
 8633 7d49 7F       		.byte	0x7f
 8634 7d4a 8B7D0000 		.long	0x7d8b
 8635 7d4e 02       		.uleb128 0x2
 8636 7d4f 91       		.byte	0x91
 8637 7d50 00       		.sleb128 0
 8638 7d51 69       		.uleb128 0x69
 8639 7d52 6600     		.ascii "f\0"
 8640 7d54 03       		.byte	0x3
 8641 7d55 7F       		.byte	0x7f
 8642 7d56 907D0000 		.long	0x7d90
 8643 7d5a 02       		.uleb128 0x2
 8644 7d5b 91       		.byte	0x91
 8645 7d5c 04       		.sleb128 4
 8646 7d5d 6C       		.uleb128 0x6c
 8647 7d5e 646400   		.ascii "dd\0"
 8648 7d61 03       		.byte	0x3
 8649 7d62 80       		.byte	0x80
 8650 7d63 A4640000 		.long	0x64a4
 8651 7d67 02       		.uleb128 0x2
 8652 7d68 91       		.byte	0x91
 8653 7d69 6C       		.sleb128 -20
 8654 7d6a 6C       		.uleb128 0x6c
 8655 7d6b 6D6D00   		.ascii "mm\0"
 8656 7d6e 03       		.byte	0x3
 8657 7d6f 80       		.byte	0x80
 8658 7d70 A4640000 		.long	0x64a4
 8659 7d74 02       		.uleb128 0x2
 8660 7d75 91       		.byte	0x91
 8661 7d76 68       		.sleb128 -24
 8662 7d77 6C       		.uleb128 0x6c
 8663 7d78 797900   		.ascii "yy\0"
 8664 7d7b 03       		.byte	0x3
 8665 7d7c 80       		.byte	0x80
 8666 7d7d A4640000 		.long	0x64a4
 8667 7d81 02       		.uleb128 0x2
 8668 7d82 91       		.byte	0x91
 8669 7d83 64       		.sleb128 -28
 8670 7d84 00       		.byte	0
 8671 7d85 52       		.uleb128 0x52
 8672 7d86 04       		.byte	0x4
GAS LISTING C:\Users\USER\AppData\Local\Temp\ccFSuTGK.s 			page 191


 8673 7d87 104D0000 		.long	0x4d10
 8674 7d8b 0E       		.uleb128 0xe
 8675 7d8c 857D0000 		.long	0x7d85
 8676 7d90 0E       		.uleb128 0xe
 8677 7d91 FF760000 		.long	0x76ff
 8678 7d95 6E       		.uleb128 0x6e
 8679 7d96 6F706572 		.ascii "operator<<\0"
 8679      61746F72 
 8679      3C3C00
 8680 7da1 03       		.byte	0x3
 8681 7da2 87       		.byte	0x87
 8682 7da3 5F5A6C73 		.ascii "_ZlsRSo5Fecha\0"
 8682      52536F35 
 8682      46656368 
 8682      6100
 8683 7db1 DE7D0000 		.long	0x7dde
 8684 7db5 33080000 		.long	LFB1085
 8685 7db9 C3000000 		.long	LFE1085-LFB1085
 8686 7dbd 01       		.uleb128 0x1
 8687 7dbe 9C       		.byte	0x9c
 8688 7dbf DE7D0000 		.long	0x7dde
 8689 7dc3 69       		.uleb128 0x69
 8690 7dc4 6F7300   		.ascii "os\0"
 8691 7dc7 03       		.byte	0x3
 8692 7dc8 87       		.byte	0x87
 8693 7dc9 E47D0000 		.long	0x7de4
 8694 7dcd 02       		.uleb128 0x2
 8695 7dce 91       		.byte	0x91
 8696 7dcf 00       		.sleb128 0
 8697 7dd0 69       		.uleb128 0x69
 8698 7dd1 6600     		.ascii "f\0"
 8699 7dd3 03       		.byte	0x3
 8700 7dd4 87       		.byte	0x87
 8701 7dd5 5E710000 		.long	0x715e
 8702 7dd9 03       		.uleb128 0x3
 8703 7dda 91       		.byte	0x91
 8704 7ddb 04       		.sleb128 4
 8705 7ddc 06       		.byte	0x6
 8706 7ddd 00       		.byte	0
 8707 7dde 52       		.uleb128 0x52
 8708 7ddf 04       		.byte	0x4
 8709 7de0 1F4D0000 		.long	0x4d1f
 8710 7de4 0E       		.uleb128 0xe
 8711 7de5 DE7D0000 		.long	0x7dde
 8712 7de9 63       		.uleb128 0x63
 8713 7dea 68750000 		.long	0x7568
 8714 7dee F6080000 		.long	LFB1086
 8715 7df2 87000000 		.long	LFE1086-LFB1086
 8716 7df6 01       		.uleb128 0x1
 8717 7df7 9C       		.byte	0x9c
 8718 7df8 007E0000 		.long	0x7e00
 8719 7dfc 197E0000 		.long	0x7e19
 8720 7e00 64       		.uleb128 0x64
 8721 7e01 82010000 		.secrel32	LASF52
 8722 7e05 A4780000 		.long	0x78a4
 8723 7e09 02       		.uleb128 0x2
 8724 7e0a 91       		.byte	0x91
GAS LISTING C:\Users\USER\AppData\Local\Temp\ccFSuTGK.s 			page 192


 8725 7e0b 74       		.sleb128 -12
 8726 7e0c 69       		.uleb128 0x69
 8727 7e0d 6600     		.ascii "f\0"
 8728 7e0f 03       		.byte	0x3
 8729 7e10 8C       		.byte	0x8c
 8730 7e11 197E0000 		.long	0x7e19
 8731 7e15 02       		.uleb128 0x2
 8732 7e16 91       		.byte	0x91
 8733 7e17 00       		.sleb128 0
 8734 7e18 00       		.byte	0
 8735 7e19 0E       		.uleb128 0xe
 8736 7e1a EE760000 		.long	0x76ee
 8737 7e1e 63       		.uleb128 0x63
 8738 7e1f 9E750000 		.long	0x759e
 8739 7e23 7E090000 		.long	LFB1087
 8740 7e27 87000000 		.long	LFE1087-LFB1087
 8741 7e2b 01       		.uleb128 0x1
 8742 7e2c 9C       		.byte	0x9c
 8743 7e2d 357E0000 		.long	0x7e35
 8744 7e31 4E7E0000 		.long	0x7e4e
 8745 7e35 64       		.uleb128 0x64
 8746 7e36 82010000 		.secrel32	LASF52
 8747 7e3a A4780000 		.long	0x78a4
 8748 7e3e 02       		.uleb128 0x2
 8749 7e3f 91       		.byte	0x91
 8750 7e40 74       		.sleb128 -12
 8751 7e41 69       		.uleb128 0x69
 8752 7e42 6600     		.ascii "f\0"
 8753 7e44 03       		.byte	0x3
 8754 7e45 97       		.byte	0x97
 8755 7e46 4E7E0000 		.long	0x7e4e
 8756 7e4a 02       		.uleb128 0x2
 8757 7e4b 91       		.byte	0x91
 8758 7e4c 00       		.sleb128 0
 8759 7e4d 00       		.byte	0
 8760 7e4e 0E       		.uleb128 0xe
 8761 7e4f EE760000 		.long	0x76ee
 8762 7e53 63       		.uleb128 0x63
 8763 7e54 D4750000 		.long	0x75d4
 8764 7e58 060A0000 		.long	LFB1088
 8765 7e5c 87000000 		.long	LFE1088-LFB1088
 8766 7e60 01       		.uleb128 0x1
 8767 7e61 9C       		.byte	0x9c
 8768 7e62 6A7E0000 		.long	0x7e6a
 8769 7e66 837E0000 		.long	0x7e83
 8770 7e6a 64       		.uleb128 0x64
 8771 7e6b 82010000 		.secrel32	LASF52
 8772 7e6f A4780000 		.long	0x78a4
 8773 7e73 02       		.uleb128 0x2
 8774 7e74 91       		.byte	0x91
 8775 7e75 74       		.sleb128 -12
 8776 7e76 69       		.uleb128 0x69
 8777 7e77 6600     		.ascii "f\0"
 8778 7e79 03       		.byte	0x3
 8779 7e7a A2       		.byte	0xa2
 8780 7e7b 837E0000 		.long	0x7e83
 8781 7e7f 02       		.uleb128 0x2
GAS LISTING C:\Users\USER\AppData\Local\Temp\ccFSuTGK.s 			page 193


 8782 7e80 91       		.byte	0x91
 8783 7e81 00       		.sleb128 0
 8784 7e82 00       		.byte	0
 8785 7e83 0E       		.uleb128 0xe
 8786 7e84 EE760000 		.long	0x76ee
 8787 7e88 63       		.uleb128 0x63
 8788 7e89 0B760000 		.long	0x760b
 8789 7e8d 8E0A0000 		.long	LFB1089
 8790 7e91 87000000 		.long	LFE1089-LFB1089
 8791 7e95 01       		.uleb128 0x1
 8792 7e96 9C       		.byte	0x9c
 8793 7e97 9F7E0000 		.long	0x7e9f
 8794 7e9b B87E0000 		.long	0x7eb8
 8795 7e9f 64       		.uleb128 0x64
 8796 7ea0 82010000 		.secrel32	LASF52
 8797 7ea4 A4780000 		.long	0x78a4
 8798 7ea8 02       		.uleb128 0x2
 8799 7ea9 91       		.byte	0x91
 8800 7eaa 74       		.sleb128 -12
 8801 7eab 69       		.uleb128 0x69
 8802 7eac 6600     		.ascii "f\0"
 8803 7eae 03       		.byte	0x3
 8804 7eaf AD       		.byte	0xad
 8805 7eb0 B87E0000 		.long	0x7eb8
 8806 7eb4 02       		.uleb128 0x2
 8807 7eb5 91       		.byte	0x91
 8808 7eb6 00       		.sleb128 0
 8809 7eb7 00       		.byte	0
 8810 7eb8 0E       		.uleb128 0xe
 8811 7eb9 EE760000 		.long	0x76ee
 8812 7ebd 68       		.uleb128 0x68
 8813 7ebe 42760000 		.long	0x7642
 8814 7ec2 160B0000 		.long	LFB1090
 8815 7ec6 2C000000 		.long	LFE1090-LFB1090
 8816 7eca 01       		.uleb128 0x1
 8817 7ecb 9C       		.byte	0x9c
 8818 7ecc D47E0000 		.long	0x7ed4
 8819 7ed0 FC7E0000 		.long	0x7efc
 8820 7ed4 64       		.uleb128 0x64
 8821 7ed5 82010000 		.secrel32	LASF52
 8822 7ed9 A4780000 		.long	0x78a4
 8823 7edd 02       		.uleb128 0x2
 8824 7ede 91       		.byte	0x91
 8825 7edf 00       		.sleb128 0
 8826 7ee0 69       		.uleb128 0x69
 8827 7ee1 6100     		.ascii "a\0"
 8828 7ee3 03       		.byte	0x3
 8829 7ee4 B8       		.byte	0xb8
 8830 7ee5 A4640000 		.long	0x64a4
 8831 7ee9 02       		.uleb128 0x2
 8832 7eea 91       		.byte	0x91
 8833 7eeb 04       		.sleb128 4
 8834 7eec 6C       		.uleb128 0x6c
 8835 7eed 61757800 		.ascii "aux\0"
 8836 7ef1 03       		.byte	0x3
 8837 7ef2 BA       		.byte	0xba
 8838 7ef3 5E710000 		.long	0x715e
GAS LISTING C:\Users\USER\AppData\Local\Temp\ccFSuTGK.s 			page 194


 8839 7ef7 03       		.uleb128 0x3
 8840 7ef8 91       		.byte	0x91
 8841 7ef9 74       		.sleb128 -12
 8842 7efa 06       		.byte	0x6
 8843 7efb 00       		.byte	0
 8844 7efc 68       		.uleb128 0x68
 8845 7efd 6F760000 		.long	0x766f
 8846 7f01 420B0000 		.long	LFB1091
 8847 7f05 18000000 		.long	LFE1091-LFB1091
 8848 7f09 01       		.uleb128 0x1
 8849 7f0a 9C       		.byte	0x9c
 8850 7f0b 137F0000 		.long	0x7f13
 8851 7f0f 207F0000 		.long	0x7f20
 8852 7f13 64       		.uleb128 0x64
 8853 7f14 82010000 		.secrel32	LASF52
 8854 7f18 A4780000 		.long	0x78a4
 8855 7f1c 02       		.uleb128 0x2
 8856 7f1d 91       		.byte	0x91
 8857 7f1e 74       		.sleb128 -12
 8858 7f1f 00       		.byte	0
 8859 7f20 68       		.uleb128 0x68
 8860 7f21 97760000 		.long	0x7697
 8861 7f25 5A0B0000 		.long	LFB1092
 8862 7f29 2F000000 		.long	LFE1092-LFB1092
 8863 7f2d 01       		.uleb128 0x1
 8864 7f2e 9C       		.byte	0x9c
 8865 7f2f 377F0000 		.long	0x7f37
 8866 7f33 667F0000 		.long	0x7f66
 8867 7f37 64       		.uleb128 0x64
 8868 7f38 82010000 		.secrel32	LASF52
 8869 7f3c A4780000 		.long	0x78a4
 8870 7f40 02       		.uleb128 0x2
 8871 7f41 91       		.byte	0x91
 8872 7f42 64       		.sleb128 -28
 8873 7f43 69       		.uleb128 0x69
 8874 7f44 6400     		.ascii "d\0"
 8875 7f46 03       		.byte	0x3
 8876 7f47 C4       		.byte	0xc4
 8877 7f48 A4640000 		.long	0x64a4
 8878 7f4c 02       		.uleb128 0x2
 8879 7f4d 91       		.byte	0x91
 8880 7f4e 00       		.sleb128 0
 8881 7f4f 6D       		.uleb128 0x6d
 8882 7f50 630B0000 		.long	LBB9
 8883 7f54 1F000000 		.long	LBE9-LBB9
 8884 7f58 6C       		.uleb128 0x6c
 8885 7f59 6900     		.ascii "i\0"
 8886 7f5b 03       		.byte	0x3
 8887 7f5c C6       		.byte	0xc6
 8888 7f5d A4640000 		.long	0x64a4
 8889 7f61 02       		.uleb128 0x2
 8890 7f62 91       		.byte	0x91
 8891 7f63 74       		.sleb128 -12
 8892 7f64 00       		.byte	0
 8893 7f65 00       		.byte	0
 8894 7f66 65       		.uleb128 0x65
 8895 7f67 B8770000 		.long	0x77b8
GAS LISTING C:\Users\USER\AppData\Local\Temp\ccFSuTGK.s 			page 195


 8896 7f6b 02       		.byte	0x2
 8897 7f6c 07       		.byte	0x7
 8898 7f6d 02       		.byte	0x2
 8899 7f6e 767F0000 		.long	0x7f76
 8900 7f72 897F0000 		.long	0x7f89
 8901 7f76 60       		.uleb128 0x60
 8902 7f77 82010000 		.secrel32	LASF52
 8903 7f7b F1780000 		.long	0x78f1
 8904 7f7f 60       		.uleb128 0x60
 8905 7f80 71010000 		.secrel32	LASF53
 8906 7f84 46700000 		.long	0x7046
 8907 7f88 00       		.byte	0
 8908 7f89 66       		.uleb128 0x66
 8909 7f8a 667F0000 		.long	0x7f66
 8910 7f8e 5F5A4E31 		.ascii "_ZN13FechaNoValidaD1Ev\0"
 8910      33466563 
 8910      68614E6F 
 8910      56616C69 
 8910      64614431 
 8911 7fa5 00000000 		.long	LFB1208
 8912 7fa9 33000000 		.long	LFE1208-LFB1208
 8913 7fad 01       		.uleb128 0x1
 8914 7fae 9C       		.byte	0x9c
 8915 7faf B77F0000 		.long	0x7fb7
 8916 7fb3 C07F0000 		.long	0x7fc0
 8917 7fb7 62       		.uleb128 0x62
 8918 7fb8 767F0000 		.long	0x7f76
 8919 7fbc 02       		.uleb128 0x2
 8920 7fbd 91       		.byte	0x91
 8921 7fbe 6C       		.sleb128 -20
 8922 7fbf 00       		.byte	0
 8923 7fc0 66       		.uleb128 0x66
 8924 7fc1 667F0000 		.long	0x7f66
 8925 7fc5 5F5A4E31 		.ascii "_ZN13FechaNoValidaD0Ev\0"
 8925      33466563 
 8925      68614E6F 
 8925      56616C69 
 8925      64614430 
 8926 7fdc 00000000 		.long	LFB1209
 8927 7fe0 20000000 		.long	LFE1209-LFB1209
 8928 7fe4 01       		.uleb128 0x1
 8929 7fe5 9C       		.byte	0x9c
 8930 7fe6 EE7F0000 		.long	0x7fee
 8931 7fea F77F0000 		.long	0x7ff7
 8932 7fee 62       		.uleb128 0x62
 8933 7fef 767F0000 		.long	0x7f76
 8934 7ff3 02       		.uleb128 0x2
 8935 7ff4 91       		.byte	0x91
 8936 7ff5 6C       		.sleb128 -20
 8937 7ff6 00       		.byte	0
 8938 7ff7 6F       		.uleb128 0x6f
 8939 7ff8 5F5F7463 		.ascii "__tcf_0\0"
 8939      665F3000 
 8940 8000 890B0000 		.long	LFB1211
 8941 8004 12000000 		.long	LFE1211-LFB1211
 8942 8008 01       		.uleb128 0x1
 8943 8009 9C       		.byte	0x9c
GAS LISTING C:\Users\USER\AppData\Local\Temp\ccFSuTGK.s 			page 196


 8944 800a 70       		.uleb128 0x70
 8945 800b 5F5F7374 		.ascii "__static_initialization_and_destruction_0\0"
 8945      61746963 
 8945      5F696E69 
 8945      7469616C 
 8945      697A6174 
 8946 8035 9B0B0000 		.long	LFB1210
 8947 8039 2E000000 		.long	LFE1210-LFB1210
 8948 803d 01       		.uleb128 0x1
 8949 803e 9C       		.byte	0x9c
 8950 803f 72800000 		.long	0x8072
 8951 8043 69       		.uleb128 0x69
 8952 8044 5F5F696E 		.ascii "__initialize_p\0"
 8952      69746961 
 8952      6C697A65 
 8952      5F7000
 8953 8053 03       		.byte	0x3
 8954 8054 CA       		.byte	0xca
 8955 8055 A4640000 		.long	0x64a4
 8956 8059 02       		.uleb128 0x2
 8957 805a 91       		.byte	0x91
 8958 805b 00       		.sleb128 0
 8959 805c 69       		.uleb128 0x69
 8960 805d 5F5F7072 		.ascii "__priority\0"
 8960      696F7269 
 8960      747900
 8961 8068 03       		.byte	0x3
 8962 8069 CA       		.byte	0xca
 8963 806a A4640000 		.long	0x64a4
 8964 806e 02       		.uleb128 0x2
 8965 806f 91       		.byte	0x91
 8966 8070 04       		.sleb128 4
 8967 8071 00       		.byte	0
 8968 8072 6F       		.uleb128 0x6f
 8969 8073 5F474C4F 		.ascii "_GLOBAL__sub_I__ZN5FechaC2Ev\0"
 8969      42414C5F 
 8969      5F737562 
 8969      5F495F5F 
 8969      5A4E3546 
 8970 8090 C90B0000 		.long	LFB1212
 8971 8094 1C000000 		.long	LFE1212-LFB1212
 8972 8098 01       		.uleb128 0x1
 8973 8099 9C       		.byte	0x9c
 8974 809a 71       		.uleb128 0x71
 8975 809b 444D0000 		.long	0x4d44
 8976 809f 05       		.uleb128 0x5
 8977 80a0 03       		.byte	0x3
 8978 80a1 00000000 		.long	__ZStL8__ioinit
 8979 80a5 72       		.uleb128 0x72
 8980 80a6 21510000 		.long	0x5121
 8981 80aa 5F5A4E39 		.ascii "_ZN9__gnu_cxx24__numeric_traits_integerIiE5__minE\0"
 8981      5F5F676E 
 8981      755F6378 
 8981      7832345F 
 8981      5F6E756D 
 8982 80dc 80808080 		.sleb128 -2147483648
 8982      78
GAS LISTING C:\Users\USER\AppData\Local\Temp\ccFSuTGK.s 			page 197


 8983 80e1 73       		.uleb128 0x73
 8984 80e2 2C510000 		.long	0x512c
 8985 80e6 5F5A4E39 		.ascii "_ZN9__gnu_cxx24__numeric_traits_integerIiE5__maxE\0"
 8985      5F5F676E 
 8985      755F6378 
 8985      7832345F 
 8985      5F6E756D 
 8986 8118 FFFFFF7F 		.long	0x7fffffff
 8987 811c 74       		.uleb128 0x74
 8988 811d 36630000 		.long	0x6336
 8989 8121 5F5A4E39 		.ascii "_ZN9__gnu_cxx24__numeric_traits_integerImE8__digitsE\0"
 8989      5F5F676E 
 8989      755F6378 
 8989      7832345F 
 8989      5F6E756D 
 8990 8156 20       		.byte	0x20
 8991 8157 74       		.uleb128 0x74
 8992 8158 7D630000 		.long	0x637d
 8993 815c 5F5A4E39 		.ascii "_ZN9__gnu_cxx24__numeric_traits_integerIcE5__maxE\0"
 8993      5F5F676E 
 8993      755F6378 
 8993      7832345F 
 8993      5F6E756D 
 8994 818e 7F       		.byte	0x7f
 8995 818f 72       		.uleb128 0x72
 8996 8190 D4630000 		.long	0x63d4
 8997 8194 5F5A4E39 		.ascii "_ZN9__gnu_cxx24__numeric_traits_integerIsE5__minE\0"
 8997      5F5F676E 
 8997      755F6378 
 8997      7832345F 
 8997      5F6E756D 
 8998 81c6 80807E   		.sleb128 -32768
 8999 81c9 75       		.uleb128 0x75
 9000 81ca DF630000 		.long	0x63df
 9001 81ce 5F5A4E39 		.ascii "_ZN9__gnu_cxx24__numeric_traits_integerIsE5__maxE\0"
 9001      5F5F676E 
 9001      755F6378 
 9001      7832345F 
 9001      5F6E756D 
 9002 8200 FF7F     		.word	0x7fff
 9003 8202 00       		.byte	0
 9004              		.section	.debug_abbrev,"dr"
 9005              	Ldebug_abbrev0:
 9006 0000 01       		.uleb128 0x1
 9007 0001 11       		.uleb128 0x11
 9008 0002 01       		.byte	0x1
 9009 0003 25       		.uleb128 0x25
 9010 0004 08       		.uleb128 0x8
 9011 0005 13       		.uleb128 0x13
 9012 0006 0B       		.uleb128 0xb
 9013 0007 03       		.uleb128 0x3
 9014 0008 08       		.uleb128 0x8
 9015 0009 1B       		.uleb128 0x1b
 9016 000a 08       		.uleb128 0x8
 9017 000b 55       		.uleb128 0x55
 9018 000c 17       		.uleb128 0x17
 9019 000d 11       		.uleb128 0x11
GAS LISTING C:\Users\USER\AppData\Local\Temp\ccFSuTGK.s 			page 198


 9020 000e 01       		.uleb128 0x1
 9021 000f 10       		.uleb128 0x10
 9022 0010 17       		.uleb128 0x17
 9023 0011 00       		.byte	0
 9024 0012 00       		.byte	0
 9025 0013 02       		.uleb128 0x2
 9026 0014 39       		.uleb128 0x39
 9027 0015 01       		.byte	0x1
 9028 0016 03       		.uleb128 0x3
 9029 0017 08       		.uleb128 0x8
 9030 0018 3A       		.uleb128 0x3a
 9031 0019 0B       		.uleb128 0xb
 9032 001a 3B       		.uleb128 0x3b
 9033 001b 0B       		.uleb128 0xb
 9034 001c 01       		.uleb128 0x1
 9035 001d 13       		.uleb128 0x13
 9036 001e 00       		.byte	0
 9037 001f 00       		.byte	0
 9038 0020 03       		.uleb128 0x3
 9039 0021 02       		.uleb128 0x2
 9040 0022 01       		.byte	0x1
 9041 0023 03       		.uleb128 0x3
 9042 0024 08       		.uleb128 0x8
 9043 0025 0B       		.uleb128 0xb
 9044 0026 0B       		.uleb128 0xb
 9045 0027 3A       		.uleb128 0x3a
 9046 0028 0B       		.uleb128 0xb
 9047 0029 3B       		.uleb128 0x3b
 9048 002a 0B       		.uleb128 0xb
 9049 002b 01       		.uleb128 0x1
 9050 002c 13       		.uleb128 0x13
 9051 002d 00       		.byte	0
 9052 002e 00       		.byte	0
 9053 002f 04       		.uleb128 0x4
 9054 0030 13       		.uleb128 0x13
 9055 0031 01       		.byte	0x1
 9056 0032 03       		.uleb128 0x3
 9057 0033 0E       		.uleb128 0xe
 9058 0034 0B       		.uleb128 0xb
 9059 0035 0B       		.uleb128 0xb
 9060 0036 3A       		.uleb128 0x3a
 9061 0037 0B       		.uleb128 0xb
 9062 0038 3B       		.uleb128 0x3b
 9063 0039 0B       		.uleb128 0xb
 9064 003a 01       		.uleb128 0x1
 9065 003b 13       		.uleb128 0x13
 9066 003c 00       		.byte	0
 9067 003d 00       		.byte	0
 9068 003e 05       		.uleb128 0x5
 9069 003f 1C       		.uleb128 0x1c
 9070 0040 00       		.byte	0
 9071 0041 49       		.uleb128 0x49
 9072 0042 13       		.uleb128 0x13
 9073 0043 38       		.uleb128 0x38
 9074 0044 0B       		.uleb128 0xb
 9075 0045 00       		.byte	0
 9076 0046 00       		.byte	0
GAS LISTING C:\Users\USER\AppData\Local\Temp\ccFSuTGK.s 			page 199


 9077 0047 06       		.uleb128 0x6
 9078 0048 0D       		.uleb128 0xd
 9079 0049 00       		.byte	0
 9080 004a 03       		.uleb128 0x3
 9081 004b 08       		.uleb128 0x8
 9082 004c 3A       		.uleb128 0x3a
 9083 004d 0B       		.uleb128 0xb
 9084 004e 3B       		.uleb128 0x3b
 9085 004f 0B       		.uleb128 0xb
 9086 0050 49       		.uleb128 0x49
 9087 0051 13       		.uleb128 0x13
 9088 0052 38       		.uleb128 0x38
 9089 0053 0B       		.uleb128 0xb
 9090 0054 00       		.byte	0
 9091 0055 00       		.byte	0
 9092 0056 07       		.uleb128 0x7
 9093 0057 2E       		.uleb128 0x2e
 9094 0058 01       		.byte	0x1
 9095 0059 3F       		.uleb128 0x3f
 9096 005a 19       		.uleb128 0x19
 9097 005b 03       		.uleb128 0x3
 9098 005c 0E       		.uleb128 0xe
 9099 005d 3A       		.uleb128 0x3a
 9100 005e 0B       		.uleb128 0xb
 9101 005f 3B       		.uleb128 0x3b
 9102 0060 0B       		.uleb128 0xb
 9103 0061 6E       		.uleb128 0x6e
 9104 0062 08       		.uleb128 0x8
 9105 0063 3C       		.uleb128 0x3c
 9106 0064 19       		.uleb128 0x19
 9107 0065 64       		.uleb128 0x64
 9108 0066 13       		.uleb128 0x13
 9109 0067 00       		.byte	0
 9110 0068 00       		.byte	0
 9111 0069 08       		.uleb128 0x8
 9112 006a 05       		.uleb128 0x5
 9113 006b 00       		.byte	0
 9114 006c 49       		.uleb128 0x49
 9115 006d 13       		.uleb128 0x13
 9116 006e 34       		.uleb128 0x34
 9117 006f 19       		.uleb128 0x19
 9118 0070 00       		.byte	0
 9119 0071 00       		.byte	0
 9120 0072 09       		.uleb128 0x9
 9121 0073 05       		.uleb128 0x5
 9122 0074 00       		.byte	0
 9123 0075 49       		.uleb128 0x49
 9124 0076 13       		.uleb128 0x13
 9125 0077 00       		.byte	0
 9126 0078 00       		.byte	0
 9127 0079 0A       		.uleb128 0xa
 9128 007a 16       		.uleb128 0x16
 9129 007b 00       		.byte	0
 9130 007c 03       		.uleb128 0x3
 9131 007d 0E       		.uleb128 0xe
 9132 007e 3A       		.uleb128 0x3a
 9133 007f 0B       		.uleb128 0xb
GAS LISTING C:\Users\USER\AppData\Local\Temp\ccFSuTGK.s 			page 200


 9134 0080 3B       		.uleb128 0x3b
 9135 0081 0B       		.uleb128 0xb
 9136 0082 49       		.uleb128 0x49
 9137 0083 13       		.uleb128 0x13
 9138 0084 32       		.uleb128 0x32
 9139 0085 0B       		.uleb128 0xb
 9140 0086 00       		.byte	0
 9141 0087 00       		.byte	0
 9142 0088 0B       		.uleb128 0xb
 9143 0089 17       		.uleb128 0x17
 9144 008a 01       		.byte	0x1
 9145 008b 0B       		.uleb128 0xb
 9146 008c 0B       		.uleb128 0xb
 9147 008d 3A       		.uleb128 0x3a
 9148 008e 0B       		.uleb128 0xb
 9149 008f 3B       		.uleb128 0x3b
 9150 0090 0B       		.uleb128 0xb
 9151 0091 01       		.uleb128 0x1
 9152 0092 13       		.uleb128 0x13
 9153 0093 00       		.byte	0
 9154 0094 00       		.byte	0
 9155 0095 0C       		.uleb128 0xc
 9156 0096 0D       		.uleb128 0xd
 9157 0097 00       		.byte	0
 9158 0098 03       		.uleb128 0x3
 9159 0099 08       		.uleb128 0x8
 9160 009a 3A       		.uleb128 0x3a
 9161 009b 0B       		.uleb128 0xb
 9162 009c 3B       		.uleb128 0x3b
 9163 009d 0B       		.uleb128 0xb
 9164 009e 49       		.uleb128 0x49
 9165 009f 13       		.uleb128 0x13
 9166 00a0 00       		.byte	0
 9167 00a1 00       		.byte	0
 9168 00a2 0D       		.uleb128 0xd
 9169 00a3 0D       		.uleb128 0xd
 9170 00a4 00       		.byte	0
 9171 00a5 03       		.uleb128 0x3
 9172 00a6 08       		.uleb128 0x8
 9173 00a7 3A       		.uleb128 0x3a
 9174 00a8 0B       		.uleb128 0xb
 9175 00a9 3B       		.uleb128 0x3b
 9176 00aa 0B       		.uleb128 0xb
 9177 00ab 49       		.uleb128 0x49
 9178 00ac 13       		.uleb128 0x13
 9179 00ad 3F       		.uleb128 0x3f
 9180 00ae 19       		.uleb128 0x19
 9181 00af 32       		.uleb128 0x32
 9182 00b0 0B       		.uleb128 0xb
 9183 00b1 3C       		.uleb128 0x3c
 9184 00b2 19       		.uleb128 0x19
 9185 00b3 00       		.byte	0
 9186 00b4 00       		.byte	0
 9187 00b5 0E       		.uleb128 0xe
 9188 00b6 26       		.uleb128 0x26
 9189 00b7 00       		.byte	0
 9190 00b8 49       		.uleb128 0x49
GAS LISTING C:\Users\USER\AppData\Local\Temp\ccFSuTGK.s 			page 201


 9191 00b9 13       		.uleb128 0x13
 9192 00ba 00       		.byte	0
 9193 00bb 00       		.byte	0
 9194 00bc 0F       		.uleb128 0xf
 9195 00bd 0D       		.uleb128 0xd
 9196 00be 00       		.byte	0
 9197 00bf 49       		.uleb128 0x49
 9198 00c0 13       		.uleb128 0x13
 9199 00c1 38       		.uleb128 0x38
 9200 00c2 0B       		.uleb128 0xb
 9201 00c3 00       		.byte	0
 9202 00c4 00       		.byte	0
 9203 00c5 10       		.uleb128 0x10
 9204 00c6 16       		.uleb128 0x16
 9205 00c7 00       		.byte	0
 9206 00c8 03       		.uleb128 0x3
 9207 00c9 08       		.uleb128 0x8
 9208 00ca 3A       		.uleb128 0x3a
 9209 00cb 0B       		.uleb128 0xb
 9210 00cc 3B       		.uleb128 0x3b
 9211 00cd 0B       		.uleb128 0xb
 9212 00ce 49       		.uleb128 0x49
 9213 00cf 13       		.uleb128 0x13
 9214 00d0 00       		.byte	0
 9215 00d1 00       		.byte	0
 9216 00d2 11       		.uleb128 0x11
 9217 00d3 16       		.uleb128 0x16
 9218 00d4 00       		.byte	0
 9219 00d5 03       		.uleb128 0x3
 9220 00d6 08       		.uleb128 0x8
 9221 00d7 3A       		.uleb128 0x3a
 9222 00d8 0B       		.uleb128 0xb
 9223 00d9 3B       		.uleb128 0x3b
 9224 00da 0B       		.uleb128 0xb
 9225 00db 49       		.uleb128 0x49
 9226 00dc 13       		.uleb128 0x13
 9227 00dd 32       		.uleb128 0x32
 9228 00de 0B       		.uleb128 0xb
 9229 00df 00       		.byte	0
 9230 00e0 00       		.byte	0
 9231 00e1 12       		.uleb128 0x12
 9232 00e2 2E       		.uleb128 0x2e
 9233 00e3 01       		.byte	0x1
 9234 00e4 3F       		.uleb128 0x3f
 9235 00e5 19       		.uleb128 0x19
 9236 00e6 03       		.uleb128 0x3
 9237 00e7 08       		.uleb128 0x8
 9238 00e8 3A       		.uleb128 0x3a
 9239 00e9 0B       		.uleb128 0xb
 9240 00ea 3B       		.uleb128 0x3b
 9241 00eb 0B       		.uleb128 0xb
 9242 00ec 6E       		.uleb128 0x6e
 9243 00ed 08       		.uleb128 0x8
 9244 00ee 3C       		.uleb128 0x3c
 9245 00ef 19       		.uleb128 0x19
 9246 00f0 64       		.uleb128 0x64
 9247 00f1 13       		.uleb128 0x13
GAS LISTING C:\Users\USER\AppData\Local\Temp\ccFSuTGK.s 			page 202


 9248 00f2 01       		.uleb128 0x1
 9249 00f3 13       		.uleb128 0x13
 9250 00f4 00       		.byte	0
 9251 00f5 00       		.byte	0
 9252 00f6 13       		.uleb128 0x13
 9253 00f7 2E       		.uleb128 0x2e
 9254 00f8 01       		.byte	0x1
 9255 00f9 3F       		.uleb128 0x3f
 9256 00fa 19       		.uleb128 0x19
 9257 00fb 03       		.uleb128 0x3
 9258 00fc 08       		.uleb128 0x8
 9259 00fd 3A       		.uleb128 0x3a
 9260 00fe 0B       		.uleb128 0xb
 9261 00ff 3B       		.uleb128 0x3b
 9262 0100 0B       		.uleb128 0xb
 9263 0101 6E       		.uleb128 0x6e
 9264 0102 08       		.uleb128 0x8
 9265 0103 49       		.uleb128 0x49
 9266 0104 13       		.uleb128 0x13
 9267 0105 3C       		.uleb128 0x3c
 9268 0106 19       		.uleb128 0x19
 9269 0107 64       		.uleb128 0x64
 9270 0108 13       		.uleb128 0x13
 9271 0109 01       		.uleb128 0x1
 9272 010a 13       		.uleb128 0x13
 9273 010b 00       		.byte	0
 9274 010c 00       		.byte	0
 9275 010d 14       		.uleb128 0x14
 9276 010e 2E       		.uleb128 0x2e
 9277 010f 01       		.byte	0x1
 9278 0110 3F       		.uleb128 0x3f
 9279 0111 19       		.uleb128 0x19
 9280 0112 03       		.uleb128 0x3
 9281 0113 0E       		.uleb128 0xe
 9282 0114 3A       		.uleb128 0x3a
 9283 0115 0B       		.uleb128 0xb
 9284 0116 3B       		.uleb128 0x3b
 9285 0117 0B       		.uleb128 0xb
 9286 0118 6E       		.uleb128 0x6e
 9287 0119 08       		.uleb128 0x8
 9288 011a 49       		.uleb128 0x49
 9289 011b 13       		.uleb128 0x13
 9290 011c 3C       		.uleb128 0x3c
 9291 011d 19       		.uleb128 0x19
 9292 011e 64       		.uleb128 0x64
 9293 011f 13       		.uleb128 0x13
 9294 0120 01       		.uleb128 0x1
 9295 0121 13       		.uleb128 0x13
 9296 0122 00       		.byte	0
 9297 0123 00       		.byte	0
 9298 0124 15       		.uleb128 0x15
 9299 0125 2E       		.uleb128 0x2e
 9300 0126 01       		.byte	0x1
 9301 0127 3F       		.uleb128 0x3f
 9302 0128 19       		.uleb128 0x19
 9303 0129 03       		.uleb128 0x3
 9304 012a 08       		.uleb128 0x8
GAS LISTING C:\Users\USER\AppData\Local\Temp\ccFSuTGK.s 			page 203


 9305 012b 3A       		.uleb128 0x3a
 9306 012c 0B       		.uleb128 0xb
 9307 012d 3B       		.uleb128 0x3b
 9308 012e 05       		.uleb128 0x5
 9309 012f 6E       		.uleb128 0x6e
 9310 0130 08       		.uleb128 0x8
 9311 0131 49       		.uleb128 0x49
 9312 0132 13       		.uleb128 0x13
 9313 0133 3C       		.uleb128 0x3c
 9314 0134 19       		.uleb128 0x19
 9315 0135 64       		.uleb128 0x64
 9316 0136 13       		.uleb128 0x13
 9317 0137 01       		.uleb128 0x1
 9318 0138 13       		.uleb128 0x13
 9319 0139 00       		.byte	0
 9320 013a 00       		.byte	0
 9321 013b 16       		.uleb128 0x16
 9322 013c 2E       		.uleb128 0x2e
 9323 013d 01       		.byte	0x1
 9324 013e 3F       		.uleb128 0x3f
 9325 013f 19       		.uleb128 0x19
 9326 0140 03       		.uleb128 0x3
 9327 0141 08       		.uleb128 0x8
 9328 0142 3A       		.uleb128 0x3a
 9329 0143 0B       		.uleb128 0xb
 9330 0144 3B       		.uleb128 0x3b
 9331 0145 05       		.uleb128 0x5
 9332 0146 6E       		.uleb128 0x6e
 9333 0147 08       		.uleb128 0x8
 9334 0148 3C       		.uleb128 0x3c
 9335 0149 19       		.uleb128 0x19
 9336 014a 64       		.uleb128 0x64
 9337 014b 13       		.uleb128 0x13
 9338 014c 01       		.uleb128 0x1
 9339 014d 13       		.uleb128 0x13
 9340 014e 00       		.byte	0
 9341 014f 00       		.byte	0
 9342 0150 17       		.uleb128 0x17
 9343 0151 2E       		.uleb128 0x2e
 9344 0152 01       		.byte	0x1
 9345 0153 3F       		.uleb128 0x3f
 9346 0154 19       		.uleb128 0x19
 9347 0155 03       		.uleb128 0x3
 9348 0156 08       		.uleb128 0x8
 9349 0157 3A       		.uleb128 0x3a
 9350 0158 0B       		.uleb128 0xb
 9351 0159 3B       		.uleb128 0x3b
 9352 015a 05       		.uleb128 0x5
 9353 015b 6E       		.uleb128 0x6e
 9354 015c 08       		.uleb128 0x8
 9355 015d 3C       		.uleb128 0x3c
 9356 015e 19       		.uleb128 0x19
 9357 015f 01       		.uleb128 0x1
 9358 0160 13       		.uleb128 0x13
 9359 0161 00       		.byte	0
 9360 0162 00       		.byte	0
 9361 0163 18       		.uleb128 0x18
GAS LISTING C:\Users\USER\AppData\Local\Temp\ccFSuTGK.s 			page 204


 9362 0164 2E       		.uleb128 0x2e
 9363 0165 01       		.byte	0x1
 9364 0166 3F       		.uleb128 0x3f
 9365 0167 19       		.uleb128 0x19
 9366 0168 03       		.uleb128 0x3
 9367 0169 0E       		.uleb128 0xe
 9368 016a 3A       		.uleb128 0x3a
 9369 016b 0B       		.uleb128 0xb
 9370 016c 3B       		.uleb128 0x3b
 9371 016d 05       		.uleb128 0x5
 9372 016e 6E       		.uleb128 0x6e
 9373 016f 08       		.uleb128 0x8
 9374 0170 3C       		.uleb128 0x3c
 9375 0171 19       		.uleb128 0x19
 9376 0172 01       		.uleb128 0x1
 9377 0173 13       		.uleb128 0x13
 9378 0174 00       		.byte	0
 9379 0175 00       		.byte	0
 9380 0176 19       		.uleb128 0x19
 9381 0177 2E       		.uleb128 0x2e
 9382 0178 01       		.byte	0x1
 9383 0179 3F       		.uleb128 0x3f
 9384 017a 19       		.uleb128 0x19
 9385 017b 03       		.uleb128 0x3
 9386 017c 08       		.uleb128 0x8
 9387 017d 3A       		.uleb128 0x3a
 9388 017e 0B       		.uleb128 0xb
 9389 017f 3B       		.uleb128 0x3b
 9390 0180 05       		.uleb128 0x5
 9391 0181 6E       		.uleb128 0x6e
 9392 0182 08       		.uleb128 0x8
 9393 0183 49       		.uleb128 0x49
 9394 0184 13       		.uleb128 0x13
 9395 0185 3C       		.uleb128 0x3c
 9396 0186 19       		.uleb128 0x19
 9397 0187 01       		.uleb128 0x1
 9398 0188 13       		.uleb128 0x13
 9399 0189 00       		.byte	0
 9400 018a 00       		.byte	0
 9401 018b 1A       		.uleb128 0x1a
 9402 018c 2E       		.uleb128 0x2e
 9403 018d 01       		.byte	0x1
 9404 018e 3F       		.uleb128 0x3f
 9405 018f 19       		.uleb128 0x19
 9406 0190 03       		.uleb128 0x3
 9407 0191 0E       		.uleb128 0xe
 9408 0192 3A       		.uleb128 0x3a
 9409 0193 0B       		.uleb128 0xb
 9410 0194 3B       		.uleb128 0x3b
 9411 0195 05       		.uleb128 0x5
 9412 0196 6E       		.uleb128 0x6e
 9413 0197 08       		.uleb128 0x8
 9414 0198 32       		.uleb128 0x32
 9415 0199 0B       		.uleb128 0xb
 9416 019a 3C       		.uleb128 0x3c
 9417 019b 19       		.uleb128 0x19
 9418 019c 64       		.uleb128 0x64
GAS LISTING C:\Users\USER\AppData\Local\Temp\ccFSuTGK.s 			page 205


 9419 019d 13       		.uleb128 0x13
 9420 019e 01       		.uleb128 0x1
 9421 019f 13       		.uleb128 0x13
 9422 01a0 00       		.byte	0
 9423 01a1 00       		.byte	0
 9424 01a2 1B       		.uleb128 0x1b
 9425 01a3 2E       		.uleb128 0x2e
 9426 01a4 01       		.byte	0x1
 9427 01a5 3F       		.uleb128 0x3f
 9428 01a6 19       		.uleb128 0x19
 9429 01a7 03       		.uleb128 0x3
 9430 01a8 0E       		.uleb128 0xe
 9431 01a9 3A       		.uleb128 0x3a
 9432 01aa 0B       		.uleb128 0xb
 9433 01ab 3B       		.uleb128 0x3b
 9434 01ac 05       		.uleb128 0x5
 9435 01ad 6E       		.uleb128 0x6e
 9436 01ae 08       		.uleb128 0x8
 9437 01af 32       		.uleb128 0x32
 9438 01b0 0B       		.uleb128 0xb
 9439 01b1 3C       		.uleb128 0x3c
 9440 01b2 19       		.uleb128 0x19
 9441 01b3 63       		.uleb128 0x63
 9442 01b4 19       		.uleb128 0x19
 9443 01b5 64       		.uleb128 0x64
 9444 01b6 13       		.uleb128 0x13
 9445 01b7 01       		.uleb128 0x1
 9446 01b8 13       		.uleb128 0x13
 9447 01b9 00       		.byte	0
 9448 01ba 00       		.byte	0
 9449 01bb 1C       		.uleb128 0x1c
 9450 01bc 2E       		.uleb128 0x2e
 9451 01bd 01       		.byte	0x1
 9452 01be 3F       		.uleb128 0x3f
 9453 01bf 19       		.uleb128 0x19
 9454 01c0 03       		.uleb128 0x3
 9455 01c1 08       		.uleb128 0x8
 9456 01c2 3A       		.uleb128 0x3a
 9457 01c3 0B       		.uleb128 0xb
 9458 01c4 3B       		.uleb128 0x3b
 9459 01c5 05       		.uleb128 0x5
 9460 01c6 6E       		.uleb128 0x6e
 9461 01c7 08       		.uleb128 0x8
 9462 01c8 32       		.uleb128 0x32
 9463 01c9 0B       		.uleb128 0xb
 9464 01ca 3C       		.uleb128 0x3c
 9465 01cb 19       		.uleb128 0x19
 9466 01cc 64       		.uleb128 0x64
 9467 01cd 13       		.uleb128 0x13
 9468 01ce 01       		.uleb128 0x1
 9469 01cf 13       		.uleb128 0x13
 9470 01d0 00       		.byte	0
 9471 01d1 00       		.byte	0
 9472 01d2 1D       		.uleb128 0x1d
 9473 01d3 2E       		.uleb128 0x2e
 9474 01d4 01       		.byte	0x1
 9475 01d5 3F       		.uleb128 0x3f
GAS LISTING C:\Users\USER\AppData\Local\Temp\ccFSuTGK.s 			page 206


 9476 01d6 19       		.uleb128 0x19
 9477 01d7 03       		.uleb128 0x3
 9478 01d8 0E       		.uleb128 0xe
 9479 01d9 3A       		.uleb128 0x3a
 9480 01da 0B       		.uleb128 0xb
 9481 01db 3B       		.uleb128 0x3b
 9482 01dc 05       		.uleb128 0x5
 9483 01dd 6E       		.uleb128 0x6e
 9484 01de 08       		.uleb128 0x8
 9485 01df 49       		.uleb128 0x49
 9486 01e0 13       		.uleb128 0x13
 9487 01e1 32       		.uleb128 0x32
 9488 01e2 0B       		.uleb128 0xb
 9489 01e3 3C       		.uleb128 0x3c
 9490 01e4 19       		.uleb128 0x19
 9491 01e5 64       		.uleb128 0x64
 9492 01e6 13       		.uleb128 0x13
 9493 01e7 01       		.uleb128 0x1
 9494 01e8 13       		.uleb128 0x13
 9495 01e9 00       		.byte	0
 9496 01ea 00       		.byte	0
 9497 01eb 1E       		.uleb128 0x1e
 9498 01ec 2E       		.uleb128 0x2e
 9499 01ed 01       		.byte	0x1
 9500 01ee 3F       		.uleb128 0x3f
 9501 01ef 19       		.uleb128 0x19
 9502 01f0 03       		.uleb128 0x3
 9503 01f1 08       		.uleb128 0x8
 9504 01f2 3A       		.uleb128 0x3a
 9505 01f3 0B       		.uleb128 0xb
 9506 01f4 3B       		.uleb128 0x3b
 9507 01f5 05       		.uleb128 0x5
 9508 01f6 6E       		.uleb128 0x6e
 9509 01f7 08       		.uleb128 0x8
 9510 01f8 49       		.uleb128 0x49
 9511 01f9 13       		.uleb128 0x13
 9512 01fa 32       		.uleb128 0x32
 9513 01fb 0B       		.uleb128 0xb
 9514 01fc 3C       		.uleb128 0x3c
 9515 01fd 19       		.uleb128 0x19
 9516 01fe 64       		.uleb128 0x64
 9517 01ff 13       		.uleb128 0x13
 9518 0200 01       		.uleb128 0x1
 9519 0201 13       		.uleb128 0x13
 9520 0202 00       		.byte	0
 9521 0203 00       		.byte	0
 9522 0204 1F       		.uleb128 0x1f
 9523 0205 2E       		.uleb128 0x2e
 9524 0206 01       		.byte	0x1
 9525 0207 3F       		.uleb128 0x3f
 9526 0208 19       		.uleb128 0x19
 9527 0209 03       		.uleb128 0x3
 9528 020a 08       		.uleb128 0x8
 9529 020b 3A       		.uleb128 0x3a
 9530 020c 0B       		.uleb128 0xb
 9531 020d 3B       		.uleb128 0x3b
 9532 020e 0B       		.uleb128 0xb
GAS LISTING C:\Users\USER\AppData\Local\Temp\ccFSuTGK.s 			page 207


 9533 020f 6E       		.uleb128 0x6e
 9534 0210 08       		.uleb128 0x8
 9535 0211 32       		.uleb128 0x32
 9536 0212 0B       		.uleb128 0xb
 9537 0213 3C       		.uleb128 0x3c
 9538 0214 19       		.uleb128 0x19
 9539 0215 64       		.uleb128 0x64
 9540 0216 13       		.uleb128 0x13
 9541 0217 01       		.uleb128 0x1
 9542 0218 13       		.uleb128 0x13
 9543 0219 00       		.byte	0
 9544 021a 00       		.byte	0
 9545 021b 20       		.uleb128 0x20
 9546 021c 2F       		.uleb128 0x2f
 9547 021d 00       		.byte	0
 9548 021e 03       		.uleb128 0x3
 9549 021f 0E       		.uleb128 0xe
 9550 0220 49       		.uleb128 0x49
 9551 0221 13       		.uleb128 0x13
 9552 0222 00       		.byte	0
 9553 0223 00       		.byte	0
 9554 0224 21       		.uleb128 0x21
 9555 0225 2F       		.uleb128 0x2f
 9556 0226 00       		.byte	0
 9557 0227 03       		.uleb128 0x3
 9558 0228 0E       		.uleb128 0xe
 9559 0229 49       		.uleb128 0x49
 9560 022a 13       		.uleb128 0x13
 9561 022b 1E       		.uleb128 0x1e
 9562 022c 19       		.uleb128 0x19
 9563 022d 00       		.byte	0
 9564 022e 00       		.byte	0
 9565 022f 22       		.uleb128 0x22
 9566 0230 02       		.uleb128 0x2
 9567 0231 01       		.byte	0x1
 9568 0232 03       		.uleb128 0x3
 9569 0233 08       		.uleb128 0x8
 9570 0234 3C       		.uleb128 0x3c
 9571 0235 19       		.uleb128 0x19
 9572 0236 00       		.byte	0
 9573 0237 00       		.byte	0
 9574 0238 23       		.uleb128 0x23
 9575 0239 3A       		.uleb128 0x3a
 9576 023a 00       		.byte	0
 9577 023b 3A       		.uleb128 0x3a
 9578 023c 0B       		.uleb128 0xb
 9579 023d 3B       		.uleb128 0x3b
 9580 023e 0B       		.uleb128 0xb
 9581 023f 18       		.uleb128 0x18
 9582 0240 13       		.uleb128 0x13
 9583 0241 00       		.byte	0
 9584 0242 00       		.byte	0
 9585 0243 24       		.uleb128 0x24
 9586 0244 08       		.uleb128 0x8
 9587 0245 00       		.byte	0
 9588 0246 3A       		.uleb128 0x3a
 9589 0247 0B       		.uleb128 0xb
GAS LISTING C:\Users\USER\AppData\Local\Temp\ccFSuTGK.s 			page 208


 9590 0248 3B       		.uleb128 0x3b
 9591 0249 0B       		.uleb128 0xb
 9592 024a 18       		.uleb128 0x18
 9593 024b 13       		.uleb128 0x13
 9594 024c 00       		.byte	0
 9595 024d 00       		.byte	0
 9596 024e 25       		.uleb128 0x25
 9597 024f 08       		.uleb128 0x8
 9598 0250 00       		.byte	0
 9599 0251 3A       		.uleb128 0x3a
 9600 0252 0B       		.uleb128 0xb
 9601 0253 3B       		.uleb128 0x3b
 9602 0254 05       		.uleb128 0x5
 9603 0255 18       		.uleb128 0x18
 9604 0256 13       		.uleb128 0x13
 9605 0257 00       		.byte	0
 9606 0258 00       		.byte	0
 9607 0259 26       		.uleb128 0x26
 9608 025a 39       		.uleb128 0x39
 9609 025b 00       		.byte	0
 9610 025c 03       		.uleb128 0x3
 9611 025d 08       		.uleb128 0x8
 9612 025e 3A       		.uleb128 0x3a
 9613 025f 0B       		.uleb128 0xb
 9614 0260 3B       		.uleb128 0x3b
 9615 0261 0B       		.uleb128 0xb
 9616 0262 00       		.byte	0
 9617 0263 00       		.byte	0
 9618 0264 27       		.uleb128 0x27
 9619 0265 13       		.uleb128 0x13
 9620 0266 01       		.byte	0x1
 9621 0267 03       		.uleb128 0x3
 9622 0268 08       		.uleb128 0x8
 9623 0269 0B       		.uleb128 0xb
 9624 026a 0B       		.uleb128 0xb
 9625 026b 3A       		.uleb128 0x3a
 9626 026c 0B       		.uleb128 0xb
 9627 026d 3B       		.uleb128 0x3b
 9628 026e 0B       		.uleb128 0xb
 9629 026f 01       		.uleb128 0x1
 9630 0270 13       		.uleb128 0x13
 9631 0271 00       		.byte	0
 9632 0272 00       		.byte	0
 9633 0273 28       		.uleb128 0x28
 9634 0274 2E       		.uleb128 0x2e
 9635 0275 01       		.byte	0x1
 9636 0276 3F       		.uleb128 0x3f
 9637 0277 19       		.uleb128 0x19
 9638 0278 03       		.uleb128 0x3
 9639 0279 0E       		.uleb128 0xe
 9640 027a 3A       		.uleb128 0x3a
 9641 027b 0B       		.uleb128 0xb
 9642 027c 3B       		.uleb128 0x3b
 9643 027d 0B       		.uleb128 0xb
 9644 027e 6E       		.uleb128 0x6e
 9645 027f 08       		.uleb128 0x8
 9646 0280 3C       		.uleb128 0x3c
GAS LISTING C:\Users\USER\AppData\Local\Temp\ccFSuTGK.s 			page 209


 9647 0281 19       		.uleb128 0x19
 9648 0282 01       		.uleb128 0x1
 9649 0283 13       		.uleb128 0x13
 9650 0284 00       		.byte	0
 9651 0285 00       		.byte	0
 9652 0286 29       		.uleb128 0x29
 9653 0287 2E       		.uleb128 0x2e
 9654 0288 01       		.byte	0x1
 9655 0289 3F       		.uleb128 0x3f
 9656 028a 19       		.uleb128 0x19
 9657 028b 03       		.uleb128 0x3
 9658 028c 08       		.uleb128 0x8
 9659 028d 3A       		.uleb128 0x3a
 9660 028e 0B       		.uleb128 0xb
 9661 028f 3B       		.uleb128 0x3b
 9662 0290 0B       		.uleb128 0xb
 9663 0291 6E       		.uleb128 0x6e
 9664 0292 08       		.uleb128 0x8
 9665 0293 49       		.uleb128 0x49
 9666 0294 13       		.uleb128 0x13
 9667 0295 3C       		.uleb128 0x3c
 9668 0296 19       		.uleb128 0x19
 9669 0297 01       		.uleb128 0x1
 9670 0298 13       		.uleb128 0x13
 9671 0299 00       		.byte	0
 9672 029a 00       		.byte	0
 9673 029b 2A       		.uleb128 0x2a
 9674 029c 2E       		.uleb128 0x2e
 9675 029d 01       		.byte	0x1
 9676 029e 3F       		.uleb128 0x3f
 9677 029f 19       		.uleb128 0x19
 9678 02a0 03       		.uleb128 0x3
 9679 02a1 0E       		.uleb128 0xe
 9680 02a2 3A       		.uleb128 0x3a
 9681 02a3 0B       		.uleb128 0xb
 9682 02a4 3B       		.uleb128 0x3b
 9683 02a5 05       		.uleb128 0x5
 9684 02a6 6E       		.uleb128 0x6e
 9685 02a7 08       		.uleb128 0x8
 9686 02a8 49       		.uleb128 0x49
 9687 02a9 13       		.uleb128 0x13
 9688 02aa 3C       		.uleb128 0x3c
 9689 02ab 19       		.uleb128 0x19
 9690 02ac 01       		.uleb128 0x1
 9691 02ad 13       		.uleb128 0x13
 9692 02ae 00       		.byte	0
 9693 02af 00       		.byte	0
 9694 02b0 2B       		.uleb128 0x2b
 9695 02b1 2E       		.uleb128 0x2e
 9696 02b2 00       		.byte	0
 9697 02b3 3F       		.uleb128 0x3f
 9698 02b4 19       		.uleb128 0x19
 9699 02b5 03       		.uleb128 0x3
 9700 02b6 08       		.uleb128 0x8
 9701 02b7 3A       		.uleb128 0x3a
 9702 02b8 0B       		.uleb128 0xb
 9703 02b9 3B       		.uleb128 0x3b
GAS LISTING C:\Users\USER\AppData\Local\Temp\ccFSuTGK.s 			page 210


 9704 02ba 05       		.uleb128 0x5
 9705 02bb 6E       		.uleb128 0x6e
 9706 02bc 08       		.uleb128 0x8
 9707 02bd 49       		.uleb128 0x49
 9708 02be 13       		.uleb128 0x13
 9709 02bf 3C       		.uleb128 0x3c
 9710 02c0 19       		.uleb128 0x19
 9711 02c1 00       		.byte	0
 9712 02c2 00       		.byte	0
 9713 02c3 2C       		.uleb128 0x2c
 9714 02c4 2E       		.uleb128 0x2e
 9715 02c5 01       		.byte	0x1
 9716 02c6 3F       		.uleb128 0x3f
 9717 02c7 19       		.uleb128 0x19
 9718 02c8 03       		.uleb128 0x3
 9719 02c9 08       		.uleb128 0x8
 9720 02ca 3A       		.uleb128 0x3a
 9721 02cb 0B       		.uleb128 0xb
 9722 02cc 3B       		.uleb128 0x3b
 9723 02cd 05       		.uleb128 0x5
 9724 02ce 6E       		.uleb128 0x6e
 9725 02cf 08       		.uleb128 0x8
 9726 02d0 49       		.uleb128 0x49
 9727 02d1 13       		.uleb128 0x13
 9728 02d2 3C       		.uleb128 0x3c
 9729 02d3 19       		.uleb128 0x19
 9730 02d4 00       		.byte	0
 9731 02d5 00       		.byte	0
 9732 02d6 2D       		.uleb128 0x2d
 9733 02d7 1C       		.uleb128 0x1c
 9734 02d8 00       		.byte	0
 9735 02d9 49       		.uleb128 0x49
 9736 02da 13       		.uleb128 0x13
 9737 02db 38       		.uleb128 0x38
 9738 02dc 0B       		.uleb128 0xb
 9739 02dd 32       		.uleb128 0x32
 9740 02de 0B       		.uleb128 0xb
 9741 02df 00       		.byte	0
 9742 02e0 00       		.byte	0
 9743 02e1 2E       		.uleb128 0x2e
 9744 02e2 2E       		.uleb128 0x2e
 9745 02e3 01       		.byte	0x1
 9746 02e4 3F       		.uleb128 0x3f
 9747 02e5 19       		.uleb128 0x19
 9748 02e6 03       		.uleb128 0x3
 9749 02e7 0E       		.uleb128 0xe
 9750 02e8 3A       		.uleb128 0x3a
 9751 02e9 0B       		.uleb128 0xb
 9752 02ea 3B       		.uleb128 0x3b
 9753 02eb 0B       		.uleb128 0xb
 9754 02ec 6E       		.uleb128 0x6e
 9755 02ed 08       		.uleb128 0x8
 9756 02ee 32       		.uleb128 0x32
 9757 02ef 0B       		.uleb128 0xb
 9758 02f0 3C       		.uleb128 0x3c
 9759 02f1 19       		.uleb128 0x19
 9760 02f2 64       		.uleb128 0x64
GAS LISTING C:\Users\USER\AppData\Local\Temp\ccFSuTGK.s 			page 211


 9761 02f3 13       		.uleb128 0x13
 9762 02f4 01       		.uleb128 0x1
 9763 02f5 13       		.uleb128 0x13
 9764 02f6 00       		.byte	0
 9765 02f7 00       		.byte	0
 9766 02f8 2F       		.uleb128 0x2f
 9767 02f9 13       		.uleb128 0x13
 9768 02fa 01       		.byte	0x1
 9769 02fb 03       		.uleb128 0x3
 9770 02fc 0E       		.uleb128 0xe
 9771 02fd 0B       		.uleb128 0xb
 9772 02fe 0B       		.uleb128 0xb
 9773 02ff 3A       		.uleb128 0x3a
 9774 0300 0B       		.uleb128 0xb
 9775 0301 3B       		.uleb128 0x3b
 9776 0302 0B       		.uleb128 0xb
 9777 0303 32       		.uleb128 0x32
 9778 0304 0B       		.uleb128 0xb
 9779 0305 00       		.byte	0
 9780 0306 00       		.byte	0
 9781 0307 30       		.uleb128 0x30
 9782 0308 2F       		.uleb128 0x2f
 9783 0309 00       		.byte	0
 9784 030a 03       		.uleb128 0x3
 9785 030b 08       		.uleb128 0x8
 9786 030c 49       		.uleb128 0x49
 9787 030d 13       		.uleb128 0x13
 9788 030e 00       		.byte	0
 9789 030f 00       		.byte	0
 9790 0310 31       		.uleb128 0x31
 9791 0311 02       		.uleb128 0x2
 9792 0312 00       		.byte	0
 9793 0313 03       		.uleb128 0x3
 9794 0314 08       		.uleb128 0x8
 9795 0315 3C       		.uleb128 0x3c
 9796 0316 19       		.uleb128 0x19
 9797 0317 00       		.byte	0
 9798 0318 00       		.byte	0
 9799 0319 32       		.uleb128 0x32
 9800 031a 04       		.uleb128 0x4
 9801 031b 01       		.byte	0x1
 9802 031c 03       		.uleb128 0x3
 9803 031d 08       		.uleb128 0x8
 9804 031e 0B       		.uleb128 0xb
 9805 031f 0B       		.uleb128 0xb
 9806 0320 49       		.uleb128 0x49
 9807 0321 13       		.uleb128 0x13
 9808 0322 3A       		.uleb128 0x3a
 9809 0323 0B       		.uleb128 0xb
 9810 0324 3B       		.uleb128 0x3b
 9811 0325 0B       		.uleb128 0xb
 9812 0326 01       		.uleb128 0x1
 9813 0327 13       		.uleb128 0x13
 9814 0328 00       		.byte	0
 9815 0329 00       		.byte	0
 9816 032a 33       		.uleb128 0x33
 9817 032b 28       		.uleb128 0x28
GAS LISTING C:\Users\USER\AppData\Local\Temp\ccFSuTGK.s 			page 212


 9818 032c 00       		.byte	0
 9819 032d 03       		.uleb128 0x3
 9820 032e 08       		.uleb128 0x8
 9821 032f 1C       		.uleb128 0x1c
 9822 0330 0B       		.uleb128 0xb
 9823 0331 00       		.byte	0
 9824 0332 00       		.byte	0
 9825 0333 34       		.uleb128 0x34
 9826 0334 28       		.uleb128 0x28
 9827 0335 00       		.byte	0
 9828 0336 03       		.uleb128 0x3
 9829 0337 08       		.uleb128 0x8
 9830 0338 1C       		.uleb128 0x1c
 9831 0339 05       		.uleb128 0x5
 9832 033a 00       		.byte	0
 9833 033b 00       		.byte	0
 9834 033c 35       		.uleb128 0x35
 9835 033d 28       		.uleb128 0x28
 9836 033e 00       		.byte	0
 9837 033f 03       		.uleb128 0x3
 9838 0340 08       		.uleb128 0x8
 9839 0341 1C       		.uleb128 0x1c
 9840 0342 06       		.uleb128 0x6
 9841 0343 00       		.byte	0
 9842 0344 00       		.byte	0
 9843 0345 36       		.uleb128 0x36
 9844 0346 02       		.uleb128 0x2
 9845 0347 01       		.byte	0x1
 9846 0348 03       		.uleb128 0x3
 9847 0349 08       		.uleb128 0x8
 9848 034a 3C       		.uleb128 0x3c
 9849 034b 19       		.uleb128 0x19
 9850 034c 01       		.uleb128 0x1
 9851 034d 13       		.uleb128 0x13
 9852 034e 00       		.byte	0
 9853 034f 00       		.byte	0
 9854 0350 37       		.uleb128 0x37
 9855 0351 02       		.uleb128 0x2
 9856 0352 01       		.byte	0x1
 9857 0353 03       		.uleb128 0x3
 9858 0354 08       		.uleb128 0x8
 9859 0355 0B       		.uleb128 0xb
 9860 0356 0B       		.uleb128 0xb
 9861 0357 3A       		.uleb128 0x3a
 9862 0358 0B       		.uleb128 0xb
 9863 0359 3B       		.uleb128 0x3b
 9864 035a 05       		.uleb128 0x5
 9865 035b 32       		.uleb128 0x32
 9866 035c 0B       		.uleb128 0xb
 9867 035d 01       		.uleb128 0x1
 9868 035e 13       		.uleb128 0x13
 9869 035f 00       		.byte	0
 9870 0360 00       		.byte	0
 9871 0361 38       		.uleb128 0x38
 9872 0362 0D       		.uleb128 0xd
 9873 0363 00       		.byte	0
 9874 0364 03       		.uleb128 0x3
GAS LISTING C:\Users\USER\AppData\Local\Temp\ccFSuTGK.s 			page 213


 9875 0365 08       		.uleb128 0x8
 9876 0366 3A       		.uleb128 0x3a
 9877 0367 0B       		.uleb128 0xb
 9878 0368 3B       		.uleb128 0x3b
 9879 0369 05       		.uleb128 0x5
 9880 036a 49       		.uleb128 0x49
 9881 036b 13       		.uleb128 0x13
 9882 036c 3F       		.uleb128 0x3f
 9883 036d 19       		.uleb128 0x19
 9884 036e 3C       		.uleb128 0x3c
 9885 036f 19       		.uleb128 0x19
 9886 0370 00       		.byte	0
 9887 0371 00       		.byte	0
 9888 0372 39       		.uleb128 0x39
 9889 0373 2E       		.uleb128 0x2e
 9890 0374 01       		.byte	0x1
 9891 0375 3F       		.uleb128 0x3f
 9892 0376 19       		.uleb128 0x19
 9893 0377 03       		.uleb128 0x3
 9894 0378 08       		.uleb128 0x8
 9895 0379 3A       		.uleb128 0x3a
 9896 037a 0B       		.uleb128 0xb
 9897 037b 3B       		.uleb128 0x3b
 9898 037c 05       		.uleb128 0x5
 9899 037d 6E       		.uleb128 0x6e
 9900 037e 08       		.uleb128 0x8
 9901 037f 32       		.uleb128 0x32
 9902 0380 0B       		.uleb128 0xb
 9903 0381 3C       		.uleb128 0x3c
 9904 0382 19       		.uleb128 0x19
 9905 0383 64       		.uleb128 0x64
 9906 0384 13       		.uleb128 0x13
 9907 0385 00       		.byte	0
 9908 0386 00       		.byte	0
 9909 0387 3A       		.uleb128 0x3a
 9910 0388 16       		.uleb128 0x16
 9911 0389 00       		.byte	0
 9912 038a 03       		.uleb128 0x3
 9913 038b 08       		.uleb128 0x8
 9914 038c 3A       		.uleb128 0x3a
 9915 038d 0B       		.uleb128 0xb
 9916 038e 3B       		.uleb128 0x3b
 9917 038f 05       		.uleb128 0x5
 9918 0390 49       		.uleb128 0x49
 9919 0391 13       		.uleb128 0x13
 9920 0392 32       		.uleb128 0x32
 9921 0393 0B       		.uleb128 0xb
 9922 0394 00       		.byte	0
 9923 0395 00       		.byte	0
 9924 0396 3B       		.uleb128 0x3b
 9925 0397 0D       		.uleb128 0xd
 9926 0398 00       		.byte	0
 9927 0399 03       		.uleb128 0x3
 9928 039a 08       		.uleb128 0x8
 9929 039b 3A       		.uleb128 0x3a
 9930 039c 0B       		.uleb128 0xb
 9931 039d 3B       		.uleb128 0x3b
GAS LISTING C:\Users\USER\AppData\Local\Temp\ccFSuTGK.s 			page 214


 9932 039e 05       		.uleb128 0x5
 9933 039f 49       		.uleb128 0x49
 9934 03a0 13       		.uleb128 0x13
 9935 03a1 3F       		.uleb128 0x3f
 9936 03a2 19       		.uleb128 0x19
 9937 03a3 32       		.uleb128 0x32
 9938 03a4 0B       		.uleb128 0xb
 9939 03a5 3C       		.uleb128 0x3c
 9940 03a6 19       		.uleb128 0x19
 9941 03a7 1C       		.uleb128 0x1c
 9942 03a8 0B       		.uleb128 0xb
 9943 03a9 00       		.byte	0
 9944 03aa 00       		.byte	0
 9945 03ab 3C       		.uleb128 0x3c
 9946 03ac 0D       		.uleb128 0xd
 9947 03ad 00       		.byte	0
 9948 03ae 03       		.uleb128 0x3
 9949 03af 08       		.uleb128 0x8
 9950 03b0 3A       		.uleb128 0x3a
 9951 03b1 0B       		.uleb128 0xb
 9952 03b2 3B       		.uleb128 0x3b
 9953 03b3 05       		.uleb128 0x5
 9954 03b4 49       		.uleb128 0x49
 9955 03b5 13       		.uleb128 0x13
 9956 03b6 3F       		.uleb128 0x3f
 9957 03b7 19       		.uleb128 0x19
 9958 03b8 32       		.uleb128 0x32
 9959 03b9 0B       		.uleb128 0xb
 9960 03ba 3C       		.uleb128 0x3c
 9961 03bb 19       		.uleb128 0x19
 9962 03bc 1C       		.uleb128 0x1c
 9963 03bd 05       		.uleb128 0x5
 9964 03be 00       		.byte	0
 9965 03bf 00       		.byte	0
 9966 03c0 3D       		.uleb128 0x3d
 9967 03c1 16       		.uleb128 0x16
 9968 03c2 00       		.byte	0
 9969 03c3 03       		.uleb128 0x3
 9970 03c4 0E       		.uleb128 0xe
 9971 03c5 3A       		.uleb128 0x3a
 9972 03c6 0B       		.uleb128 0xb
 9973 03c7 3B       		.uleb128 0x3b
 9974 03c8 0B       		.uleb128 0xb
 9975 03c9 49       		.uleb128 0x49
 9976 03ca 13       		.uleb128 0x13
 9977 03cb 00       		.byte	0
 9978 03cc 00       		.byte	0
 9979 03cd 3E       		.uleb128 0x3e
 9980 03ce 02       		.uleb128 0x2
 9981 03cf 01       		.byte	0x1
 9982 03d0 03       		.uleb128 0x3
 9983 03d1 0E       		.uleb128 0xe
 9984 03d2 3C       		.uleb128 0x3c
 9985 03d3 19       		.uleb128 0x19
 9986 03d4 01       		.uleb128 0x1
 9987 03d5 13       		.uleb128 0x13
 9988 03d6 00       		.byte	0
GAS LISTING C:\Users\USER\AppData\Local\Temp\ccFSuTGK.s 			page 215


 9989 03d7 00       		.byte	0
 9990 03d8 3F       		.uleb128 0x3f
 9991 03d9 2E       		.uleb128 0x2e
 9992 03da 01       		.byte	0x1
 9993 03db 3F       		.uleb128 0x3f
 9994 03dc 19       		.uleb128 0x19
 9995 03dd 03       		.uleb128 0x3
 9996 03de 0E       		.uleb128 0xe
 9997 03df 3A       		.uleb128 0x3a
 9998 03e0 0B       		.uleb128 0xb
 9999 03e1 3B       		.uleb128 0x3b
 10000 03e2 0B       		.uleb128 0xb
 10001 03e3 6E       		.uleb128 0x6e
 10002 03e4 08       		.uleb128 0x8
 10003 03e5 32       		.uleb128 0x32
 10004 03e6 0B       		.uleb128 0xb
 10005 03e7 3C       		.uleb128 0x3c
 10006 03e8 19       		.uleb128 0x19
 10007 03e9 64       		.uleb128 0x64
 10008 03ea 13       		.uleb128 0x13
 10009 03eb 00       		.byte	0
 10010 03ec 00       		.byte	0
 10011 03ed 40       		.uleb128 0x40
 10012 03ee 34       		.uleb128 0x34
 10013 03ef 00       		.byte	0
 10014 03f0 03       		.uleb128 0x3
 10015 03f1 08       		.uleb128 0x8
 10016 03f2 3A       		.uleb128 0x3a
 10017 03f3 0B       		.uleb128 0xb
 10018 03f4 3B       		.uleb128 0x3b
 10019 03f5 0B       		.uleb128 0xb
 10020 03f6 6E       		.uleb128 0x6e
 10021 03f7 08       		.uleb128 0x8
 10022 03f8 49       		.uleb128 0x49
 10023 03f9 13       		.uleb128 0x13
 10024 03fa 3F       		.uleb128 0x3f
 10025 03fb 19       		.uleb128 0x19
 10026 03fc 3C       		.uleb128 0x3c
 10027 03fd 19       		.uleb128 0x19
 10028 03fe 00       		.byte	0
 10029 03ff 00       		.byte	0
 10030 0400 41       		.uleb128 0x41
 10031 0401 34       		.uleb128 0x34
 10032 0402 00       		.byte	0
 10033 0403 03       		.uleb128 0x3
 10034 0404 08       		.uleb128 0x8
 10035 0405 3A       		.uleb128 0x3a
 10036 0406 0B       		.uleb128 0xb
 10037 0407 3B       		.uleb128 0x3b
 10038 0408 0B       		.uleb128 0xb
 10039 0409 49       		.uleb128 0x49
 10040 040a 13       		.uleb128 0x13
 10041 040b 3C       		.uleb128 0x3c
 10042 040c 19       		.uleb128 0x19
 10043 040d 00       		.byte	0
 10044 040e 00       		.byte	0
 10045 040f 42       		.uleb128 0x42
GAS LISTING C:\Users\USER\AppData\Local\Temp\ccFSuTGK.s 			page 216


 10046 0410 2E       		.uleb128 0x2e
 10047 0411 01       		.byte	0x1
 10048 0412 3F       		.uleb128 0x3f
 10049 0413 19       		.uleb128 0x19
 10050 0414 03       		.uleb128 0x3
 10051 0415 08       		.uleb128 0x8
 10052 0416 3A       		.uleb128 0x3a
 10053 0417 0B       		.uleb128 0xb
 10054 0418 3B       		.uleb128 0x3b
 10055 0419 0B       		.uleb128 0xb
 10056 041a 6E       		.uleb128 0x6e
 10057 041b 08       		.uleb128 0x8
 10058 041c 49       		.uleb128 0x49
 10059 041d 13       		.uleb128 0x13
 10060 041e 32       		.uleb128 0x32
 10061 041f 0B       		.uleb128 0xb
 10062 0420 3C       		.uleb128 0x3c
 10063 0421 19       		.uleb128 0x19
 10064 0422 64       		.uleb128 0x64
 10065 0423 13       		.uleb128 0x13
 10066 0424 01       		.uleb128 0x1
 10067 0425 13       		.uleb128 0x13
 10068 0426 00       		.byte	0
 10069 0427 00       		.byte	0
 10070 0428 43       		.uleb128 0x43
 10071 0429 2E       		.uleb128 0x2e
 10072 042a 01       		.byte	0x1
 10073 042b 3F       		.uleb128 0x3f
 10074 042c 19       		.uleb128 0x19
 10075 042d 03       		.uleb128 0x3
 10076 042e 0E       		.uleb128 0xe
 10077 042f 3A       		.uleb128 0x3a
 10078 0430 0B       		.uleb128 0xb
 10079 0431 3B       		.uleb128 0x3b
 10080 0432 0B       		.uleb128 0xb
 10081 0433 6E       		.uleb128 0x6e
 10082 0434 08       		.uleb128 0x8
 10083 0435 49       		.uleb128 0x49
 10084 0436 13       		.uleb128 0x13
 10085 0437 32       		.uleb128 0x32
 10086 0438 0B       		.uleb128 0xb
 10087 0439 3C       		.uleb128 0x3c
 10088 043a 19       		.uleb128 0x19
 10089 043b 64       		.uleb128 0x64
 10090 043c 13       		.uleb128 0x13
 10091 043d 01       		.uleb128 0x1
 10092 043e 13       		.uleb128 0x13
 10093 043f 00       		.byte	0
 10094 0440 00       		.byte	0
 10095 0441 44       		.uleb128 0x44
 10096 0442 0D       		.uleb128 0xd
 10097 0443 00       		.byte	0
 10098 0444 03       		.uleb128 0x3
 10099 0445 0E       		.uleb128 0xe
 10100 0446 3A       		.uleb128 0x3a
 10101 0447 0B       		.uleb128 0xb
 10102 0448 3B       		.uleb128 0x3b
GAS LISTING C:\Users\USER\AppData\Local\Temp\ccFSuTGK.s 			page 217


 10103 0449 0B       		.uleb128 0xb
 10104 044a 49       		.uleb128 0x49
 10105 044b 13       		.uleb128 0x13
 10106 044c 3F       		.uleb128 0x3f
 10107 044d 19       		.uleb128 0x19
 10108 044e 3C       		.uleb128 0x3c
 10109 044f 19       		.uleb128 0x19
 10110 0450 00       		.byte	0
 10111 0451 00       		.byte	0
 10112 0452 45       		.uleb128 0x45
 10113 0453 2E       		.uleb128 0x2e
 10114 0454 01       		.byte	0x1
 10115 0455 3F       		.uleb128 0x3f
 10116 0456 19       		.uleb128 0x19
 10117 0457 03       		.uleb128 0x3
 10118 0458 0E       		.uleb128 0xe
 10119 0459 3A       		.uleb128 0x3a
 10120 045a 0B       		.uleb128 0xb
 10121 045b 3B       		.uleb128 0x3b
 10122 045c 0B       		.uleb128 0xb
 10123 045d 6E       		.uleb128 0x6e
 10124 045e 08       		.uleb128 0x8
 10125 045f 49       		.uleb128 0x49
 10126 0460 13       		.uleb128 0x13
 10127 0461 3C       		.uleb128 0x3c
 10128 0462 19       		.uleb128 0x19
 10129 0463 01       		.uleb128 0x1
 10130 0464 13       		.uleb128 0x13
 10131 0465 00       		.byte	0
 10132 0466 00       		.byte	0
 10133 0467 46       		.uleb128 0x46
 10134 0468 2E       		.uleb128 0x2e
 10135 0469 01       		.byte	0x1
 10136 046a 3F       		.uleb128 0x3f
 10137 046b 19       		.uleb128 0x19
 10138 046c 03       		.uleb128 0x3
 10139 046d 08       		.uleb128 0x8
 10140 046e 3A       		.uleb128 0x3a
 10141 046f 0B       		.uleb128 0xb
 10142 0470 3B       		.uleb128 0x3b
 10143 0471 0B       		.uleb128 0xb
 10144 0472 6E       		.uleb128 0x6e
 10145 0473 08       		.uleb128 0x8
 10146 0474 3C       		.uleb128 0x3c
 10147 0475 19       		.uleb128 0x19
 10148 0476 01       		.uleb128 0x1
 10149 0477 13       		.uleb128 0x13
 10150 0478 00       		.byte	0
 10151 0479 00       		.byte	0
 10152 047a 47       		.uleb128 0x47
 10153 047b 02       		.uleb128 0x2
 10154 047c 01       		.byte	0x1
 10155 047d 03       		.uleb128 0x3
 10156 047e 08       		.uleb128 0x8
 10157 047f 0B       		.uleb128 0xb
 10158 0480 0B       		.uleb128 0xb
 10159 0481 3A       		.uleb128 0x3a
GAS LISTING C:\Users\USER\AppData\Local\Temp\ccFSuTGK.s 			page 218


 10160 0482 0B       		.uleb128 0xb
 10161 0483 3B       		.uleb128 0x3b
 10162 0484 05       		.uleb128 0x5
 10163 0485 01       		.uleb128 0x1
 10164 0486 13       		.uleb128 0x13
 10165 0487 00       		.byte	0
 10166 0488 00       		.byte	0
 10167 0489 48       		.uleb128 0x48
 10168 048a 0D       		.uleb128 0xd
 10169 048b 00       		.byte	0
 10170 048c 03       		.uleb128 0x3
 10171 048d 0E       		.uleb128 0xe
 10172 048e 3A       		.uleb128 0x3a
 10173 048f 0B       		.uleb128 0xb
 10174 0490 3B       		.uleb128 0x3b
 10175 0491 05       		.uleb128 0x5
 10176 0492 49       		.uleb128 0x49
 10177 0493 13       		.uleb128 0x13
 10178 0494 38       		.uleb128 0x38
 10179 0495 0B       		.uleb128 0xb
 10180 0496 32       		.uleb128 0x32
 10181 0497 0B       		.uleb128 0xb
 10182 0498 00       		.byte	0
 10183 0499 00       		.byte	0
 10184 049a 49       		.uleb128 0x49
 10185 049b 16       		.uleb128 0x16
 10186 049c 00       		.byte	0
 10187 049d 03       		.uleb128 0x3
 10188 049e 0E       		.uleb128 0xe
 10189 049f 3A       		.uleb128 0x3a
 10190 04a0 0B       		.uleb128 0xb
 10191 04a1 3B       		.uleb128 0x3b
 10192 04a2 05       		.uleb128 0x5
 10193 04a3 49       		.uleb128 0x49
 10194 04a4 13       		.uleb128 0x13
 10195 04a5 32       		.uleb128 0x32
 10196 04a6 0B       		.uleb128 0xb
 10197 04a7 00       		.byte	0
 10198 04a8 00       		.byte	0
 10199 04a9 4A       		.uleb128 0x4a
 10200 04aa 24       		.uleb128 0x24
 10201 04ab 00       		.byte	0
 10202 04ac 0B       		.uleb128 0xb
 10203 04ad 0B       		.uleb128 0xb
 10204 04ae 3E       		.uleb128 0x3e
 10205 04af 0B       		.uleb128 0xb
 10206 04b0 03       		.uleb128 0x3
 10207 04b1 08       		.uleb128 0x8
 10208 04b2 00       		.byte	0
 10209 04b3 00       		.byte	0
 10210 04b4 4B       		.uleb128 0x4b
 10211 04b5 16       		.uleb128 0x16
 10212 04b6 00       		.byte	0
 10213 04b7 03       		.uleb128 0x3
 10214 04b8 08       		.uleb128 0x8
 10215 04b9 3A       		.uleb128 0x3a
 10216 04ba 0B       		.uleb128 0xb
GAS LISTING C:\Users\USER\AppData\Local\Temp\ccFSuTGK.s 			page 219


 10217 04bb 3B       		.uleb128 0x3b
 10218 04bc 05       		.uleb128 0x5
 10219 04bd 49       		.uleb128 0x49
 10220 04be 13       		.uleb128 0x13
 10221 04bf 00       		.byte	0
 10222 04c0 00       		.byte	0
 10223 04c1 4C       		.uleb128 0x4c
 10224 04c2 0F       		.uleb128 0xf
 10225 04c3 00       		.byte	0
 10226 04c4 0B       		.uleb128 0xb
 10227 04c5 0B       		.uleb128 0xb
 10228 04c6 03       		.uleb128 0x3
 10229 04c7 08       		.uleb128 0x8
 10230 04c8 49       		.uleb128 0x49
 10231 04c9 13       		.uleb128 0x13
 10232 04ca 00       		.byte	0
 10233 04cb 00       		.byte	0
 10234 04cc 4D       		.uleb128 0x4d
 10235 04cd 0F       		.uleb128 0xf
 10236 04ce 00       		.byte	0
 10237 04cf 0B       		.uleb128 0xb
 10238 04d0 0B       		.uleb128 0xb
 10239 04d1 49       		.uleb128 0x49
 10240 04d2 13       		.uleb128 0x13
 10241 04d3 00       		.byte	0
 10242 04d4 00       		.byte	0
 10243 04d5 4E       		.uleb128 0x4e
 10244 04d6 2E       		.uleb128 0x2e
 10245 04d7 01       		.byte	0x1
 10246 04d8 3F       		.uleb128 0x3f
 10247 04d9 19       		.uleb128 0x19
 10248 04da 03       		.uleb128 0x3
 10249 04db 08       		.uleb128 0x8
 10250 04dc 3A       		.uleb128 0x3a
 10251 04dd 0B       		.uleb128 0xb
 10252 04de 3B       		.uleb128 0x3b
 10253 04df 05       		.uleb128 0x5
 10254 04e0 49       		.uleb128 0x49
 10255 04e1 13       		.uleb128 0x13
 10256 04e2 3C       		.uleb128 0x3c
 10257 04e3 19       		.uleb128 0x19
 10258 04e4 01       		.uleb128 0x1
 10259 04e5 13       		.uleb128 0x13
 10260 04e6 00       		.byte	0
 10261 04e7 00       		.byte	0
 10262 04e8 4F       		.uleb128 0x4f
 10263 04e9 2E       		.uleb128 0x2e
 10264 04ea 01       		.byte	0x1
 10265 04eb 3F       		.uleb128 0x3f
 10266 04ec 19       		.uleb128 0x19
 10267 04ed 03       		.uleb128 0x3
 10268 04ee 08       		.uleb128 0x8
 10269 04ef 3A       		.uleb128 0x3a
 10270 04f0 0B       		.uleb128 0xb
 10271 04f1 3B       		.uleb128 0x3b
 10272 04f2 0B       		.uleb128 0xb
 10273 04f3 49       		.uleb128 0x49
GAS LISTING C:\Users\USER\AppData\Local\Temp\ccFSuTGK.s 			page 220


 10274 04f4 13       		.uleb128 0x13
 10275 04f5 3C       		.uleb128 0x3c
 10276 04f6 19       		.uleb128 0x19
 10277 04f7 01       		.uleb128 0x1
 10278 04f8 13       		.uleb128 0x13
 10279 04f9 00       		.byte	0
 10280 04fa 00       		.byte	0
 10281 04fb 50       		.uleb128 0x50
 10282 04fc 18       		.uleb128 0x18
 10283 04fd 00       		.byte	0
 10284 04fe 00       		.byte	0
 10285 04ff 00       		.byte	0
 10286 0500 51       		.uleb128 0x51
 10287 0501 2E       		.uleb128 0x2e
 10288 0502 00       		.byte	0
 10289 0503 3F       		.uleb128 0x3f
 10290 0504 19       		.uleb128 0x19
 10291 0505 03       		.uleb128 0x3
 10292 0506 08       		.uleb128 0x8
 10293 0507 3A       		.uleb128 0x3a
 10294 0508 0B       		.uleb128 0xb
 10295 0509 3B       		.uleb128 0x3b
 10296 050a 0B       		.uleb128 0xb
 10297 050b 49       		.uleb128 0x49
 10298 050c 13       		.uleb128 0x13
 10299 050d 3C       		.uleb128 0x3c
 10300 050e 19       		.uleb128 0x19
 10301 050f 00       		.byte	0
 10302 0510 00       		.byte	0
 10303 0511 52       		.uleb128 0x52
 10304 0512 10       		.uleb128 0x10
 10305 0513 00       		.byte	0
 10306 0514 0B       		.uleb128 0xb
 10307 0515 0B       		.uleb128 0xb
 10308 0516 49       		.uleb128 0x49
 10309 0517 13       		.uleb128 0x13
 10310 0518 00       		.byte	0
 10311 0519 00       		.byte	0
 10312 051a 53       		.uleb128 0x53
 10313 051b 26       		.uleb128 0x26
 10314 051c 00       		.byte	0
 10315 051d 00       		.byte	0
 10316 051e 00       		.byte	0
 10317 051f 54       		.uleb128 0x54
 10318 0520 01       		.uleb128 0x1
 10319 0521 01       		.byte	0x1
 10320 0522 49       		.uleb128 0x49
 10321 0523 13       		.uleb128 0x13
 10322 0524 01       		.uleb128 0x1
 10323 0525 13       		.uleb128 0x13
 10324 0526 00       		.byte	0
 10325 0527 00       		.byte	0
 10326 0528 55       		.uleb128 0x55
 10327 0529 21       		.uleb128 0x21
 10328 052a 00       		.byte	0
 10329 052b 49       		.uleb128 0x49
 10330 052c 13       		.uleb128 0x13
GAS LISTING C:\Users\USER\AppData\Local\Temp\ccFSuTGK.s 			page 221


 10331 052d 2F       		.uleb128 0x2f
 10332 052e 0B       		.uleb128 0xb
 10333 052f 00       		.byte	0
 10334 0530 00       		.byte	0
 10335 0531 56       		.uleb128 0x56
 10336 0532 02       		.uleb128 0x2
 10337 0533 01       		.byte	0x1
 10338 0534 03       		.uleb128 0x3
 10339 0535 0E       		.uleb128 0xe
 10340 0536 0B       		.uleb128 0xb
 10341 0537 0B       		.uleb128 0xb
 10342 0538 3A       		.uleb128 0x3a
 10343 0539 0B       		.uleb128 0xb
 10344 053a 3B       		.uleb128 0x3b
 10345 053b 0B       		.uleb128 0xb
 10346 053c 1D       		.uleb128 0x1d
 10347 053d 13       		.uleb128 0x13
 10348 053e 01       		.uleb128 0x1
 10349 053f 13       		.uleb128 0x13
 10350 0540 00       		.byte	0
 10351 0541 00       		.byte	0
 10352 0542 57       		.uleb128 0x57
 10353 0543 0D       		.uleb128 0xd
 10354 0544 00       		.byte	0
 10355 0545 03       		.uleb128 0x3
 10356 0546 08       		.uleb128 0x8
 10357 0547 49       		.uleb128 0x49
 10358 0548 13       		.uleb128 0x13
 10359 0549 38       		.uleb128 0x38
 10360 054a 0B       		.uleb128 0xb
 10361 054b 34       		.uleb128 0x34
 10362 054c 19       		.uleb128 0x19
 10363 054d 32       		.uleb128 0x32
 10364 054e 0B       		.uleb128 0xb
 10365 054f 00       		.byte	0
 10366 0550 00       		.byte	0
 10367 0551 58       		.uleb128 0x58
 10368 0552 2E       		.uleb128 0x2e
 10369 0553 01       		.byte	0x1
 10370 0554 3F       		.uleb128 0x3f
 10371 0555 19       		.uleb128 0x19
 10372 0556 03       		.uleb128 0x3
 10373 0557 0E       		.uleb128 0xe
 10374 0558 6E       		.uleb128 0x6e
 10375 0559 08       		.uleb128 0x8
 10376 055a 34       		.uleb128 0x34
 10377 055b 19       		.uleb128 0x19
 10378 055c 32       		.uleb128 0x32
 10379 055d 0B       		.uleb128 0xb
 10380 055e 3C       		.uleb128 0x3c
 10381 055f 19       		.uleb128 0x19
 10382 0560 64       		.uleb128 0x64
 10383 0561 13       		.uleb128 0x13
 10384 0562 01       		.uleb128 0x1
 10385 0563 13       		.uleb128 0x13
 10386 0564 00       		.byte	0
 10387 0565 00       		.byte	0
GAS LISTING C:\Users\USER\AppData\Local\Temp\ccFSuTGK.s 			page 222


 10388 0566 59       		.uleb128 0x59
 10389 0567 2E       		.uleb128 0x2e
 10390 0568 01       		.byte	0x1
 10391 0569 3F       		.uleb128 0x3f
 10392 056a 19       		.uleb128 0x19
 10393 056b 03       		.uleb128 0x3
 10394 056c 08       		.uleb128 0x8
 10395 056d 3A       		.uleb128 0x3a
 10396 056e 0B       		.uleb128 0xb
 10397 056f 3B       		.uleb128 0x3b
 10398 0570 0B       		.uleb128 0xb
 10399 0571 6E       		.uleb128 0x6e
 10400 0572 08       		.uleb128 0x8
 10401 0573 4C       		.uleb128 0x4c
 10402 0574 0B       		.uleb128 0xb
 10403 0575 1D       		.uleb128 0x1d
 10404 0576 13       		.uleb128 0x13
 10405 0577 32       		.uleb128 0x32
 10406 0578 0B       		.uleb128 0xb
 10407 0579 3C       		.uleb128 0x3c
 10408 057a 19       		.uleb128 0x19
 10409 057b 64       		.uleb128 0x64
 10410 057c 13       		.uleb128 0x13
 10411 057d 01       		.uleb128 0x1
 10412 057e 13       		.uleb128 0x13
 10413 057f 00       		.byte	0
 10414 0580 00       		.byte	0
 10415 0581 5A       		.uleb128 0x5a
 10416 0582 2E       		.uleb128 0x2e
 10417 0583 01       		.byte	0x1
 10418 0584 3F       		.uleb128 0x3f
 10419 0585 19       		.uleb128 0x19
 10420 0586 03       		.uleb128 0x3
 10421 0587 08       		.uleb128 0x8
 10422 0588 3A       		.uleb128 0x3a
 10423 0589 0B       		.uleb128 0xb
 10424 058a 3B       		.uleb128 0x3b
 10425 058b 0B       		.uleb128 0xb
 10426 058c 6E       		.uleb128 0x6e
 10427 058d 08       		.uleb128 0x8
 10428 058e 49       		.uleb128 0x49
 10429 058f 13       		.uleb128 0x13
 10430 0590 32       		.uleb128 0x32
 10431 0591 0B       		.uleb128 0xb
 10432 0592 3C       		.uleb128 0x3c
 10433 0593 19       		.uleb128 0x19
 10434 0594 01       		.uleb128 0x1
 10435 0595 13       		.uleb128 0x13
 10436 0596 00       		.byte	0
 10437 0597 00       		.byte	0
 10438 0598 5B       		.uleb128 0x5b
 10439 0599 2E       		.uleb128 0x2e
 10440 059a 01       		.byte	0x1
 10441 059b 3F       		.uleb128 0x3f
 10442 059c 19       		.uleb128 0x19
 10443 059d 03       		.uleb128 0x3
 10444 059e 0E       		.uleb128 0xe
GAS LISTING C:\Users\USER\AppData\Local\Temp\ccFSuTGK.s 			page 223


 10445 059f 3A       		.uleb128 0x3a
 10446 05a0 0B       		.uleb128 0xb
 10447 05a1 3B       		.uleb128 0x3b
 10448 05a2 0B       		.uleb128 0xb
 10449 05a3 6E       		.uleb128 0x6e
 10450 05a4 08       		.uleb128 0x8
 10451 05a5 49       		.uleb128 0x49
 10452 05a6 13       		.uleb128 0x13
 10453 05a7 32       		.uleb128 0x32
 10454 05a8 0B       		.uleb128 0xb
 10455 05a9 3C       		.uleb128 0x3c
 10456 05aa 19       		.uleb128 0x19
 10457 05ab 64       		.uleb128 0x64
 10458 05ac 13       		.uleb128 0x13
 10459 05ad 00       		.byte	0
 10460 05ae 00       		.byte	0
 10461 05af 5C       		.uleb128 0x5c
 10462 05b0 15       		.uleb128 0x15
 10463 05b1 01       		.byte	0x1
 10464 05b2 49       		.uleb128 0x49
 10465 05b3 13       		.uleb128 0x13
 10466 05b4 01       		.uleb128 0x1
 10467 05b5 13       		.uleb128 0x13
 10468 05b6 00       		.byte	0
 10469 05b7 00       		.byte	0
 10470 05b8 5D       		.uleb128 0x5d
 10471 05b9 2E       		.uleb128 0x2e
 10472 05ba 01       		.byte	0x1
 10473 05bb 3F       		.uleb128 0x3f
 10474 05bc 19       		.uleb128 0x19
 10475 05bd 03       		.uleb128 0x3
 10476 05be 08       		.uleb128 0x8
 10477 05bf 3A       		.uleb128 0x3a
 10478 05c0 0B       		.uleb128 0xb
 10479 05c1 3B       		.uleb128 0x3b
 10480 05c2 0B       		.uleb128 0xb
 10481 05c3 6E       		.uleb128 0x6e
 10482 05c4 08       		.uleb128 0x8
 10483 05c5 49       		.uleb128 0x49
 10484 05c6 13       		.uleb128 0x13
 10485 05c7 4C       		.uleb128 0x4c
 10486 05c8 0B       		.uleb128 0xb
 10487 05c9 4D       		.uleb128 0x4d
 10488 05ca 18       		.uleb128 0x18
 10489 05cb 1D       		.uleb128 0x1d
 10490 05cc 13       		.uleb128 0x13
 10491 05cd 32       		.uleb128 0x32
 10492 05ce 0B       		.uleb128 0xb
 10493 05cf 3C       		.uleb128 0x3c
 10494 05d0 19       		.uleb128 0x19
 10495 05d1 64       		.uleb128 0x64
 10496 05d2 13       		.uleb128 0x13
 10497 05d3 01       		.uleb128 0x1
 10498 05d4 13       		.uleb128 0x13
 10499 05d5 00       		.byte	0
 10500 05d6 00       		.byte	0
 10501 05d7 5E       		.uleb128 0x5e
GAS LISTING C:\Users\USER\AppData\Local\Temp\ccFSuTGK.s 			page 224


 10502 05d8 2E       		.uleb128 0x2e
 10503 05d9 01       		.byte	0x1
 10504 05da 3F       		.uleb128 0x3f
 10505 05db 19       		.uleb128 0x19
 10506 05dc 03       		.uleb128 0x3
 10507 05dd 08       		.uleb128 0x8
 10508 05de 6E       		.uleb128 0x6e
 10509 05df 08       		.uleb128 0x8
 10510 05e0 4C       		.uleb128 0x4c
 10511 05e1 0B       		.uleb128 0xb
 10512 05e2 1D       		.uleb128 0x1d
 10513 05e3 13       		.uleb128 0x13
 10514 05e4 34       		.uleb128 0x34
 10515 05e5 19       		.uleb128 0x19
 10516 05e6 32       		.uleb128 0x32
 10517 05e7 0B       		.uleb128 0xb
 10518 05e8 3C       		.uleb128 0x3c
 10519 05e9 19       		.uleb128 0x19
 10520 05ea 64       		.uleb128 0x64
 10521 05eb 13       		.uleb128 0x13
 10522 05ec 00       		.byte	0
 10523 05ed 00       		.byte	0
 10524 05ee 5F       		.uleb128 0x5f
 10525 05ef 2E       		.uleb128 0x2e
 10526 05f0 01       		.byte	0x1
 10527 05f1 47       		.uleb128 0x47
 10528 05f2 13       		.uleb128 0x13
 10529 05f3 20       		.uleb128 0x20
 10530 05f4 0B       		.uleb128 0xb
 10531 05f5 64       		.uleb128 0x64
 10532 05f6 13       		.uleb128 0x13
 10533 05f7 01       		.uleb128 0x1
 10534 05f8 13       		.uleb128 0x13
 10535 05f9 00       		.byte	0
 10536 05fa 00       		.byte	0
 10537 05fb 60       		.uleb128 0x60
 10538 05fc 05       		.uleb128 0x5
 10539 05fd 00       		.byte	0
 10540 05fe 03       		.uleb128 0x3
 10541 05ff 0E       		.uleb128 0xe
 10542 0600 49       		.uleb128 0x49
 10543 0601 13       		.uleb128 0x13
 10544 0602 34       		.uleb128 0x34
 10545 0603 19       		.uleb128 0x19
 10546 0604 00       		.byte	0
 10547 0605 00       		.byte	0
 10548 0606 61       		.uleb128 0x61
 10549 0607 2E       		.uleb128 0x2e
 10550 0608 01       		.byte	0x1
 10551 0609 31       		.uleb128 0x31
 10552 060a 13       		.uleb128 0x13
 10553 060b 6E       		.uleb128 0x6e
 10554 060c 08       		.uleb128 0x8
 10555 060d 11       		.uleb128 0x11
 10556 060e 01       		.uleb128 0x1
 10557 060f 12       		.uleb128 0x12
 10558 0610 06       		.uleb128 0x6
GAS LISTING C:\Users\USER\AppData\Local\Temp\ccFSuTGK.s 			page 225


 10559 0611 40       		.uleb128 0x40
 10560 0612 18       		.uleb128 0x18
 10561 0613 64       		.uleb128 0x64
 10562 0614 13       		.uleb128 0x13
 10563 0615 9742     		.uleb128 0x2117
 10564 0617 19       		.uleb128 0x19
 10565 0618 01       		.uleb128 0x1
 10566 0619 13       		.uleb128 0x13
 10567 061a 00       		.byte	0
 10568 061b 00       		.byte	0
 10569 061c 62       		.uleb128 0x62
 10570 061d 05       		.uleb128 0x5
 10571 061e 00       		.byte	0
 10572 061f 31       		.uleb128 0x31
 10573 0620 13       		.uleb128 0x13
 10574 0621 02       		.uleb128 0x2
 10575 0622 18       		.uleb128 0x18
 10576 0623 00       		.byte	0
 10577 0624 00       		.byte	0
 10578 0625 63       		.uleb128 0x63
 10579 0626 2E       		.uleb128 0x2e
 10580 0627 01       		.byte	0x1
 10581 0628 47       		.uleb128 0x47
 10582 0629 13       		.uleb128 0x13
 10583 062a 11       		.uleb128 0x11
 10584 062b 01       		.uleb128 0x1
 10585 062c 12       		.uleb128 0x12
 10586 062d 06       		.uleb128 0x6
 10587 062e 40       		.uleb128 0x40
 10588 062f 18       		.uleb128 0x18
 10589 0630 64       		.uleb128 0x64
 10590 0631 13       		.uleb128 0x13
 10591 0632 9742     		.uleb128 0x2117
 10592 0634 19       		.uleb128 0x19
 10593 0635 01       		.uleb128 0x1
 10594 0636 13       		.uleb128 0x13
 10595 0637 00       		.byte	0
 10596 0638 00       		.byte	0
 10597 0639 64       		.uleb128 0x64
 10598 063a 05       		.uleb128 0x5
 10599 063b 00       		.byte	0
 10600 063c 03       		.uleb128 0x3
 10601 063d 0E       		.uleb128 0xe
 10602 063e 49       		.uleb128 0x49
 10603 063f 13       		.uleb128 0x13
 10604 0640 34       		.uleb128 0x34
 10605 0641 19       		.uleb128 0x19
 10606 0642 02       		.uleb128 0x2
 10607 0643 18       		.uleb128 0x18
 10608 0644 00       		.byte	0
 10609 0645 00       		.byte	0
 10610 0646 65       		.uleb128 0x65
 10611 0647 2E       		.uleb128 0x2e
 10612 0648 01       		.byte	0x1
 10613 0649 47       		.uleb128 0x47
 10614 064a 13       		.uleb128 0x13
 10615 064b 3A       		.uleb128 0x3a
GAS LISTING C:\Users\USER\AppData\Local\Temp\ccFSuTGK.s 			page 226


 10616 064c 0B       		.uleb128 0xb
 10617 064d 3B       		.uleb128 0x3b
 10618 064e 0B       		.uleb128 0xb
 10619 064f 20       		.uleb128 0x20
 10620 0650 0B       		.uleb128 0xb
 10621 0651 64       		.uleb128 0x64
 10622 0652 13       		.uleb128 0x13
 10623 0653 01       		.uleb128 0x1
 10624 0654 13       		.uleb128 0x13
 10625 0655 00       		.byte	0
 10626 0656 00       		.byte	0
 10627 0657 66       		.uleb128 0x66
 10628 0658 2E       		.uleb128 0x2e
 10629 0659 01       		.byte	0x1
 10630 065a 31       		.uleb128 0x31
 10631 065b 13       		.uleb128 0x13
 10632 065c 6E       		.uleb128 0x6e
 10633 065d 08       		.uleb128 0x8
 10634 065e 11       		.uleb128 0x11
 10635 065f 01       		.uleb128 0x1
 10636 0660 12       		.uleb128 0x12
 10637 0661 06       		.uleb128 0x6
 10638 0662 40       		.uleb128 0x40
 10639 0663 18       		.uleb128 0x18
 10640 0664 64       		.uleb128 0x64
 10641 0665 13       		.uleb128 0x13
 10642 0666 9642     		.uleb128 0x2116
 10643 0668 19       		.uleb128 0x19
 10644 0669 01       		.uleb128 0x1
 10645 066a 13       		.uleb128 0x13
 10646 066b 00       		.byte	0
 10647 066c 00       		.byte	0
 10648 066d 67       		.uleb128 0x67
 10649 066e 05       		.uleb128 0x5
 10650 066f 00       		.byte	0
 10651 0670 03       		.uleb128 0x3
 10652 0671 08       		.uleb128 0x8
 10653 0672 3A       		.uleb128 0x3a
 10654 0673 0B       		.uleb128 0xb
 10655 0674 3B       		.uleb128 0x3b
 10656 0675 0B       		.uleb128 0xb
 10657 0676 49       		.uleb128 0x49
 10658 0677 13       		.uleb128 0x13
 10659 0678 00       		.byte	0
 10660 0679 00       		.byte	0
 10661 067a 68       		.uleb128 0x68
 10662 067b 2E       		.uleb128 0x2e
 10663 067c 01       		.byte	0x1
 10664 067d 47       		.uleb128 0x47
 10665 067e 13       		.uleb128 0x13
 10666 067f 11       		.uleb128 0x11
 10667 0680 01       		.uleb128 0x1
 10668 0681 12       		.uleb128 0x12
 10669 0682 06       		.uleb128 0x6
 10670 0683 40       		.uleb128 0x40
 10671 0684 18       		.uleb128 0x18
 10672 0685 64       		.uleb128 0x64
GAS LISTING C:\Users\USER\AppData\Local\Temp\ccFSuTGK.s 			page 227


 10673 0686 13       		.uleb128 0x13
 10674 0687 9642     		.uleb128 0x2116
 10675 0689 19       		.uleb128 0x19
 10676 068a 01       		.uleb128 0x1
 10677 068b 13       		.uleb128 0x13
 10678 068c 00       		.byte	0
 10679 068d 00       		.byte	0
 10680 068e 69       		.uleb128 0x69
 10681 068f 05       		.uleb128 0x5
 10682 0690 00       		.byte	0
 10683 0691 03       		.uleb128 0x3
 10684 0692 08       		.uleb128 0x8
 10685 0693 3A       		.uleb128 0x3a
 10686 0694 0B       		.uleb128 0xb
 10687 0695 3B       		.uleb128 0x3b
 10688 0696 0B       		.uleb128 0xb
 10689 0697 49       		.uleb128 0x49
 10690 0698 13       		.uleb128 0x13
 10691 0699 02       		.uleb128 0x2
 10692 069a 18       		.uleb128 0x18
 10693 069b 00       		.byte	0
 10694 069c 00       		.byte	0
 10695 069d 6A       		.uleb128 0x6a
 10696 069e 2E       		.uleb128 0x2e
 10697 069f 01       		.byte	0x1
 10698 06a0 47       		.uleb128 0x47
 10699 06a1 13       		.uleb128 0x13
 10700 06a2 11       		.uleb128 0x11
 10701 06a3 01       		.uleb128 0x1
 10702 06a4 12       		.uleb128 0x12
 10703 06a5 06       		.uleb128 0x6
 10704 06a6 40       		.uleb128 0x40
 10705 06a7 18       		.uleb128 0x18
 10706 06a8 9742     		.uleb128 0x2117
 10707 06aa 19       		.uleb128 0x19
 10708 06ab 01       		.uleb128 0x1
 10709 06ac 13       		.uleb128 0x13
 10710 06ad 00       		.byte	0
 10711 06ae 00       		.byte	0
 10712 06af 6B       		.uleb128 0x6b
 10713 06b0 2E       		.uleb128 0x2e
 10714 06b1 01       		.byte	0x1
 10715 06b2 47       		.uleb128 0x47
 10716 06b3 13       		.uleb128 0x13
 10717 06b4 11       		.uleb128 0x11
 10718 06b5 01       		.uleb128 0x1
 10719 06b6 12       		.uleb128 0x12
 10720 06b7 06       		.uleb128 0x6
 10721 06b8 40       		.uleb128 0x40
 10722 06b9 18       		.uleb128 0x18
 10723 06ba 9642     		.uleb128 0x2116
 10724 06bc 19       		.uleb128 0x19
 10725 06bd 01       		.uleb128 0x1
 10726 06be 13       		.uleb128 0x13
 10727 06bf 00       		.byte	0
 10728 06c0 00       		.byte	0
 10729 06c1 6C       		.uleb128 0x6c
GAS LISTING C:\Users\USER\AppData\Local\Temp\ccFSuTGK.s 			page 228


 10730 06c2 34       		.uleb128 0x34
 10731 06c3 00       		.byte	0
 10732 06c4 03       		.uleb128 0x3
 10733 06c5 08       		.uleb128 0x8
 10734 06c6 3A       		.uleb128 0x3a
 10735 06c7 0B       		.uleb128 0xb
 10736 06c8 3B       		.uleb128 0x3b
 10737 06c9 0B       		.uleb128 0xb
 10738 06ca 49       		.uleb128 0x49
 10739 06cb 13       		.uleb128 0x13
 10740 06cc 02       		.uleb128 0x2
 10741 06cd 18       		.uleb128 0x18
 10742 06ce 00       		.byte	0
 10743 06cf 00       		.byte	0
 10744 06d0 6D       		.uleb128 0x6d
 10745 06d1 0B       		.uleb128 0xb
 10746 06d2 01       		.byte	0x1
 10747 06d3 11       		.uleb128 0x11
 10748 06d4 01       		.uleb128 0x1
 10749 06d5 12       		.uleb128 0x12
 10750 06d6 06       		.uleb128 0x6
 10751 06d7 00       		.byte	0
 10752 06d8 00       		.byte	0
 10753 06d9 6E       		.uleb128 0x6e
 10754 06da 2E       		.uleb128 0x2e
 10755 06db 01       		.byte	0x1
 10756 06dc 3F       		.uleb128 0x3f
 10757 06dd 19       		.uleb128 0x19
 10758 06de 03       		.uleb128 0x3
 10759 06df 08       		.uleb128 0x8
 10760 06e0 3A       		.uleb128 0x3a
 10761 06e1 0B       		.uleb128 0xb
 10762 06e2 3B       		.uleb128 0x3b
 10763 06e3 0B       		.uleb128 0xb
 10764 06e4 6E       		.uleb128 0x6e
 10765 06e5 08       		.uleb128 0x8
 10766 06e6 49       		.uleb128 0x49
 10767 06e7 13       		.uleb128 0x13
 10768 06e8 11       		.uleb128 0x11
 10769 06e9 01       		.uleb128 0x1
 10770 06ea 12       		.uleb128 0x12
 10771 06eb 06       		.uleb128 0x6
 10772 06ec 40       		.uleb128 0x40
 10773 06ed 18       		.uleb128 0x18
 10774 06ee 9642     		.uleb128 0x2116
 10775 06f0 19       		.uleb128 0x19
 10776 06f1 01       		.uleb128 0x1
 10777 06f2 13       		.uleb128 0x13
 10778 06f3 00       		.byte	0
 10779 06f4 00       		.byte	0
 10780 06f5 6F       		.uleb128 0x6f
 10781 06f6 2E       		.uleb128 0x2e
 10782 06f7 00       		.byte	0
 10783 06f8 03       		.uleb128 0x3
 10784 06f9 08       		.uleb128 0x8
 10785 06fa 34       		.uleb128 0x34
 10786 06fb 19       		.uleb128 0x19
GAS LISTING C:\Users\USER\AppData\Local\Temp\ccFSuTGK.s 			page 229


 10787 06fc 11       		.uleb128 0x11
 10788 06fd 01       		.uleb128 0x1
 10789 06fe 12       		.uleb128 0x12
 10790 06ff 06       		.uleb128 0x6
 10791 0700 40       		.uleb128 0x40
 10792 0701 18       		.uleb128 0x18
 10793 0702 9642     		.uleb128 0x2116
 10794 0704 19       		.uleb128 0x19
 10795 0705 00       		.byte	0
 10796 0706 00       		.byte	0
 10797 0707 70       		.uleb128 0x70
 10798 0708 2E       		.uleb128 0x2e
 10799 0709 01       		.byte	0x1
 10800 070a 03       		.uleb128 0x3
 10801 070b 08       		.uleb128 0x8
 10802 070c 34       		.uleb128 0x34
 10803 070d 19       		.uleb128 0x19
 10804 070e 11       		.uleb128 0x11
 10805 070f 01       		.uleb128 0x1
 10806 0710 12       		.uleb128 0x12
 10807 0711 06       		.uleb128 0x6
 10808 0712 40       		.uleb128 0x40
 10809 0713 18       		.uleb128 0x18
 10810 0714 9642     		.uleb128 0x2116
 10811 0716 19       		.uleb128 0x19
 10812 0717 01       		.uleb128 0x1
 10813 0718 13       		.uleb128 0x13
 10814 0719 00       		.byte	0
 10815 071a 00       		.byte	0
 10816 071b 71       		.uleb128 0x71
 10817 071c 34       		.uleb128 0x34
 10818 071d 00       		.byte	0
 10819 071e 47       		.uleb128 0x47
 10820 071f 13       		.uleb128 0x13
 10821 0720 02       		.uleb128 0x2
 10822 0721 18       		.uleb128 0x18
 10823 0722 00       		.byte	0
 10824 0723 00       		.byte	0
 10825 0724 72       		.uleb128 0x72
 10826 0725 34       		.uleb128 0x34
 10827 0726 00       		.byte	0
 10828 0727 47       		.uleb128 0x47
 10829 0728 13       		.uleb128 0x13
 10830 0729 6E       		.uleb128 0x6e
 10831 072a 08       		.uleb128 0x8
 10832 072b 1C       		.uleb128 0x1c
 10833 072c 0D       		.uleb128 0xd
 10834 072d 00       		.byte	0
 10835 072e 00       		.byte	0
 10836 072f 73       		.uleb128 0x73
 10837 0730 34       		.uleb128 0x34
 10838 0731 00       		.byte	0
 10839 0732 47       		.uleb128 0x47
 10840 0733 13       		.uleb128 0x13
 10841 0734 6E       		.uleb128 0x6e
 10842 0735 08       		.uleb128 0x8
 10843 0736 1C       		.uleb128 0x1c
GAS LISTING C:\Users\USER\AppData\Local\Temp\ccFSuTGK.s 			page 230


 10844 0737 06       		.uleb128 0x6
 10845 0738 00       		.byte	0
 10846 0739 00       		.byte	0
 10847 073a 74       		.uleb128 0x74
 10848 073b 34       		.uleb128 0x34
 10849 073c 00       		.byte	0
 10850 073d 47       		.uleb128 0x47
 10851 073e 13       		.uleb128 0x13
 10852 073f 6E       		.uleb128 0x6e
 10853 0740 08       		.uleb128 0x8
 10854 0741 1C       		.uleb128 0x1c
 10855 0742 0B       		.uleb128 0xb
 10856 0743 00       		.byte	0
 10857 0744 00       		.byte	0
 10858 0745 75       		.uleb128 0x75
 10859 0746 34       		.uleb128 0x34
 10860 0747 00       		.byte	0
 10861 0748 47       		.uleb128 0x47
 10862 0749 13       		.uleb128 0x13
 10863 074a 6E       		.uleb128 0x6e
 10864 074b 08       		.uleb128 0x8
 10865 074c 1C       		.uleb128 0x1c
 10866 074d 05       		.uleb128 0x5
 10867 074e 00       		.byte	0
 10868 074f 00       		.byte	0
 10869 0750 00       		.byte	0
 10870              		.section	.debug_aranges,"dr"
 10871 0000 4C000000 		.long	0x4c
 10872 0004 0200     		.word	0x2
 10873 0006 00000000 		.secrel32	Ldebug_info0
 10874 000a 04       		.byte	0x4
 10875 000b 00       		.byte	0
 10876 000c 0000     		.word	0
 10877 000e 0000     		.word	0
 10878 0010 00000000 		.long	Ltext0
 10879 0014 E50B0000 		.long	Letext0-Ltext0
 10880 0018 00000000 		.long	LFB18
 10881 001c 16000000 		.long	LFE18-LFB18
 10882 0020 00000000 		.long	LFB1047
 10883 0024 10000000 		.long	LFE1047-LFB1047
 10884 0028 00000000 		.long	LFB1054
 10885 002c 20000000 		.long	LFE1054-LFB1054
 10886 0030 00000000 		.long	LFB1081
 10887 0034 3C000000 		.long	LFE1081-LFB1081
 10888 0038 00000000 		.long	LFB1208
 10889 003c 33000000 		.long	LFE1208-LFB1208
 10890 0040 00000000 		.long	LFB1209
 10891 0044 20000000 		.long	LFE1209-LFB1209
 10892 0048 00000000 		.long	0
 10893 004c 00000000 		.long	0
 10894              		.section	.debug_ranges,"dr"
 10895              	Ldebug_ranges0:
 10896 0000 00000000 		.long	Ltext0
 10897 0004 E50B0000 		.long	Letext0
 10898 0008 00000000 		.long	LFB18
 10899 000c 16000000 		.long	LFE18
 10900 0010 00000000 		.long	LFB1047
GAS LISTING C:\Users\USER\AppData\Local\Temp\ccFSuTGK.s 			page 231


 10901 0014 10000000 		.long	LFE1047
 10902 0018 00000000 		.long	LFB1054
 10903 001c 20000000 		.long	LFE1054
 10904 0020 00000000 		.long	LFB1081
 10905 0024 3C000000 		.long	LFE1081
 10906 0028 00000000 		.long	LFB1208
 10907 002c 33000000 		.long	LFE1208
 10908 0030 00000000 		.long	LFB1209
 10909 0034 20000000 		.long	LFE1209
 10910 0038 00000000 		.long	0
 10911 003c 00000000 		.long	0
 10912              		.section	.debug_line,"dr"
 10913              	Ldebug_line0:
 10914 0000 1B060000 		.section	.debug_str,"dr"
 10914      02005403 
 10914      00000101 
 10914      FB0E0D00 
 10914      01010101 
 10915              	LASF1:
 10916 0000 73697A65 		.ascii "size_type\0"
 10916      5F747970 
 10916      6500
 10917              	LASF17:
 10918 000a 7265706C 		.ascii "replace\0"
 10918      61636500 
 10919              	LASF4:
 10920 0012 636F6E73 		.ascii "const_pointer\0"
 10920      745F706F 
 10920      696E7465 
 10920      7200
 10921              	LASF27:
 10922 0020 616C6C6F 		.ascii "allocator\0"
 10922      6361746F 
 10922      7200
 10923              	LASF5:
 10924 002a 5F4D5F6C 		.ascii "_M_local_data\0"
 10924      6F63616C 
 10924      5F646174 
 10924      6100
 10925              	LASF39:
 10926 0038 5F56616C 		.ascii "_Value\0"
 10926      756500
 10927              	LASF30:
 10928 003f 5F497465 		.ascii "_Iterator\0"
 10928      7261746F 
 10928      7200
 10929              	LASF45:
 10930 0049 6F706572 		.ascii "operator--\0"
 10930      61746F72 
 10930      2D2D00
 10931              	LASF22:
 10932 0054 66696E64 		.ascii "find_last_not_of\0"
 10932      5F6C6173 
 10932      745F6E6F 
 10932      745F6F66 
 10932      00
 10933              	LASF48:
GAS LISTING C:\Users\USER\AppData\Local\Temp\ccFSuTGK.s 			page 232


 10934 0065 6F706572 		.ascii "operator-\0"
 10934      61746F72 
 10934      2D00
 10935              	LASF47:
 10936 006f 6F706572 		.ascii "operator-=\0"
 10936      61746F72 
 10936      2D3D00
 10937              	LASF43:
 10938 007a 6F706572 		.ascii "operator->\0"
 10938      61746F72 
 10938      2D3E00
 10939              	LASF9:
 10940 0085 62617369 		.ascii "basic_string\0"
 10940      635F7374 
 10940      72696E67 
 10940      00
 10941              	LASF31:
 10942 0092 65786365 		.ascii "exception\0"
 10942      7074696F 
 10942      6E00
 10943              	LASF6:
 10944 009c 5F4D5F67 		.ascii "_M_get_allocator\0"
 10944      65745F61 
 10944      6C6C6F63 
 10944      61746F72 
 10944      00
 10945              	LASF37:
 10946 00ad 5F5F6973 		.ascii "__is_signed\0"
 10946      5F736967 
 10946      6E656400 
 10947              	LASF51:
 10948 00b9 46656368 		.ascii "FechaNoValida\0"
 10948      614E6F56 
 10948      616C6964 
 10948      6100
 10949              	LASF24:
 10950 00c7 5F547261 		.ascii "_Traits\0"
 10950      69747300 
 10951              	LASF40:
 10952 00cf 5F4D5F63 		.ascii "_M_current\0"
 10952      75727265 
 10952      6E7400
 10953              	LASF34:
 10954 00da 6465616C 		.ascii "deallocate\0"
 10954      6C6F6361 
 10954      746500
 10955              	LASF42:
 10956 00e5 6F706572 		.ascii "operator*\0"
 10956      61746F72 
 10956      2A00
 10957              	LASF46:
 10958 00ef 6F706572 		.ascii "operator+\0"
 10958      61746F72 
 10958      2B00
 10959              	LASF50:
 10960 00f9 46656368 		.ascii "Fecha\0"
 10960      6100
GAS LISTING C:\Users\USER\AppData\Local\Temp\ccFSuTGK.s 			page 233


 10961              	LASF10:
 10962 00ff 6F706572 		.ascii "operator=\0"
 10962      61746F72 
 10962      3D00
 10963              	LASF15:
 10964 0109 61737369 		.ascii "assign\0"
 10964      676E00
 10965              	LASF32:
 10966 0110 6E65775F 		.ascii "new_allocator\0"
 10966      616C6C6F 
 10966      6361746F 
 10966      7200
 10967              	LASF19:
 10968 011e 66696E64 		.ascii "find_first_of\0"
 10968      5F666972 
 10968      73745F6F 
 10968      6600
 10969              	LASF18:
 10970 012c 7266696E 		.ascii "rfind\0"
 10970      6400
 10971              	LASF33:
 10972 0132 616C6C6F 		.ascii "allocate\0"
 10972      63617465 
 10972      00
 10973              	LASF41:
 10974 013b 5F5F6E6F 		.ascii "__normal_iterator\0"
 10974      726D616C 
 10974      5F697465 
 10974      7261746F 
 10974      7200
 10975              	LASF12:
 10976 014d 6F706572 		.ascii "operator[]\0"
 10976      61746F72 
 10976      5B5D00
 10977              	LASF44:
 10978 0158 6F706572 		.ascii "operator++\0"
 10978      61746F72 
 10978      2B2B00
 10979              	LASF14:
 10980 0163 61707065 		.ascii "append\0"
 10980      6E6400
 10981              	LASF26:
 10982 016a 5F436861 		.ascii "_CharT\0"
 10982      725400
 10983              	LASF53:
 10984 0171 5F5F696E 		.ascii "__in_chrg\0"
 10984      5F636872 
 10984      6700
 10985              	LASF16:
 10986 017b 696E7365 		.ascii "insert\0"
 10986      727400
 10987              	LASF52:
 10988 0182 74686973 		.ascii "this\0"
 10988      00
 10989              	LASF13:
 10990 0187 6F706572 		.ascii "operator+=\0"
 10990      61746F72 
GAS LISTING C:\Users\USER\AppData\Local\Temp\ccFSuTGK.s 			page 234


 10990      2B3D00
 10991              	LASF8:
 10992 0192 5F535F63 		.ascii "_S_copy_chars\0"
 10992      6F70795F 
 10992      63686172 
 10992      7300
 10993              	LASF36:
 10994 01a0 5F5F6D61 		.ascii "__max\0"
 10994      7800
 10995              	LASF7:
 10996 01a6 5F416C6C 		.ascii "_Alloc_hider\0"
 10996      6F635F68 
 10996      69646572 
 10996      00
 10997              	LASF49:
 10998 01b3 5F436F6E 		.ascii "_Container\0"
 10998      7461696E 
 10998      657200
 10999              	LASF2:
 11000 01be 72656665 		.ascii "reference\0"
 11000      72656E63 
 11000      6500
 11001              	LASF3:
 11002 01c8 636F6E73 		.ascii "const_reference\0"
 11002      745F7265 
 11002      66657265 
 11002      6E636500 
 11003              	LASF23:
 11004 01d8 636F6D70 		.ascii "compare\0"
 11004      61726500 
 11005              	LASF28:
 11006 01e0 72656269 		.ascii "rebind<char>\0"
 11006      6E643C63 
 11006      6861723E 
 11006      00
 11007              	LASF35:
 11008 01ed 5F5F6D69 		.ascii "__min\0"
 11008      6E00
 11009              	LASF0:
 11010 01f3 706F696E 		.ascii "pointer\0"
 11010      74657200 
 11011              	LASF29:
 11012 01fb 64696666 		.ascii "difference_type\0"
 11012      6572656E 
 11012      63655F74 
 11012      79706500 
 11013              	LASF21:
 11014 020b 66696E64 		.ascii "find_first_not_of\0"
 11014      5F666972 
 11014      73745F6E 
 11014      6F745F6F 
 11014      6600
 11015              	LASF11:
 11016 021d 6D61785F 		.ascii "max_size\0"
 11016      73697A65 
 11016      00
 11017              	LASF20:
GAS LISTING C:\Users\USER\AppData\Local\Temp\ccFSuTGK.s 			page 235


 11018 0226 66696E64 		.ascii "find_last_of\0"
 11018      5F6C6173 
 11018      745F6F66 
 11018      00
 11019              	LASF38:
 11020 0233 5F5F6469 		.ascii "__digits\0"
 11020      67697473 
 11020      00
 11021              	LASF25:
 11022 023c 5F416C6C 		.ascii "_Alloc\0"
 11022      6F6300
 11023              		.ident	"GCC: (tdm-1) 5.1.0"
GAS LISTING C:\Users\USER\AppData\Local\Temp\ccFSuTGK.s 			page 236


DEFINED SYMBOLS
                            *ABS*:00000000 Fecha.cpp
C:\Users\USER\AppData\Local\Temp\ccFSuTGK.s:10     .text$_ZNSt9exceptionC2Ev:00000000 __ZNSt9exceptionC2Ev
                             .bss:00000000 __ZStL8__ioinit
C:\Users\USER\AppData\Local\Temp\ccFSuTGK.s:44     .text$_ZNK13FechaNoValida4whatEv:00000000 __ZNK13FechaNoValida4whatEv
C:\Users\USER\AppData\Local\Temp\ccFSuTGK.s:69     .text:00000000 __ZN5FechaC2Ev
C:\Users\USER\AppData\Local\Temp\ccFSuTGK.s:1842   .rdata$_ZTV5Fecha:00000000 __ZTV5Fecha
C:\Users\USER\AppData\Local\Temp\ccFSuTGK.s:69     .text:00000000 __ZN5FechaC1Ev
C:\Users\USER\AppData\Local\Temp\ccFSuTGK.s:112    .text$_ZN13FechaNoValidaC1Ev:00000000 __ZN13FechaNoValidaC1Ev
C:\Users\USER\AppData\Local\Temp\ccFSuTGK.s:1851   .rdata$_ZTV13FechaNoValida:00000000 __ZTV13FechaNoValida
C:\Users\USER\AppData\Local\Temp\ccFSuTGK.s:146    .text:00000034 __ZN5FechaC2Eiii
C:\Users\USER\AppData\Local\Temp\ccFSuTGK.s:1943   .rdata$_ZTI13FechaNoValida:00000000 __ZTI13FechaNoValida
C:\Users\USER\AppData\Local\Temp\ccFSuTGK.s:146    .text:00000034 __ZN5FechaC1Eiii
C:\Users\USER\AppData\Local\Temp\ccFSuTGK.s:280    .text:00000132 __ZN5FechaD2Ev
C:\Users\USER\AppData\Local\Temp\ccFSuTGK.s:280    .text:00000132 __ZN5FechaD1Ev
C:\Users\USER\AppData\Local\Temp\ccFSuTGK.s:319    .text:0000015c __ZN5FechaD0Ev
C:\Users\USER\AppData\Local\Temp\ccFSuTGK.s:346    .text:0000017c __ZNK5Fecha6getDiaEv
C:\Users\USER\AppData\Local\Temp\ccFSuTGK.s:370    .text:0000018e __ZNK5Fecha6getMesEv
C:\Users\USER\AppData\Local\Temp\ccFSuTGK.s:394    .text:000001a0 __ZNK5Fecha7getAnhoEv
C:\Users\USER\AppData\Local\Temp\ccFSuTGK.s:418    .text:000001b2 __ZN5Fecha15establecerFechaEiii
C:\Users\USER\AppData\Local\Temp\ccFSuTGK.s:543    .text:000002a6 __ZN5Fecha12anhoBisiestoEi
C:\Users\USER\AppData\Local\Temp\ccFSuTGK.s:606    .text:0000030a __ZN5Fecha14cantidadDeDiasEii
C:\Users\USER\AppData\Local\Temp\ccFSuTGK.s:719    .text:000003c6 __ZN5Fecha11fechaValidaEiii
C:\Users\USER\AppData\Local\Temp\ccFSuTGK.s:763    .text:00000404 __ZN5Fecha12aumentarDiasEv
C:\Users\USER\AppData\Local\Temp\ccFSuTGK.s:845    .text:000004b0 __ZN5Fecha13disminuirDiasEv
C:\Users\USER\AppData\Local\Temp\ccFSuTGK.s:939    .text:00000572 __ZNK5Fecha8getFechaB5cxx11Ev
C:\Users\USER\AppData\Local\Temp\ccFSuTGK.s:1072   .text:000006ec __ZN5FechammEv
C:\Users\USER\AppData\Local\Temp\ccFSuTGK.s:1101   .text$_ZN5FechaC1ERKS_:00000000 __ZN5FechaC1ERKS_
C:\Users\USER\AppData\Local\Temp\ccFSuTGK.s:1142   .text:00000704 __ZN5FechammEi
C:\Users\USER\AppData\Local\Temp\ccFSuTGK.s:1176   .text:00000730 __ZN5FechamIEi
C:\Users\USER\AppData\Local\Temp\ccFSuTGK.s:1216   .text:00000760 __ZNK5FechaeqERKS_
C:\Users\USER\AppData\Local\Temp\ccFSuTGK.s:1268   .text:000007a9 __ZrsRSiR5Fecha
C:\Users\USER\AppData\Local\Temp\ccFSuTGK.s:1330   .text:00000833 __ZlsRSo5Fecha
C:\Users\USER\AppData\Local\Temp\ccFSuTGK.s:1428   .text:000008f6 __ZN5FechagtERKS_
C:\Users\USER\AppData\Local\Temp\ccFSuTGK.s:1506   .text:0000097e __ZN5FechaltERKS_
C:\Users\USER\AppData\Local\Temp\ccFSuTGK.s:1584   .text:00000a06 __ZN5FechageERKS_
C:\Users\USER\AppData\Local\Temp\ccFSuTGK.s:1662   .text:00000a8e __ZN5FechaleERKS_
C:\Users\USER\AppData\Local\Temp\ccFSuTGK.s:1740   .text:00000b16 __ZN5FechappEi
C:\Users\USER\AppData\Local\Temp\ccFSuTGK.s:1774   .text:00000b42 __ZN5FechappEv
C:\Users\USER\AppData\Local\Temp\ccFSuTGK.s:1801   .text:00000b5a __ZN5FechapLEi
C:\Users\USER\AppData\Local\Temp\ccFSuTGK.s:1930   .rdata$_ZTI5Fecha:00000000 __ZTI5Fecha
C:\Users\USER\AppData\Local\Temp\ccFSuTGK.s:1862   .text$_ZN13FechaNoValidaD1Ev:00000000 __ZN13FechaNoValidaD1Ev
C:\Users\USER\AppData\Local\Temp\ccFSuTGK.s:1902   .text$_ZN13FechaNoValidaD0Ev:00000000 __ZN13FechaNoValidaD0Ev
C:\Users\USER\AppData\Local\Temp\ccFSuTGK.s:1937   .rdata$_ZTS5Fecha:00000000 __ZTS5Fecha
C:\Users\USER\AppData\Local\Temp\ccFSuTGK.s:1951   .rdata$_ZTS13FechaNoValida:00000000 __ZTS13FechaNoValida
C:\Users\USER\AppData\Local\Temp\ccFSuTGK.s:1957   .rdata$_ZTISt9exception:00000000 __ZTISt9exception
C:\Users\USER\AppData\Local\Temp\ccFSuTGK.s:1964   .rdata$_ZTSSt9exception:00000000 __ZTSSt9exception
C:\Users\USER\AppData\Local\Temp\ccFSuTGK.s:1968   .text:00000b89 ___tcf_0
C:\Users\USER\AppData\Local\Temp\ccFSuTGK.s:1989   .text:00000b9b __Z41__static_initialization_and_destruction_0ii
C:\Users\USER\AppData\Local\Temp\ccFSuTGK.s:2020   .text:00000bc9 __GLOBAL__sub_I__ZN5FechaC2Ev

UNDEFINED SYMBOLS
__ZTVSt9exception
___gxx_personality_sj0
__Unwind_SjLj_Register
__Unwind_SjLj_Unregister
__ZSt4cout
GAS LISTING C:\Users\USER\AppData\Local\Temp\ccFSuTGK.s 			page 237


__ZTVN10__cxxabiv117__class_type_infoE
__ZTVN10__cxxabiv120__si_class_type_infoE
___cxa_allocate_exception
___cxa_throw
__Unwind_SjLj_Resume
___cxa_call_unexpected
__ZdlPv
__ZNSt7__cxx1119basic_ostringstreamIcSt11char_traitsIcESaIcEEC1ESt13_Ios_Openmode
__ZNSolsEi
__ZStlsISt11char_traitsIcEERSt13basic_ostreamIcT_ES5_PKc
__ZNKSt7__cxx1119basic_ostringstreamIcSt11char_traitsIcESaIcEE3strEv
__ZNSt7__cxx1119basic_ostringstreamIcSt11char_traitsIcESaIcEED1Ev
__ZSt4endlIcSt11char_traitsIcEERSt13basic_ostreamIT_T0_ES6_
__ZNSolsEPFRSoS_E
__ZNSirsERi
__ZStlsIcSt11char_traitsIcESaIcEERSt13basic_ostreamIT_T0_ES7_RKNSt7__cxx1112basic_stringIS4_S5_T1_EE
__ZNSt7__cxx1112basic_stringIcSt11char_traitsIcESaIcEED1Ev
__ZNSt9exceptionD2Ev
__ZNSt8ios_base4InitD1Ev
__ZNSt8ios_base4InitC1Ev
_atexit
